
PIDController.elf:     file format elf32-littlearm

Sections:
Idx Name          Size      VMA       LMA       File off  Algn
  0 .isr_vector   00000188  08000000  08000000  00010000  2**0
                  CONTENTS, ALLOC, LOAD, READONLY, DATA
  1 .text         0000b184  08000190  08000190  00010190  2**4
                  CONTENTS, ALLOC, LOAD, READONLY, CODE
  2 .rodata       00000378  0800b318  0800b318  0001b318  2**3
                  CONTENTS, ALLOC, LOAD, READONLY, DATA
  3 .ARM.extab    00000000  0800b690  0800b690  00020208  2**0
                  CONTENTS
  4 .ARM          00000008  0800b690  0800b690  0001b690  2**2
                  CONTENTS, ALLOC, LOAD, READONLY, DATA
  5 .preinit_array 00000000  0800b698  0800b698  00020208  2**0
                  CONTENTS, ALLOC, LOAD, DATA
  6 .init_array   00000004  0800b698  0800b698  0001b698  2**2
                  CONTENTS, ALLOC, LOAD, DATA
  7 .fini_array   00000004  0800b69c  0800b69c  0001b69c  2**2
                  CONTENTS, ALLOC, LOAD, DATA
  8 .data         00000208  20000000  0800b6a0  00020000  2**2
                  CONTENTS, ALLOC, LOAD, DATA
  9 .bss          00000b8c  20000208  0800b8a8  00020208  2**2
                  ALLOC
 10 ._user_heap_stack 00000604  20000d94  0800b8a8  00020d94  2**0
                  ALLOC
 11 .ARM.attributes 00000030  00000000  00000000  00020208  2**0
                  CONTENTS, READONLY
 12 .debug_info   000280a8  00000000  00000000  00020238  2**0
                  CONTENTS, READONLY, DEBUGGING
 13 .debug_abbrev 0000551b  00000000  00000000  000482e0  2**0
                  CONTENTS, READONLY, DEBUGGING
 14 .debug_loc    00016066  00000000  00000000  0004d7fb  2**0
                  CONTENTS, READONLY, DEBUGGING
 15 .debug_aranges 00001508  00000000  00000000  00063868  2**3
                  CONTENTS, READONLY, DEBUGGING
 16 .debug_ranges 000023c0  00000000  00000000  00064d70  2**3
                  CONTENTS, READONLY, DEBUGGING
 17 .debug_macro  00026662  00000000  00000000  00067130  2**0
                  CONTENTS, READONLY, DEBUGGING
 18 .debug_line   0001807f  00000000  00000000  0008d792  2**0
                  CONTENTS, READONLY, DEBUGGING
 19 .debug_str    000d9da1  00000000  00000000  000a5811  2**0
                  CONTENTS, READONLY, DEBUGGING
 20 .comment      0000007b  00000000  00000000  0017f5b2  2**0
                  CONTENTS, READONLY
 21 .debug_frame  000056d0  00000000  00000000  0017f630  2**2
                  CONTENTS, READONLY, DEBUGGING

Disassembly of section .text:

08000190 <__do_global_dtors_aux>:
 8000190:	b510      	push	{r4, lr}
 8000192:	4c05      	ldr	r4, [pc, #20]	; (80001a8 <__do_global_dtors_aux+0x18>)
 8000194:	7823      	ldrb	r3, [r4, #0]
 8000196:	b933      	cbnz	r3, 80001a6 <__do_global_dtors_aux+0x16>
 8000198:	4b04      	ldr	r3, [pc, #16]	; (80001ac <__do_global_dtors_aux+0x1c>)
 800019a:	b113      	cbz	r3, 80001a2 <__do_global_dtors_aux+0x12>
 800019c:	4804      	ldr	r0, [pc, #16]	; (80001b0 <__do_global_dtors_aux+0x20>)
 800019e:	f3af 8000 	nop.w
 80001a2:	2301      	movs	r3, #1
 80001a4:	7023      	strb	r3, [r4, #0]
 80001a6:	bd10      	pop	{r4, pc}
 80001a8:	20000208 	.word	0x20000208
 80001ac:	00000000 	.word	0x00000000
 80001b0:	0800b2fc 	.word	0x0800b2fc

080001b4 <frame_dummy>:
 80001b4:	b508      	push	{r3, lr}
 80001b6:	4b03      	ldr	r3, [pc, #12]	; (80001c4 <frame_dummy+0x10>)
 80001b8:	b11b      	cbz	r3, 80001c2 <frame_dummy+0xe>
 80001ba:	4903      	ldr	r1, [pc, #12]	; (80001c8 <frame_dummy+0x14>)
 80001bc:	4803      	ldr	r0, [pc, #12]	; (80001cc <frame_dummy+0x18>)
 80001be:	f3af 8000 	nop.w
 80001c2:	bd08      	pop	{r3, pc}
 80001c4:	00000000 	.word	0x00000000
 80001c8:	2000020c 	.word	0x2000020c
 80001cc:	0800b2fc 	.word	0x0800b2fc

080001d0 <strlen>:
 80001d0:	4603      	mov	r3, r0
 80001d2:	f813 2b01 	ldrb.w	r2, [r3], #1
 80001d6:	2a00      	cmp	r2, #0
 80001d8:	d1fb      	bne.n	80001d2 <strlen+0x2>
 80001da:	1a18      	subs	r0, r3, r0
 80001dc:	3801      	subs	r0, #1
 80001de:	4770      	bx	lr

080001e0 <memchr>:
 80001e0:	f001 01ff 	and.w	r1, r1, #255	; 0xff
 80001e4:	2a10      	cmp	r2, #16
 80001e6:	db2b      	blt.n	8000240 <memchr+0x60>
 80001e8:	f010 0f07 	tst.w	r0, #7
 80001ec:	d008      	beq.n	8000200 <memchr+0x20>
 80001ee:	f810 3b01 	ldrb.w	r3, [r0], #1
 80001f2:	3a01      	subs	r2, #1
 80001f4:	428b      	cmp	r3, r1
 80001f6:	d02d      	beq.n	8000254 <memchr+0x74>
 80001f8:	f010 0f07 	tst.w	r0, #7
 80001fc:	b342      	cbz	r2, 8000250 <memchr+0x70>
 80001fe:	d1f6      	bne.n	80001ee <memchr+0xe>
 8000200:	b4f0      	push	{r4, r5, r6, r7}
 8000202:	ea41 2101 	orr.w	r1, r1, r1, lsl #8
 8000206:	ea41 4101 	orr.w	r1, r1, r1, lsl #16
 800020a:	f022 0407 	bic.w	r4, r2, #7
 800020e:	f07f 0700 	mvns.w	r7, #0
 8000212:	2300      	movs	r3, #0
 8000214:	e8f0 5602 	ldrd	r5, r6, [r0], #8
 8000218:	3c08      	subs	r4, #8
 800021a:	ea85 0501 	eor.w	r5, r5, r1
 800021e:	ea86 0601 	eor.w	r6, r6, r1
 8000222:	fa85 f547 	uadd8	r5, r5, r7
 8000226:	faa3 f587 	sel	r5, r3, r7
 800022a:	fa86 f647 	uadd8	r6, r6, r7
 800022e:	faa5 f687 	sel	r6, r5, r7
 8000232:	b98e      	cbnz	r6, 8000258 <memchr+0x78>
 8000234:	d1ee      	bne.n	8000214 <memchr+0x34>
 8000236:	bcf0      	pop	{r4, r5, r6, r7}
 8000238:	f001 01ff 	and.w	r1, r1, #255	; 0xff
 800023c:	f002 0207 	and.w	r2, r2, #7
 8000240:	b132      	cbz	r2, 8000250 <memchr+0x70>
 8000242:	f810 3b01 	ldrb.w	r3, [r0], #1
 8000246:	3a01      	subs	r2, #1
 8000248:	ea83 0301 	eor.w	r3, r3, r1
 800024c:	b113      	cbz	r3, 8000254 <memchr+0x74>
 800024e:	d1f8      	bne.n	8000242 <memchr+0x62>
 8000250:	2000      	movs	r0, #0
 8000252:	4770      	bx	lr
 8000254:	3801      	subs	r0, #1
 8000256:	4770      	bx	lr
 8000258:	2d00      	cmp	r5, #0
 800025a:	bf06      	itte	eq
 800025c:	4635      	moveq	r5, r6
 800025e:	3803      	subeq	r0, #3
 8000260:	3807      	subne	r0, #7
 8000262:	f015 0f01 	tst.w	r5, #1
 8000266:	d107      	bne.n	8000278 <memchr+0x98>
 8000268:	3001      	adds	r0, #1
 800026a:	f415 7f80 	tst.w	r5, #256	; 0x100
 800026e:	bf02      	ittt	eq
 8000270:	3001      	addeq	r0, #1
 8000272:	f415 3fc0 	tsteq.w	r5, #98304	; 0x18000
 8000276:	3001      	addeq	r0, #1
 8000278:	bcf0      	pop	{r4, r5, r6, r7}
 800027a:	3801      	subs	r0, #1
 800027c:	4770      	bx	lr
 800027e:	bf00      	nop

08000280 <__aeabi_drsub>:
 8000280:	f081 4100 	eor.w	r1, r1, #2147483648	; 0x80000000
 8000284:	e002      	b.n	800028c <__adddf3>
 8000286:	bf00      	nop

08000288 <__aeabi_dsub>:
 8000288:	f083 4300 	eor.w	r3, r3, #2147483648	; 0x80000000

0800028c <__adddf3>:
 800028c:	b530      	push	{r4, r5, lr}
 800028e:	ea4f 0441 	mov.w	r4, r1, lsl #1
 8000292:	ea4f 0543 	mov.w	r5, r3, lsl #1
 8000296:	ea94 0f05 	teq	r4, r5
 800029a:	bf08      	it	eq
 800029c:	ea90 0f02 	teqeq	r0, r2
 80002a0:	bf1f      	itttt	ne
 80002a2:	ea54 0c00 	orrsne.w	ip, r4, r0
 80002a6:	ea55 0c02 	orrsne.w	ip, r5, r2
 80002aa:	ea7f 5c64 	mvnsne.w	ip, r4, asr #21
 80002ae:	ea7f 5c65 	mvnsne.w	ip, r5, asr #21
 80002b2:	f000 80e2 	beq.w	800047a <__adddf3+0x1ee>
 80002b6:	ea4f 5454 	mov.w	r4, r4, lsr #21
 80002ba:	ebd4 5555 	rsbs	r5, r4, r5, lsr #21
 80002be:	bfb8      	it	lt
 80002c0:	426d      	neglt	r5, r5
 80002c2:	dd0c      	ble.n	80002de <__adddf3+0x52>
 80002c4:	442c      	add	r4, r5
 80002c6:	ea80 0202 	eor.w	r2, r0, r2
 80002ca:	ea81 0303 	eor.w	r3, r1, r3
 80002ce:	ea82 0000 	eor.w	r0, r2, r0
 80002d2:	ea83 0101 	eor.w	r1, r3, r1
 80002d6:	ea80 0202 	eor.w	r2, r0, r2
 80002da:	ea81 0303 	eor.w	r3, r1, r3
 80002de:	2d36      	cmp	r5, #54	; 0x36
 80002e0:	bf88      	it	hi
 80002e2:	bd30      	pophi	{r4, r5, pc}
 80002e4:	f011 4f00 	tst.w	r1, #2147483648	; 0x80000000
 80002e8:	ea4f 3101 	mov.w	r1, r1, lsl #12
 80002ec:	f44f 1c80 	mov.w	ip, #1048576	; 0x100000
 80002f0:	ea4c 3111 	orr.w	r1, ip, r1, lsr #12
 80002f4:	d002      	beq.n	80002fc <__adddf3+0x70>
 80002f6:	4240      	negs	r0, r0
 80002f8:	eb61 0141 	sbc.w	r1, r1, r1, lsl #1
 80002fc:	f013 4f00 	tst.w	r3, #2147483648	; 0x80000000
 8000300:	ea4f 3303 	mov.w	r3, r3, lsl #12
 8000304:	ea4c 3313 	orr.w	r3, ip, r3, lsr #12
 8000308:	d002      	beq.n	8000310 <__adddf3+0x84>
 800030a:	4252      	negs	r2, r2
 800030c:	eb63 0343 	sbc.w	r3, r3, r3, lsl #1
 8000310:	ea94 0f05 	teq	r4, r5
 8000314:	f000 80a7 	beq.w	8000466 <__adddf3+0x1da>
 8000318:	f1a4 0401 	sub.w	r4, r4, #1
 800031c:	f1d5 0e20 	rsbs	lr, r5, #32
 8000320:	db0d      	blt.n	800033e <__adddf3+0xb2>
 8000322:	fa02 fc0e 	lsl.w	ip, r2, lr
 8000326:	fa22 f205 	lsr.w	r2, r2, r5
 800032a:	1880      	adds	r0, r0, r2
 800032c:	f141 0100 	adc.w	r1, r1, #0
 8000330:	fa03 f20e 	lsl.w	r2, r3, lr
 8000334:	1880      	adds	r0, r0, r2
 8000336:	fa43 f305 	asr.w	r3, r3, r5
 800033a:	4159      	adcs	r1, r3
 800033c:	e00e      	b.n	800035c <__adddf3+0xd0>
 800033e:	f1a5 0520 	sub.w	r5, r5, #32
 8000342:	f10e 0e20 	add.w	lr, lr, #32
 8000346:	2a01      	cmp	r2, #1
 8000348:	fa03 fc0e 	lsl.w	ip, r3, lr
 800034c:	bf28      	it	cs
 800034e:	f04c 0c02 	orrcs.w	ip, ip, #2
 8000352:	fa43 f305 	asr.w	r3, r3, r5
 8000356:	18c0      	adds	r0, r0, r3
 8000358:	eb51 71e3 	adcs.w	r1, r1, r3, asr #31
 800035c:	f001 4500 	and.w	r5, r1, #2147483648	; 0x80000000
 8000360:	d507      	bpl.n	8000372 <__adddf3+0xe6>
 8000362:	f04f 0e00 	mov.w	lr, #0
 8000366:	f1dc 0c00 	rsbs	ip, ip, #0
 800036a:	eb7e 0000 	sbcs.w	r0, lr, r0
 800036e:	eb6e 0101 	sbc.w	r1, lr, r1
 8000372:	f5b1 1f80 	cmp.w	r1, #1048576	; 0x100000
 8000376:	d31b      	bcc.n	80003b0 <__adddf3+0x124>
 8000378:	f5b1 1f00 	cmp.w	r1, #2097152	; 0x200000
 800037c:	d30c      	bcc.n	8000398 <__adddf3+0x10c>
 800037e:	0849      	lsrs	r1, r1, #1
 8000380:	ea5f 0030 	movs.w	r0, r0, rrx
 8000384:	ea4f 0c3c 	mov.w	ip, ip, rrx
 8000388:	f104 0401 	add.w	r4, r4, #1
 800038c:	ea4f 5244 	mov.w	r2, r4, lsl #21
 8000390:	f512 0f80 	cmn.w	r2, #4194304	; 0x400000
 8000394:	f080 809a 	bcs.w	80004cc <__adddf3+0x240>
 8000398:	f1bc 4f00 	cmp.w	ip, #2147483648	; 0x80000000
 800039c:	bf08      	it	eq
 800039e:	ea5f 0c50 	movseq.w	ip, r0, lsr #1
 80003a2:	f150 0000 	adcs.w	r0, r0, #0
 80003a6:	eb41 5104 	adc.w	r1, r1, r4, lsl #20
 80003aa:	ea41 0105 	orr.w	r1, r1, r5
 80003ae:	bd30      	pop	{r4, r5, pc}
 80003b0:	ea5f 0c4c 	movs.w	ip, ip, lsl #1
 80003b4:	4140      	adcs	r0, r0
 80003b6:	eb41 0101 	adc.w	r1, r1, r1
 80003ba:	f411 1f80 	tst.w	r1, #1048576	; 0x100000
 80003be:	f1a4 0401 	sub.w	r4, r4, #1
 80003c2:	d1e9      	bne.n	8000398 <__adddf3+0x10c>
 80003c4:	f091 0f00 	teq	r1, #0
 80003c8:	bf04      	itt	eq
 80003ca:	4601      	moveq	r1, r0
 80003cc:	2000      	moveq	r0, #0
 80003ce:	fab1 f381 	clz	r3, r1
 80003d2:	bf08      	it	eq
 80003d4:	3320      	addeq	r3, #32
 80003d6:	f1a3 030b 	sub.w	r3, r3, #11
 80003da:	f1b3 0220 	subs.w	r2, r3, #32
 80003de:	da0c      	bge.n	80003fa <__adddf3+0x16e>
 80003e0:	320c      	adds	r2, #12
 80003e2:	dd08      	ble.n	80003f6 <__adddf3+0x16a>
 80003e4:	f102 0c14 	add.w	ip, r2, #20
 80003e8:	f1c2 020c 	rsb	r2, r2, #12
 80003ec:	fa01 f00c 	lsl.w	r0, r1, ip
 80003f0:	fa21 f102 	lsr.w	r1, r1, r2
 80003f4:	e00c      	b.n	8000410 <__adddf3+0x184>
 80003f6:	f102 0214 	add.w	r2, r2, #20
 80003fa:	bfd8      	it	le
 80003fc:	f1c2 0c20 	rsble	ip, r2, #32
 8000400:	fa01 f102 	lsl.w	r1, r1, r2
 8000404:	fa20 fc0c 	lsr.w	ip, r0, ip
 8000408:	bfdc      	itt	le
 800040a:	ea41 010c 	orrle.w	r1, r1, ip
 800040e:	4090      	lslle	r0, r2
 8000410:	1ae4      	subs	r4, r4, r3
 8000412:	bfa2      	ittt	ge
 8000414:	eb01 5104 	addge.w	r1, r1, r4, lsl #20
 8000418:	4329      	orrge	r1, r5
 800041a:	bd30      	popge	{r4, r5, pc}
 800041c:	ea6f 0404 	mvn.w	r4, r4
 8000420:	3c1f      	subs	r4, #31
 8000422:	da1c      	bge.n	800045e <__adddf3+0x1d2>
 8000424:	340c      	adds	r4, #12
 8000426:	dc0e      	bgt.n	8000446 <__adddf3+0x1ba>
 8000428:	f104 0414 	add.w	r4, r4, #20
 800042c:	f1c4 0220 	rsb	r2, r4, #32
 8000430:	fa20 f004 	lsr.w	r0, r0, r4
 8000434:	fa01 f302 	lsl.w	r3, r1, r2
 8000438:	ea40 0003 	orr.w	r0, r0, r3
 800043c:	fa21 f304 	lsr.w	r3, r1, r4
 8000440:	ea45 0103 	orr.w	r1, r5, r3
 8000444:	bd30      	pop	{r4, r5, pc}
 8000446:	f1c4 040c 	rsb	r4, r4, #12
 800044a:	f1c4 0220 	rsb	r2, r4, #32
 800044e:	fa20 f002 	lsr.w	r0, r0, r2
 8000452:	fa01 f304 	lsl.w	r3, r1, r4
 8000456:	ea40 0003 	orr.w	r0, r0, r3
 800045a:	4629      	mov	r1, r5
 800045c:	bd30      	pop	{r4, r5, pc}
 800045e:	fa21 f004 	lsr.w	r0, r1, r4
 8000462:	4629      	mov	r1, r5
 8000464:	bd30      	pop	{r4, r5, pc}
 8000466:	f094 0f00 	teq	r4, #0
 800046a:	f483 1380 	eor.w	r3, r3, #1048576	; 0x100000
 800046e:	bf06      	itte	eq
 8000470:	f481 1180 	eoreq.w	r1, r1, #1048576	; 0x100000
 8000474:	3401      	addeq	r4, #1
 8000476:	3d01      	subne	r5, #1
 8000478:	e74e      	b.n	8000318 <__adddf3+0x8c>
 800047a:	ea7f 5c64 	mvns.w	ip, r4, asr #21
 800047e:	bf18      	it	ne
 8000480:	ea7f 5c65 	mvnsne.w	ip, r5, asr #21
 8000484:	d029      	beq.n	80004da <__adddf3+0x24e>
 8000486:	ea94 0f05 	teq	r4, r5
 800048a:	bf08      	it	eq
 800048c:	ea90 0f02 	teqeq	r0, r2
 8000490:	d005      	beq.n	800049e <__adddf3+0x212>
 8000492:	ea54 0c00 	orrs.w	ip, r4, r0
 8000496:	bf04      	itt	eq
 8000498:	4619      	moveq	r1, r3
 800049a:	4610      	moveq	r0, r2
 800049c:	bd30      	pop	{r4, r5, pc}
 800049e:	ea91 0f03 	teq	r1, r3
 80004a2:	bf1e      	ittt	ne
 80004a4:	2100      	movne	r1, #0
 80004a6:	2000      	movne	r0, #0
 80004a8:	bd30      	popne	{r4, r5, pc}
 80004aa:	ea5f 5c54 	movs.w	ip, r4, lsr #21
 80004ae:	d105      	bne.n	80004bc <__adddf3+0x230>
 80004b0:	0040      	lsls	r0, r0, #1
 80004b2:	4149      	adcs	r1, r1
 80004b4:	bf28      	it	cs
 80004b6:	f041 4100 	orrcs.w	r1, r1, #2147483648	; 0x80000000
 80004ba:	bd30      	pop	{r4, r5, pc}
 80004bc:	f514 0480 	adds.w	r4, r4, #4194304	; 0x400000
 80004c0:	bf3c      	itt	cc
 80004c2:	f501 1180 	addcc.w	r1, r1, #1048576	; 0x100000
 80004c6:	bd30      	popcc	{r4, r5, pc}
 80004c8:	f001 4500 	and.w	r5, r1, #2147483648	; 0x80000000
 80004cc:	f045 41fe 	orr.w	r1, r5, #2130706432	; 0x7f000000
 80004d0:	f441 0170 	orr.w	r1, r1, #15728640	; 0xf00000
 80004d4:	f04f 0000 	mov.w	r0, #0
 80004d8:	bd30      	pop	{r4, r5, pc}
 80004da:	ea7f 5c64 	mvns.w	ip, r4, asr #21
 80004de:	bf1a      	itte	ne
 80004e0:	4619      	movne	r1, r3
 80004e2:	4610      	movne	r0, r2
 80004e4:	ea7f 5c65 	mvnseq.w	ip, r5, asr #21
 80004e8:	bf1c      	itt	ne
 80004ea:	460b      	movne	r3, r1
 80004ec:	4602      	movne	r2, r0
 80004ee:	ea50 3401 	orrs.w	r4, r0, r1, lsl #12
 80004f2:	bf06      	itte	eq
 80004f4:	ea52 3503 	orrseq.w	r5, r2, r3, lsl #12
 80004f8:	ea91 0f03 	teqeq	r1, r3
 80004fc:	f441 2100 	orrne.w	r1, r1, #524288	; 0x80000
 8000500:	bd30      	pop	{r4, r5, pc}
 8000502:	bf00      	nop

08000504 <__aeabi_ui2d>:
 8000504:	f090 0f00 	teq	r0, #0
 8000508:	bf04      	itt	eq
 800050a:	2100      	moveq	r1, #0
 800050c:	4770      	bxeq	lr
 800050e:	b530      	push	{r4, r5, lr}
 8000510:	f44f 6480 	mov.w	r4, #1024	; 0x400
 8000514:	f104 0432 	add.w	r4, r4, #50	; 0x32
 8000518:	f04f 0500 	mov.w	r5, #0
 800051c:	f04f 0100 	mov.w	r1, #0
 8000520:	e750      	b.n	80003c4 <__adddf3+0x138>
 8000522:	bf00      	nop

08000524 <__aeabi_i2d>:
 8000524:	f090 0f00 	teq	r0, #0
 8000528:	bf04      	itt	eq
 800052a:	2100      	moveq	r1, #0
 800052c:	4770      	bxeq	lr
 800052e:	b530      	push	{r4, r5, lr}
 8000530:	f44f 6480 	mov.w	r4, #1024	; 0x400
 8000534:	f104 0432 	add.w	r4, r4, #50	; 0x32
 8000538:	f010 4500 	ands.w	r5, r0, #2147483648	; 0x80000000
 800053c:	bf48      	it	mi
 800053e:	4240      	negmi	r0, r0
 8000540:	f04f 0100 	mov.w	r1, #0
 8000544:	e73e      	b.n	80003c4 <__adddf3+0x138>
 8000546:	bf00      	nop

08000548 <__aeabi_f2d>:
 8000548:	0042      	lsls	r2, r0, #1
 800054a:	ea4f 01e2 	mov.w	r1, r2, asr #3
 800054e:	ea4f 0131 	mov.w	r1, r1, rrx
 8000552:	ea4f 7002 	mov.w	r0, r2, lsl #28
 8000556:	bf1f      	itttt	ne
 8000558:	f012 437f 	andsne.w	r3, r2, #4278190080	; 0xff000000
 800055c:	f093 4f7f 	teqne	r3, #4278190080	; 0xff000000
 8000560:	f081 5160 	eorne.w	r1, r1, #939524096	; 0x38000000
 8000564:	4770      	bxne	lr
 8000566:	f032 427f 	bics.w	r2, r2, #4278190080	; 0xff000000
 800056a:	bf08      	it	eq
 800056c:	4770      	bxeq	lr
 800056e:	f093 4f7f 	teq	r3, #4278190080	; 0xff000000
 8000572:	bf04      	itt	eq
 8000574:	f441 2100 	orreq.w	r1, r1, #524288	; 0x80000
 8000578:	4770      	bxeq	lr
 800057a:	b530      	push	{r4, r5, lr}
 800057c:	f44f 7460 	mov.w	r4, #896	; 0x380
 8000580:	f001 4500 	and.w	r5, r1, #2147483648	; 0x80000000
 8000584:	f021 4100 	bic.w	r1, r1, #2147483648	; 0x80000000
 8000588:	e71c      	b.n	80003c4 <__adddf3+0x138>
 800058a:	bf00      	nop

0800058c <__aeabi_ul2d>:
 800058c:	ea50 0201 	orrs.w	r2, r0, r1
 8000590:	bf08      	it	eq
 8000592:	4770      	bxeq	lr
 8000594:	b530      	push	{r4, r5, lr}
 8000596:	f04f 0500 	mov.w	r5, #0
 800059a:	e00a      	b.n	80005b2 <__aeabi_l2d+0x16>

0800059c <__aeabi_l2d>:
 800059c:	ea50 0201 	orrs.w	r2, r0, r1
 80005a0:	bf08      	it	eq
 80005a2:	4770      	bxeq	lr
 80005a4:	b530      	push	{r4, r5, lr}
 80005a6:	f011 4500 	ands.w	r5, r1, #2147483648	; 0x80000000
 80005aa:	d502      	bpl.n	80005b2 <__aeabi_l2d+0x16>
 80005ac:	4240      	negs	r0, r0
 80005ae:	eb61 0141 	sbc.w	r1, r1, r1, lsl #1
 80005b2:	f44f 6480 	mov.w	r4, #1024	; 0x400
 80005b6:	f104 0432 	add.w	r4, r4, #50	; 0x32
 80005ba:	ea5f 5c91 	movs.w	ip, r1, lsr #22
 80005be:	f43f aed8 	beq.w	8000372 <__adddf3+0xe6>
 80005c2:	f04f 0203 	mov.w	r2, #3
 80005c6:	ea5f 0cdc 	movs.w	ip, ip, lsr #3
 80005ca:	bf18      	it	ne
 80005cc:	3203      	addne	r2, #3
 80005ce:	ea5f 0cdc 	movs.w	ip, ip, lsr #3
 80005d2:	bf18      	it	ne
 80005d4:	3203      	addne	r2, #3
 80005d6:	eb02 02dc 	add.w	r2, r2, ip, lsr #3
 80005da:	f1c2 0320 	rsb	r3, r2, #32
 80005de:	fa00 fc03 	lsl.w	ip, r0, r3
 80005e2:	fa20 f002 	lsr.w	r0, r0, r2
 80005e6:	fa01 fe03 	lsl.w	lr, r1, r3
 80005ea:	ea40 000e 	orr.w	r0, r0, lr
 80005ee:	fa21 f102 	lsr.w	r1, r1, r2
 80005f2:	4414      	add	r4, r2
 80005f4:	e6bd      	b.n	8000372 <__adddf3+0xe6>
 80005f6:	bf00      	nop

080005f8 <__aeabi_dmul>:
 80005f8:	b570      	push	{r4, r5, r6, lr}
 80005fa:	f04f 0cff 	mov.w	ip, #255	; 0xff
 80005fe:	f44c 6ce0 	orr.w	ip, ip, #1792	; 0x700
 8000602:	ea1c 5411 	ands.w	r4, ip, r1, lsr #20
 8000606:	bf1d      	ittte	ne
 8000608:	ea1c 5513 	andsne.w	r5, ip, r3, lsr #20
 800060c:	ea94 0f0c 	teqne	r4, ip
 8000610:	ea95 0f0c 	teqne	r5, ip
 8000614:	f000 f8de 	bleq	80007d4 <__aeabi_dmul+0x1dc>
 8000618:	442c      	add	r4, r5
 800061a:	ea81 0603 	eor.w	r6, r1, r3
 800061e:	ea21 514c 	bic.w	r1, r1, ip, lsl #21
 8000622:	ea23 534c 	bic.w	r3, r3, ip, lsl #21
 8000626:	ea50 3501 	orrs.w	r5, r0, r1, lsl #12
 800062a:	bf18      	it	ne
 800062c:	ea52 3503 	orrsne.w	r5, r2, r3, lsl #12
 8000630:	f441 1180 	orr.w	r1, r1, #1048576	; 0x100000
 8000634:	f443 1380 	orr.w	r3, r3, #1048576	; 0x100000
 8000638:	d038      	beq.n	80006ac <__aeabi_dmul+0xb4>
 800063a:	fba0 ce02 	umull	ip, lr, r0, r2
 800063e:	f04f 0500 	mov.w	r5, #0
 8000642:	fbe1 e502 	umlal	lr, r5, r1, r2
 8000646:	f006 4200 	and.w	r2, r6, #2147483648	; 0x80000000
 800064a:	fbe0 e503 	umlal	lr, r5, r0, r3
 800064e:	f04f 0600 	mov.w	r6, #0
 8000652:	fbe1 5603 	umlal	r5, r6, r1, r3
 8000656:	f09c 0f00 	teq	ip, #0
 800065a:	bf18      	it	ne
 800065c:	f04e 0e01 	orrne.w	lr, lr, #1
 8000660:	f1a4 04ff 	sub.w	r4, r4, #255	; 0xff
 8000664:	f5b6 7f00 	cmp.w	r6, #512	; 0x200
 8000668:	f564 7440 	sbc.w	r4, r4, #768	; 0x300
 800066c:	d204      	bcs.n	8000678 <__aeabi_dmul+0x80>
 800066e:	ea5f 0e4e 	movs.w	lr, lr, lsl #1
 8000672:	416d      	adcs	r5, r5
 8000674:	eb46 0606 	adc.w	r6, r6, r6
 8000678:	ea42 21c6 	orr.w	r1, r2, r6, lsl #11
 800067c:	ea41 5155 	orr.w	r1, r1, r5, lsr #21
 8000680:	ea4f 20c5 	mov.w	r0, r5, lsl #11
 8000684:	ea40 505e 	orr.w	r0, r0, lr, lsr #21
 8000688:	ea4f 2ece 	mov.w	lr, lr, lsl #11
 800068c:	f1b4 0cfd 	subs.w	ip, r4, #253	; 0xfd
 8000690:	bf88      	it	hi
 8000692:	f5bc 6fe0 	cmphi.w	ip, #1792	; 0x700
 8000696:	d81e      	bhi.n	80006d6 <__aeabi_dmul+0xde>
 8000698:	f1be 4f00 	cmp.w	lr, #2147483648	; 0x80000000
 800069c:	bf08      	it	eq
 800069e:	ea5f 0e50 	movseq.w	lr, r0, lsr #1
 80006a2:	f150 0000 	adcs.w	r0, r0, #0
 80006a6:	eb41 5104 	adc.w	r1, r1, r4, lsl #20
 80006aa:	bd70      	pop	{r4, r5, r6, pc}
 80006ac:	f006 4600 	and.w	r6, r6, #2147483648	; 0x80000000
 80006b0:	ea46 0101 	orr.w	r1, r6, r1
 80006b4:	ea40 0002 	orr.w	r0, r0, r2
 80006b8:	ea81 0103 	eor.w	r1, r1, r3
 80006bc:	ebb4 045c 	subs.w	r4, r4, ip, lsr #1
 80006c0:	bfc2      	ittt	gt
 80006c2:	ebd4 050c 	rsbsgt	r5, r4, ip
 80006c6:	ea41 5104 	orrgt.w	r1, r1, r4, lsl #20
 80006ca:	bd70      	popgt	{r4, r5, r6, pc}
 80006cc:	f441 1180 	orr.w	r1, r1, #1048576	; 0x100000
 80006d0:	f04f 0e00 	mov.w	lr, #0
 80006d4:	3c01      	subs	r4, #1
 80006d6:	f300 80ab 	bgt.w	8000830 <__aeabi_dmul+0x238>
 80006da:	f114 0f36 	cmn.w	r4, #54	; 0x36
 80006de:	bfde      	ittt	le
 80006e0:	2000      	movle	r0, #0
 80006e2:	f001 4100 	andle.w	r1, r1, #2147483648	; 0x80000000
 80006e6:	bd70      	pople	{r4, r5, r6, pc}
 80006e8:	f1c4 0400 	rsb	r4, r4, #0
 80006ec:	3c20      	subs	r4, #32
 80006ee:	da35      	bge.n	800075c <__aeabi_dmul+0x164>
 80006f0:	340c      	adds	r4, #12
 80006f2:	dc1b      	bgt.n	800072c <__aeabi_dmul+0x134>
 80006f4:	f104 0414 	add.w	r4, r4, #20
 80006f8:	f1c4 0520 	rsb	r5, r4, #32
 80006fc:	fa00 f305 	lsl.w	r3, r0, r5
 8000700:	fa20 f004 	lsr.w	r0, r0, r4
 8000704:	fa01 f205 	lsl.w	r2, r1, r5
 8000708:	ea40 0002 	orr.w	r0, r0, r2
 800070c:	f001 4200 	and.w	r2, r1, #2147483648	; 0x80000000
 8000710:	f021 4100 	bic.w	r1, r1, #2147483648	; 0x80000000
 8000714:	eb10 70d3 	adds.w	r0, r0, r3, lsr #31
 8000718:	fa21 f604 	lsr.w	r6, r1, r4
 800071c:	eb42 0106 	adc.w	r1, r2, r6
 8000720:	ea5e 0e43 	orrs.w	lr, lr, r3, lsl #1
 8000724:	bf08      	it	eq
 8000726:	ea20 70d3 	biceq.w	r0, r0, r3, lsr #31
 800072a:	bd70      	pop	{r4, r5, r6, pc}
 800072c:	f1c4 040c 	rsb	r4, r4, #12
 8000730:	f1c4 0520 	rsb	r5, r4, #32
 8000734:	fa00 f304 	lsl.w	r3, r0, r4
 8000738:	fa20 f005 	lsr.w	r0, r0, r5
 800073c:	fa01 f204 	lsl.w	r2, r1, r4
 8000740:	ea40 0002 	orr.w	r0, r0, r2
 8000744:	f001 4100 	and.w	r1, r1, #2147483648	; 0x80000000
 8000748:	eb10 70d3 	adds.w	r0, r0, r3, lsr #31
 800074c:	f141 0100 	adc.w	r1, r1, #0
 8000750:	ea5e 0e43 	orrs.w	lr, lr, r3, lsl #1
 8000754:	bf08      	it	eq
 8000756:	ea20 70d3 	biceq.w	r0, r0, r3, lsr #31
 800075a:	bd70      	pop	{r4, r5, r6, pc}
 800075c:	f1c4 0520 	rsb	r5, r4, #32
 8000760:	fa00 f205 	lsl.w	r2, r0, r5
 8000764:	ea4e 0e02 	orr.w	lr, lr, r2
 8000768:	fa20 f304 	lsr.w	r3, r0, r4
 800076c:	fa01 f205 	lsl.w	r2, r1, r5
 8000770:	ea43 0302 	orr.w	r3, r3, r2
 8000774:	fa21 f004 	lsr.w	r0, r1, r4
 8000778:	f001 4100 	and.w	r1, r1, #2147483648	; 0x80000000
 800077c:	fa21 f204 	lsr.w	r2, r1, r4
 8000780:	ea20 0002 	bic.w	r0, r0, r2
 8000784:	eb00 70d3 	add.w	r0, r0, r3, lsr #31
 8000788:	ea5e 0e43 	orrs.w	lr, lr, r3, lsl #1
 800078c:	bf08      	it	eq
 800078e:	ea20 70d3 	biceq.w	r0, r0, r3, lsr #31
 8000792:	bd70      	pop	{r4, r5, r6, pc}
 8000794:	f094 0f00 	teq	r4, #0
 8000798:	d10f      	bne.n	80007ba <__aeabi_dmul+0x1c2>
 800079a:	f001 4600 	and.w	r6, r1, #2147483648	; 0x80000000
 800079e:	0040      	lsls	r0, r0, #1
 80007a0:	eb41 0101 	adc.w	r1, r1, r1
 80007a4:	f411 1f80 	tst.w	r1, #1048576	; 0x100000
 80007a8:	bf08      	it	eq
 80007aa:	3c01      	subeq	r4, #1
 80007ac:	d0f7      	beq.n	800079e <__aeabi_dmul+0x1a6>
 80007ae:	ea41 0106 	orr.w	r1, r1, r6
 80007b2:	f095 0f00 	teq	r5, #0
 80007b6:	bf18      	it	ne
 80007b8:	4770      	bxne	lr
 80007ba:	f003 4600 	and.w	r6, r3, #2147483648	; 0x80000000
 80007be:	0052      	lsls	r2, r2, #1
 80007c0:	eb43 0303 	adc.w	r3, r3, r3
 80007c4:	f413 1f80 	tst.w	r3, #1048576	; 0x100000
 80007c8:	bf08      	it	eq
 80007ca:	3d01      	subeq	r5, #1
 80007cc:	d0f7      	beq.n	80007be <__aeabi_dmul+0x1c6>
 80007ce:	ea43 0306 	orr.w	r3, r3, r6
 80007d2:	4770      	bx	lr
 80007d4:	ea94 0f0c 	teq	r4, ip
 80007d8:	ea0c 5513 	and.w	r5, ip, r3, lsr #20
 80007dc:	bf18      	it	ne
 80007de:	ea95 0f0c 	teqne	r5, ip
 80007e2:	d00c      	beq.n	80007fe <__aeabi_dmul+0x206>
 80007e4:	ea50 0641 	orrs.w	r6, r0, r1, lsl #1
 80007e8:	bf18      	it	ne
 80007ea:	ea52 0643 	orrsne.w	r6, r2, r3, lsl #1
 80007ee:	d1d1      	bne.n	8000794 <__aeabi_dmul+0x19c>
 80007f0:	ea81 0103 	eor.w	r1, r1, r3
 80007f4:	f001 4100 	and.w	r1, r1, #2147483648	; 0x80000000
 80007f8:	f04f 0000 	mov.w	r0, #0
 80007fc:	bd70      	pop	{r4, r5, r6, pc}
 80007fe:	ea50 0641 	orrs.w	r6, r0, r1, lsl #1
 8000802:	bf06      	itte	eq
 8000804:	4610      	moveq	r0, r2
 8000806:	4619      	moveq	r1, r3
 8000808:	ea52 0643 	orrsne.w	r6, r2, r3, lsl #1
 800080c:	d019      	beq.n	8000842 <__aeabi_dmul+0x24a>
 800080e:	ea94 0f0c 	teq	r4, ip
 8000812:	d102      	bne.n	800081a <__aeabi_dmul+0x222>
 8000814:	ea50 3601 	orrs.w	r6, r0, r1, lsl #12
 8000818:	d113      	bne.n	8000842 <__aeabi_dmul+0x24a>
 800081a:	ea95 0f0c 	teq	r5, ip
 800081e:	d105      	bne.n	800082c <__aeabi_dmul+0x234>
 8000820:	ea52 3603 	orrs.w	r6, r2, r3, lsl #12
 8000824:	bf1c      	itt	ne
 8000826:	4610      	movne	r0, r2
 8000828:	4619      	movne	r1, r3
 800082a:	d10a      	bne.n	8000842 <__aeabi_dmul+0x24a>
 800082c:	ea81 0103 	eor.w	r1, r1, r3
 8000830:	f001 4100 	and.w	r1, r1, #2147483648	; 0x80000000
 8000834:	f041 41fe 	orr.w	r1, r1, #2130706432	; 0x7f000000
 8000838:	f441 0170 	orr.w	r1, r1, #15728640	; 0xf00000
 800083c:	f04f 0000 	mov.w	r0, #0
 8000840:	bd70      	pop	{r4, r5, r6, pc}
 8000842:	f041 41fe 	orr.w	r1, r1, #2130706432	; 0x7f000000
 8000846:	f441 0178 	orr.w	r1, r1, #16252928	; 0xf80000
 800084a:	bd70      	pop	{r4, r5, r6, pc}

0800084c <__aeabi_ddiv>:
 800084c:	b570      	push	{r4, r5, r6, lr}
 800084e:	f04f 0cff 	mov.w	ip, #255	; 0xff
 8000852:	f44c 6ce0 	orr.w	ip, ip, #1792	; 0x700
 8000856:	ea1c 5411 	ands.w	r4, ip, r1, lsr #20
 800085a:	bf1d      	ittte	ne
 800085c:	ea1c 5513 	andsne.w	r5, ip, r3, lsr #20
 8000860:	ea94 0f0c 	teqne	r4, ip
 8000864:	ea95 0f0c 	teqne	r5, ip
 8000868:	f000 f8a7 	bleq	80009ba <__aeabi_ddiv+0x16e>
 800086c:	eba4 0405 	sub.w	r4, r4, r5
 8000870:	ea81 0e03 	eor.w	lr, r1, r3
 8000874:	ea52 3503 	orrs.w	r5, r2, r3, lsl #12
 8000878:	ea4f 3101 	mov.w	r1, r1, lsl #12
 800087c:	f000 8088 	beq.w	8000990 <__aeabi_ddiv+0x144>
 8000880:	ea4f 3303 	mov.w	r3, r3, lsl #12
 8000884:	f04f 5580 	mov.w	r5, #268435456	; 0x10000000
 8000888:	ea45 1313 	orr.w	r3, r5, r3, lsr #4
 800088c:	ea43 6312 	orr.w	r3, r3, r2, lsr #24
 8000890:	ea4f 2202 	mov.w	r2, r2, lsl #8
 8000894:	ea45 1511 	orr.w	r5, r5, r1, lsr #4
 8000898:	ea45 6510 	orr.w	r5, r5, r0, lsr #24
 800089c:	ea4f 2600 	mov.w	r6, r0, lsl #8
 80008a0:	f00e 4100 	and.w	r1, lr, #2147483648	; 0x80000000
 80008a4:	429d      	cmp	r5, r3
 80008a6:	bf08      	it	eq
 80008a8:	4296      	cmpeq	r6, r2
 80008aa:	f144 04fd 	adc.w	r4, r4, #253	; 0xfd
 80008ae:	f504 7440 	add.w	r4, r4, #768	; 0x300
 80008b2:	d202      	bcs.n	80008ba <__aeabi_ddiv+0x6e>
 80008b4:	085b      	lsrs	r3, r3, #1
 80008b6:	ea4f 0232 	mov.w	r2, r2, rrx
 80008ba:	1ab6      	subs	r6, r6, r2
 80008bc:	eb65 0503 	sbc.w	r5, r5, r3
 80008c0:	085b      	lsrs	r3, r3, #1
 80008c2:	ea4f 0232 	mov.w	r2, r2, rrx
 80008c6:	f44f 1080 	mov.w	r0, #1048576	; 0x100000
 80008ca:	f44f 2c00 	mov.w	ip, #524288	; 0x80000
 80008ce:	ebb6 0e02 	subs.w	lr, r6, r2
 80008d2:	eb75 0e03 	sbcs.w	lr, r5, r3
 80008d6:	bf22      	ittt	cs
 80008d8:	1ab6      	subcs	r6, r6, r2
 80008da:	4675      	movcs	r5, lr
 80008dc:	ea40 000c 	orrcs.w	r0, r0, ip
 80008e0:	085b      	lsrs	r3, r3, #1
 80008e2:	ea4f 0232 	mov.w	r2, r2, rrx
 80008e6:	ebb6 0e02 	subs.w	lr, r6, r2
 80008ea:	eb75 0e03 	sbcs.w	lr, r5, r3
 80008ee:	bf22      	ittt	cs
 80008f0:	1ab6      	subcs	r6, r6, r2
 80008f2:	4675      	movcs	r5, lr
 80008f4:	ea40 005c 	orrcs.w	r0, r0, ip, lsr #1
 80008f8:	085b      	lsrs	r3, r3, #1
 80008fa:	ea4f 0232 	mov.w	r2, r2, rrx
 80008fe:	ebb6 0e02 	subs.w	lr, r6, r2
 8000902:	eb75 0e03 	sbcs.w	lr, r5, r3
 8000906:	bf22      	ittt	cs
 8000908:	1ab6      	subcs	r6, r6, r2
 800090a:	4675      	movcs	r5, lr
 800090c:	ea40 009c 	orrcs.w	r0, r0, ip, lsr #2
 8000910:	085b      	lsrs	r3, r3, #1
 8000912:	ea4f 0232 	mov.w	r2, r2, rrx
 8000916:	ebb6 0e02 	subs.w	lr, r6, r2
 800091a:	eb75 0e03 	sbcs.w	lr, r5, r3
 800091e:	bf22      	ittt	cs
 8000920:	1ab6      	subcs	r6, r6, r2
 8000922:	4675      	movcs	r5, lr
 8000924:	ea40 00dc 	orrcs.w	r0, r0, ip, lsr #3
 8000928:	ea55 0e06 	orrs.w	lr, r5, r6
 800092c:	d018      	beq.n	8000960 <__aeabi_ddiv+0x114>
 800092e:	ea4f 1505 	mov.w	r5, r5, lsl #4
 8000932:	ea45 7516 	orr.w	r5, r5, r6, lsr #28
 8000936:	ea4f 1606 	mov.w	r6, r6, lsl #4
 800093a:	ea4f 03c3 	mov.w	r3, r3, lsl #3
 800093e:	ea43 7352 	orr.w	r3, r3, r2, lsr #29
 8000942:	ea4f 02c2 	mov.w	r2, r2, lsl #3
 8000946:	ea5f 1c1c 	movs.w	ip, ip, lsr #4
 800094a:	d1c0      	bne.n	80008ce <__aeabi_ddiv+0x82>
 800094c:	f411 1f80 	tst.w	r1, #1048576	; 0x100000
 8000950:	d10b      	bne.n	800096a <__aeabi_ddiv+0x11e>
 8000952:	ea41 0100 	orr.w	r1, r1, r0
 8000956:	f04f 0000 	mov.w	r0, #0
 800095a:	f04f 4c00 	mov.w	ip, #2147483648	; 0x80000000
 800095e:	e7b6      	b.n	80008ce <__aeabi_ddiv+0x82>
 8000960:	f411 1f80 	tst.w	r1, #1048576	; 0x100000
 8000964:	bf04      	itt	eq
 8000966:	4301      	orreq	r1, r0
 8000968:	2000      	moveq	r0, #0
 800096a:	f1b4 0cfd 	subs.w	ip, r4, #253	; 0xfd
 800096e:	bf88      	it	hi
 8000970:	f5bc 6fe0 	cmphi.w	ip, #1792	; 0x700
 8000974:	f63f aeaf 	bhi.w	80006d6 <__aeabi_dmul+0xde>
 8000978:	ebb5 0c03 	subs.w	ip, r5, r3
 800097c:	bf04      	itt	eq
 800097e:	ebb6 0c02 	subseq.w	ip, r6, r2
 8000982:	ea5f 0c50 	movseq.w	ip, r0, lsr #1
 8000986:	f150 0000 	adcs.w	r0, r0, #0
 800098a:	eb41 5104 	adc.w	r1, r1, r4, lsl #20
 800098e:	bd70      	pop	{r4, r5, r6, pc}
 8000990:	f00e 4e00 	and.w	lr, lr, #2147483648	; 0x80000000
 8000994:	ea4e 3111 	orr.w	r1, lr, r1, lsr #12
 8000998:	eb14 045c 	adds.w	r4, r4, ip, lsr #1
 800099c:	bfc2      	ittt	gt
 800099e:	ebd4 050c 	rsbsgt	r5, r4, ip
 80009a2:	ea41 5104 	orrgt.w	r1, r1, r4, lsl #20
 80009a6:	bd70      	popgt	{r4, r5, r6, pc}
 80009a8:	f441 1180 	orr.w	r1, r1, #1048576	; 0x100000
 80009ac:	f04f 0e00 	mov.w	lr, #0
 80009b0:	3c01      	subs	r4, #1
 80009b2:	e690      	b.n	80006d6 <__aeabi_dmul+0xde>
 80009b4:	ea45 0e06 	orr.w	lr, r5, r6
 80009b8:	e68d      	b.n	80006d6 <__aeabi_dmul+0xde>
 80009ba:	ea0c 5513 	and.w	r5, ip, r3, lsr #20
 80009be:	ea94 0f0c 	teq	r4, ip
 80009c2:	bf08      	it	eq
 80009c4:	ea95 0f0c 	teqeq	r5, ip
 80009c8:	f43f af3b 	beq.w	8000842 <__aeabi_dmul+0x24a>
 80009cc:	ea94 0f0c 	teq	r4, ip
 80009d0:	d10a      	bne.n	80009e8 <__aeabi_ddiv+0x19c>
 80009d2:	ea50 3401 	orrs.w	r4, r0, r1, lsl #12
 80009d6:	f47f af34 	bne.w	8000842 <__aeabi_dmul+0x24a>
 80009da:	ea95 0f0c 	teq	r5, ip
 80009de:	f47f af25 	bne.w	800082c <__aeabi_dmul+0x234>
 80009e2:	4610      	mov	r0, r2
 80009e4:	4619      	mov	r1, r3
 80009e6:	e72c      	b.n	8000842 <__aeabi_dmul+0x24a>
 80009e8:	ea95 0f0c 	teq	r5, ip
 80009ec:	d106      	bne.n	80009fc <__aeabi_ddiv+0x1b0>
 80009ee:	ea52 3503 	orrs.w	r5, r2, r3, lsl #12
 80009f2:	f43f aefd 	beq.w	80007f0 <__aeabi_dmul+0x1f8>
 80009f6:	4610      	mov	r0, r2
 80009f8:	4619      	mov	r1, r3
 80009fa:	e722      	b.n	8000842 <__aeabi_dmul+0x24a>
 80009fc:	ea50 0641 	orrs.w	r6, r0, r1, lsl #1
 8000a00:	bf18      	it	ne
 8000a02:	ea52 0643 	orrsne.w	r6, r2, r3, lsl #1
 8000a06:	f47f aec5 	bne.w	8000794 <__aeabi_dmul+0x19c>
 8000a0a:	ea50 0441 	orrs.w	r4, r0, r1, lsl #1
 8000a0e:	f47f af0d 	bne.w	800082c <__aeabi_dmul+0x234>
 8000a12:	ea52 0543 	orrs.w	r5, r2, r3, lsl #1
 8000a16:	f47f aeeb 	bne.w	80007f0 <__aeabi_dmul+0x1f8>
 8000a1a:	e712      	b.n	8000842 <__aeabi_dmul+0x24a>

08000a1c <__gedf2>:
 8000a1c:	f04f 3cff 	mov.w	ip, #4294967295
 8000a20:	e006      	b.n	8000a30 <__cmpdf2+0x4>
 8000a22:	bf00      	nop

08000a24 <__ledf2>:
 8000a24:	f04f 0c01 	mov.w	ip, #1
 8000a28:	e002      	b.n	8000a30 <__cmpdf2+0x4>
 8000a2a:	bf00      	nop

08000a2c <__cmpdf2>:
 8000a2c:	f04f 0c01 	mov.w	ip, #1
 8000a30:	f84d cd04 	str.w	ip, [sp, #-4]!
 8000a34:	ea4f 0c41 	mov.w	ip, r1, lsl #1
 8000a38:	ea7f 5c6c 	mvns.w	ip, ip, asr #21
 8000a3c:	ea4f 0c43 	mov.w	ip, r3, lsl #1
 8000a40:	bf18      	it	ne
 8000a42:	ea7f 5c6c 	mvnsne.w	ip, ip, asr #21
 8000a46:	d01b      	beq.n	8000a80 <__cmpdf2+0x54>
 8000a48:	b001      	add	sp, #4
 8000a4a:	ea50 0c41 	orrs.w	ip, r0, r1, lsl #1
 8000a4e:	bf0c      	ite	eq
 8000a50:	ea52 0c43 	orrseq.w	ip, r2, r3, lsl #1
 8000a54:	ea91 0f03 	teqne	r1, r3
 8000a58:	bf02      	ittt	eq
 8000a5a:	ea90 0f02 	teqeq	r0, r2
 8000a5e:	2000      	moveq	r0, #0
 8000a60:	4770      	bxeq	lr
 8000a62:	f110 0f00 	cmn.w	r0, #0
 8000a66:	ea91 0f03 	teq	r1, r3
 8000a6a:	bf58      	it	pl
 8000a6c:	4299      	cmppl	r1, r3
 8000a6e:	bf08      	it	eq
 8000a70:	4290      	cmpeq	r0, r2
 8000a72:	bf2c      	ite	cs
 8000a74:	17d8      	asrcs	r0, r3, #31
 8000a76:	ea6f 70e3 	mvncc.w	r0, r3, asr #31
 8000a7a:	f040 0001 	orr.w	r0, r0, #1
 8000a7e:	4770      	bx	lr
 8000a80:	ea4f 0c41 	mov.w	ip, r1, lsl #1
 8000a84:	ea7f 5c6c 	mvns.w	ip, ip, asr #21
 8000a88:	d102      	bne.n	8000a90 <__cmpdf2+0x64>
 8000a8a:	ea50 3c01 	orrs.w	ip, r0, r1, lsl #12
 8000a8e:	d107      	bne.n	8000aa0 <__cmpdf2+0x74>
 8000a90:	ea4f 0c43 	mov.w	ip, r3, lsl #1
 8000a94:	ea7f 5c6c 	mvns.w	ip, ip, asr #21
 8000a98:	d1d6      	bne.n	8000a48 <__cmpdf2+0x1c>
 8000a9a:	ea52 3c03 	orrs.w	ip, r2, r3, lsl #12
 8000a9e:	d0d3      	beq.n	8000a48 <__cmpdf2+0x1c>
 8000aa0:	f85d 0b04 	ldr.w	r0, [sp], #4
 8000aa4:	4770      	bx	lr
 8000aa6:	bf00      	nop

08000aa8 <__aeabi_cdrcmple>:
 8000aa8:	4684      	mov	ip, r0
 8000aaa:	4610      	mov	r0, r2
 8000aac:	4662      	mov	r2, ip
 8000aae:	468c      	mov	ip, r1
 8000ab0:	4619      	mov	r1, r3
 8000ab2:	4663      	mov	r3, ip
 8000ab4:	e000      	b.n	8000ab8 <__aeabi_cdcmpeq>
 8000ab6:	bf00      	nop

08000ab8 <__aeabi_cdcmpeq>:
 8000ab8:	b501      	push	{r0, lr}
 8000aba:	f7ff ffb7 	bl	8000a2c <__cmpdf2>
 8000abe:	2800      	cmp	r0, #0
 8000ac0:	bf48      	it	mi
 8000ac2:	f110 0f00 	cmnmi.w	r0, #0
 8000ac6:	bd01      	pop	{r0, pc}

08000ac8 <__aeabi_dcmpeq>:
 8000ac8:	f84d ed08 	str.w	lr, [sp, #-8]!
 8000acc:	f7ff fff4 	bl	8000ab8 <__aeabi_cdcmpeq>
 8000ad0:	bf0c      	ite	eq
 8000ad2:	2001      	moveq	r0, #1
 8000ad4:	2000      	movne	r0, #0
 8000ad6:	f85d fb08 	ldr.w	pc, [sp], #8
 8000ada:	bf00      	nop

08000adc <__aeabi_dcmplt>:
 8000adc:	f84d ed08 	str.w	lr, [sp, #-8]!
 8000ae0:	f7ff ffea 	bl	8000ab8 <__aeabi_cdcmpeq>
 8000ae4:	bf34      	ite	cc
 8000ae6:	2001      	movcc	r0, #1
 8000ae8:	2000      	movcs	r0, #0
 8000aea:	f85d fb08 	ldr.w	pc, [sp], #8
 8000aee:	bf00      	nop

08000af0 <__aeabi_dcmple>:
 8000af0:	f84d ed08 	str.w	lr, [sp, #-8]!
 8000af4:	f7ff ffe0 	bl	8000ab8 <__aeabi_cdcmpeq>
 8000af8:	bf94      	ite	ls
 8000afa:	2001      	movls	r0, #1
 8000afc:	2000      	movhi	r0, #0
 8000afe:	f85d fb08 	ldr.w	pc, [sp], #8
 8000b02:	bf00      	nop

08000b04 <__aeabi_dcmpge>:
 8000b04:	f84d ed08 	str.w	lr, [sp, #-8]!
 8000b08:	f7ff ffce 	bl	8000aa8 <__aeabi_cdrcmple>
 8000b0c:	bf94      	ite	ls
 8000b0e:	2001      	movls	r0, #1
 8000b10:	2000      	movhi	r0, #0
 8000b12:	f85d fb08 	ldr.w	pc, [sp], #8
 8000b16:	bf00      	nop

08000b18 <__aeabi_dcmpgt>:
 8000b18:	f84d ed08 	str.w	lr, [sp, #-8]!
 8000b1c:	f7ff ffc4 	bl	8000aa8 <__aeabi_cdrcmple>
 8000b20:	bf34      	ite	cc
 8000b22:	2001      	movcc	r0, #1
 8000b24:	2000      	movcs	r0, #0
 8000b26:	f85d fb08 	ldr.w	pc, [sp], #8
 8000b2a:	bf00      	nop

08000b2c <__aeabi_dcmpun>:
 8000b2c:	ea4f 0c41 	mov.w	ip, r1, lsl #1
 8000b30:	ea7f 5c6c 	mvns.w	ip, ip, asr #21
 8000b34:	d102      	bne.n	8000b3c <__aeabi_dcmpun+0x10>
 8000b36:	ea50 3c01 	orrs.w	ip, r0, r1, lsl #12
 8000b3a:	d10a      	bne.n	8000b52 <__aeabi_dcmpun+0x26>
 8000b3c:	ea4f 0c43 	mov.w	ip, r3, lsl #1
 8000b40:	ea7f 5c6c 	mvns.w	ip, ip, asr #21
 8000b44:	d102      	bne.n	8000b4c <__aeabi_dcmpun+0x20>
 8000b46:	ea52 3c03 	orrs.w	ip, r2, r3, lsl #12
 8000b4a:	d102      	bne.n	8000b52 <__aeabi_dcmpun+0x26>
 8000b4c:	f04f 0000 	mov.w	r0, #0
 8000b50:	4770      	bx	lr
 8000b52:	f04f 0001 	mov.w	r0, #1
 8000b56:	4770      	bx	lr

08000b58 <__aeabi_d2iz>:
 8000b58:	ea4f 0241 	mov.w	r2, r1, lsl #1
 8000b5c:	f512 1200 	adds.w	r2, r2, #2097152	; 0x200000
 8000b60:	d215      	bcs.n	8000b8e <__aeabi_d2iz+0x36>
 8000b62:	d511      	bpl.n	8000b88 <__aeabi_d2iz+0x30>
 8000b64:	f46f 7378 	mvn.w	r3, #992	; 0x3e0
 8000b68:	ebb3 5262 	subs.w	r2, r3, r2, asr #21
 8000b6c:	d912      	bls.n	8000b94 <__aeabi_d2iz+0x3c>
 8000b6e:	ea4f 23c1 	mov.w	r3, r1, lsl #11
 8000b72:	f043 4300 	orr.w	r3, r3, #2147483648	; 0x80000000
 8000b76:	ea43 5350 	orr.w	r3, r3, r0, lsr #21
 8000b7a:	f011 4f00 	tst.w	r1, #2147483648	; 0x80000000
 8000b7e:	fa23 f002 	lsr.w	r0, r3, r2
 8000b82:	bf18      	it	ne
 8000b84:	4240      	negne	r0, r0
 8000b86:	4770      	bx	lr
 8000b88:	f04f 0000 	mov.w	r0, #0
 8000b8c:	4770      	bx	lr
 8000b8e:	ea50 3001 	orrs.w	r0, r0, r1, lsl #12
 8000b92:	d105      	bne.n	8000ba0 <__aeabi_d2iz+0x48>
 8000b94:	f011 4000 	ands.w	r0, r1, #2147483648	; 0x80000000
 8000b98:	bf08      	it	eq
 8000b9a:	f06f 4000 	mvneq.w	r0, #2147483648	; 0x80000000
 8000b9e:	4770      	bx	lr
 8000ba0:	f04f 0000 	mov.w	r0, #0
 8000ba4:	4770      	bx	lr
 8000ba6:	bf00      	nop

08000ba8 <__aeabi_d2uiz>:
 8000ba8:	004a      	lsls	r2, r1, #1
 8000baa:	d211      	bcs.n	8000bd0 <__aeabi_d2uiz+0x28>
 8000bac:	f512 1200 	adds.w	r2, r2, #2097152	; 0x200000
 8000bb0:	d211      	bcs.n	8000bd6 <__aeabi_d2uiz+0x2e>
 8000bb2:	d50d      	bpl.n	8000bd0 <__aeabi_d2uiz+0x28>
 8000bb4:	f46f 7378 	mvn.w	r3, #992	; 0x3e0
 8000bb8:	ebb3 5262 	subs.w	r2, r3, r2, asr #21
 8000bbc:	d40e      	bmi.n	8000bdc <__aeabi_d2uiz+0x34>
 8000bbe:	ea4f 23c1 	mov.w	r3, r1, lsl #11
 8000bc2:	f043 4300 	orr.w	r3, r3, #2147483648	; 0x80000000
 8000bc6:	ea43 5350 	orr.w	r3, r3, r0, lsr #21
 8000bca:	fa23 f002 	lsr.w	r0, r3, r2
 8000bce:	4770      	bx	lr
 8000bd0:	f04f 0000 	mov.w	r0, #0
 8000bd4:	4770      	bx	lr
 8000bd6:	ea50 3001 	orrs.w	r0, r0, r1, lsl #12
 8000bda:	d102      	bne.n	8000be2 <__aeabi_d2uiz+0x3a>
 8000bdc:	f04f 30ff 	mov.w	r0, #4294967295
 8000be0:	4770      	bx	lr
 8000be2:	f04f 0000 	mov.w	r0, #0
 8000be6:	4770      	bx	lr

08000be8 <__aeabi_d2f>:
 8000be8:	ea4f 0241 	mov.w	r2, r1, lsl #1
 8000bec:	f1b2 43e0 	subs.w	r3, r2, #1879048192	; 0x70000000
 8000bf0:	bf24      	itt	cs
 8000bf2:	f5b3 1c00 	subscs.w	ip, r3, #2097152	; 0x200000
 8000bf6:	f1dc 5cfe 	rsbscs	ip, ip, #532676608	; 0x1fc00000
 8000bfa:	d90d      	bls.n	8000c18 <__aeabi_d2f+0x30>
 8000bfc:	f001 4c00 	and.w	ip, r1, #2147483648	; 0x80000000
 8000c00:	ea4f 02c0 	mov.w	r2, r0, lsl #3
 8000c04:	ea4c 7050 	orr.w	r0, ip, r0, lsr #29
 8000c08:	f1b2 4f00 	cmp.w	r2, #2147483648	; 0x80000000
 8000c0c:	eb40 0083 	adc.w	r0, r0, r3, lsl #2
 8000c10:	bf08      	it	eq
 8000c12:	f020 0001 	biceq.w	r0, r0, #1
 8000c16:	4770      	bx	lr
 8000c18:	f011 4f80 	tst.w	r1, #1073741824	; 0x40000000
 8000c1c:	d121      	bne.n	8000c62 <__aeabi_d2f+0x7a>
 8000c1e:	f113 7238 	adds.w	r2, r3, #48234496	; 0x2e00000
 8000c22:	bfbc      	itt	lt
 8000c24:	f001 4000 	andlt.w	r0, r1, #2147483648	; 0x80000000
 8000c28:	4770      	bxlt	lr
 8000c2a:	f441 1180 	orr.w	r1, r1, #1048576	; 0x100000
 8000c2e:	ea4f 5252 	mov.w	r2, r2, lsr #21
 8000c32:	f1c2 0218 	rsb	r2, r2, #24
 8000c36:	f1c2 0c20 	rsb	ip, r2, #32
 8000c3a:	fa10 f30c 	lsls.w	r3, r0, ip
 8000c3e:	fa20 f002 	lsr.w	r0, r0, r2
 8000c42:	bf18      	it	ne
 8000c44:	f040 0001 	orrne.w	r0, r0, #1
 8000c48:	ea4f 23c1 	mov.w	r3, r1, lsl #11
 8000c4c:	ea4f 23d3 	mov.w	r3, r3, lsr #11
 8000c50:	fa03 fc0c 	lsl.w	ip, r3, ip
 8000c54:	ea40 000c 	orr.w	r0, r0, ip
 8000c58:	fa23 f302 	lsr.w	r3, r3, r2
 8000c5c:	ea4f 0343 	mov.w	r3, r3, lsl #1
 8000c60:	e7cc      	b.n	8000bfc <__aeabi_d2f+0x14>
 8000c62:	ea7f 5362 	mvns.w	r3, r2, asr #21
 8000c66:	d107      	bne.n	8000c78 <__aeabi_d2f+0x90>
 8000c68:	ea50 3301 	orrs.w	r3, r0, r1, lsl #12
 8000c6c:	bf1e      	ittt	ne
 8000c6e:	f04f 40fe 	movne.w	r0, #2130706432	; 0x7f000000
 8000c72:	f440 0040 	orrne.w	r0, r0, #12582912	; 0xc00000
 8000c76:	4770      	bxne	lr
 8000c78:	f001 4000 	and.w	r0, r1, #2147483648	; 0x80000000
 8000c7c:	f040 40fe 	orr.w	r0, r0, #2130706432	; 0x7f000000
 8000c80:	f440 0000 	orr.w	r0, r0, #8388608	; 0x800000
 8000c84:	4770      	bx	lr
 8000c86:	bf00      	nop

08000c88 <__aeabi_uldivmod>:
 8000c88:	b953      	cbnz	r3, 8000ca0 <__aeabi_uldivmod+0x18>
 8000c8a:	b94a      	cbnz	r2, 8000ca0 <__aeabi_uldivmod+0x18>
 8000c8c:	2900      	cmp	r1, #0
 8000c8e:	bf08      	it	eq
 8000c90:	2800      	cmpeq	r0, #0
 8000c92:	bf1c      	itt	ne
 8000c94:	f04f 31ff 	movne.w	r1, #4294967295
 8000c98:	f04f 30ff 	movne.w	r0, #4294967295
 8000c9c:	f000 b972 	b.w	8000f84 <__aeabi_idiv0>
 8000ca0:	f1ad 0c08 	sub.w	ip, sp, #8
 8000ca4:	e96d ce04 	strd	ip, lr, [sp, #-16]!
 8000ca8:	f000 f806 	bl	8000cb8 <__udivmoddi4>
 8000cac:	f8dd e004 	ldr.w	lr, [sp, #4]
 8000cb0:	e9dd 2302 	ldrd	r2, r3, [sp, #8]
 8000cb4:	b004      	add	sp, #16
 8000cb6:	4770      	bx	lr

08000cb8 <__udivmoddi4>:
 8000cb8:	e92d 47f0 	stmdb	sp!, {r4, r5, r6, r7, r8, r9, sl, lr}
 8000cbc:	9e08      	ldr	r6, [sp, #32]
 8000cbe:	4604      	mov	r4, r0
 8000cc0:	4688      	mov	r8, r1
 8000cc2:	2b00      	cmp	r3, #0
 8000cc4:	d14b      	bne.n	8000d5e <__udivmoddi4+0xa6>
 8000cc6:	428a      	cmp	r2, r1
 8000cc8:	4615      	mov	r5, r2
 8000cca:	d967      	bls.n	8000d9c <__udivmoddi4+0xe4>
 8000ccc:	fab2 f282 	clz	r2, r2
 8000cd0:	b14a      	cbz	r2, 8000ce6 <__udivmoddi4+0x2e>
 8000cd2:	f1c2 0720 	rsb	r7, r2, #32
 8000cd6:	fa01 f302 	lsl.w	r3, r1, r2
 8000cda:	fa20 f707 	lsr.w	r7, r0, r7
 8000cde:	4095      	lsls	r5, r2
 8000ce0:	ea47 0803 	orr.w	r8, r7, r3
 8000ce4:	4094      	lsls	r4, r2
 8000ce6:	ea4f 4e15 	mov.w	lr, r5, lsr #16
 8000cea:	0c23      	lsrs	r3, r4, #16
 8000cec:	fbb8 f7fe 	udiv	r7, r8, lr
 8000cf0:	fa1f fc85 	uxth.w	ip, r5
 8000cf4:	fb0e 8817 	mls	r8, lr, r7, r8
 8000cf8:	ea43 4308 	orr.w	r3, r3, r8, lsl #16
 8000cfc:	fb07 f10c 	mul.w	r1, r7, ip
 8000d00:	4299      	cmp	r1, r3
 8000d02:	d909      	bls.n	8000d18 <__udivmoddi4+0x60>
 8000d04:	18eb      	adds	r3, r5, r3
 8000d06:	f107 30ff 	add.w	r0, r7, #4294967295
 8000d0a:	f080 811b 	bcs.w	8000f44 <__udivmoddi4+0x28c>
 8000d0e:	4299      	cmp	r1, r3
 8000d10:	f240 8118 	bls.w	8000f44 <__udivmoddi4+0x28c>
 8000d14:	3f02      	subs	r7, #2
 8000d16:	442b      	add	r3, r5
 8000d18:	1a5b      	subs	r3, r3, r1
 8000d1a:	b2a4      	uxth	r4, r4
 8000d1c:	fbb3 f0fe 	udiv	r0, r3, lr
 8000d20:	fb0e 3310 	mls	r3, lr, r0, r3
 8000d24:	ea44 4403 	orr.w	r4, r4, r3, lsl #16
 8000d28:	fb00 fc0c 	mul.w	ip, r0, ip
 8000d2c:	45a4      	cmp	ip, r4
 8000d2e:	d909      	bls.n	8000d44 <__udivmoddi4+0x8c>
 8000d30:	192c      	adds	r4, r5, r4
 8000d32:	f100 33ff 	add.w	r3, r0, #4294967295
 8000d36:	f080 8107 	bcs.w	8000f48 <__udivmoddi4+0x290>
 8000d3a:	45a4      	cmp	ip, r4
 8000d3c:	f240 8104 	bls.w	8000f48 <__udivmoddi4+0x290>
 8000d40:	3802      	subs	r0, #2
 8000d42:	442c      	add	r4, r5
 8000d44:	ea40 4007 	orr.w	r0, r0, r7, lsl #16
 8000d48:	eba4 040c 	sub.w	r4, r4, ip
 8000d4c:	2700      	movs	r7, #0
 8000d4e:	b11e      	cbz	r6, 8000d58 <__udivmoddi4+0xa0>
 8000d50:	40d4      	lsrs	r4, r2
 8000d52:	2300      	movs	r3, #0
 8000d54:	e9c6 4300 	strd	r4, r3, [r6]
 8000d58:	4639      	mov	r1, r7
 8000d5a:	e8bd 87f0 	ldmia.w	sp!, {r4, r5, r6, r7, r8, r9, sl, pc}
 8000d5e:	428b      	cmp	r3, r1
 8000d60:	d909      	bls.n	8000d76 <__udivmoddi4+0xbe>
 8000d62:	2e00      	cmp	r6, #0
 8000d64:	f000 80eb 	beq.w	8000f3e <__udivmoddi4+0x286>
 8000d68:	2700      	movs	r7, #0
 8000d6a:	e9c6 0100 	strd	r0, r1, [r6]
 8000d6e:	4638      	mov	r0, r7
 8000d70:	4639      	mov	r1, r7
 8000d72:	e8bd 87f0 	ldmia.w	sp!, {r4, r5, r6, r7, r8, r9, sl, pc}
 8000d76:	fab3 f783 	clz	r7, r3
 8000d7a:	2f00      	cmp	r7, #0
 8000d7c:	d147      	bne.n	8000e0e <__udivmoddi4+0x156>
 8000d7e:	428b      	cmp	r3, r1
 8000d80:	d302      	bcc.n	8000d88 <__udivmoddi4+0xd0>
 8000d82:	4282      	cmp	r2, r0
 8000d84:	f200 80fa 	bhi.w	8000f7c <__udivmoddi4+0x2c4>
 8000d88:	1a84      	subs	r4, r0, r2
 8000d8a:	eb61 0303 	sbc.w	r3, r1, r3
 8000d8e:	2001      	movs	r0, #1
 8000d90:	4698      	mov	r8, r3
 8000d92:	2e00      	cmp	r6, #0
 8000d94:	d0e0      	beq.n	8000d58 <__udivmoddi4+0xa0>
 8000d96:	e9c6 4800 	strd	r4, r8, [r6]
 8000d9a:	e7dd      	b.n	8000d58 <__udivmoddi4+0xa0>
 8000d9c:	b902      	cbnz	r2, 8000da0 <__udivmoddi4+0xe8>
 8000d9e:	deff      	udf	#255	; 0xff
 8000da0:	fab2 f282 	clz	r2, r2
 8000da4:	2a00      	cmp	r2, #0
 8000da6:	f040 808f 	bne.w	8000ec8 <__udivmoddi4+0x210>
 8000daa:	1b49      	subs	r1, r1, r5
 8000dac:	ea4f 4e15 	mov.w	lr, r5, lsr #16
 8000db0:	fa1f f885 	uxth.w	r8, r5
 8000db4:	2701      	movs	r7, #1
 8000db6:	fbb1 fcfe 	udiv	ip, r1, lr
 8000dba:	0c23      	lsrs	r3, r4, #16
 8000dbc:	fb0e 111c 	mls	r1, lr, ip, r1
 8000dc0:	ea43 4301 	orr.w	r3, r3, r1, lsl #16
 8000dc4:	fb08 f10c 	mul.w	r1, r8, ip
 8000dc8:	4299      	cmp	r1, r3
 8000dca:	d907      	bls.n	8000ddc <__udivmoddi4+0x124>
 8000dcc:	18eb      	adds	r3, r5, r3
 8000dce:	f10c 30ff 	add.w	r0, ip, #4294967295
 8000dd2:	d202      	bcs.n	8000dda <__udivmoddi4+0x122>
 8000dd4:	4299      	cmp	r1, r3
 8000dd6:	f200 80cd 	bhi.w	8000f74 <__udivmoddi4+0x2bc>
 8000dda:	4684      	mov	ip, r0
 8000ddc:	1a59      	subs	r1, r3, r1
 8000dde:	b2a3      	uxth	r3, r4
 8000de0:	fbb1 f0fe 	udiv	r0, r1, lr
 8000de4:	fb0e 1410 	mls	r4, lr, r0, r1
 8000de8:	ea43 4404 	orr.w	r4, r3, r4, lsl #16
 8000dec:	fb08 f800 	mul.w	r8, r8, r0
 8000df0:	45a0      	cmp	r8, r4
 8000df2:	d907      	bls.n	8000e04 <__udivmoddi4+0x14c>
 8000df4:	192c      	adds	r4, r5, r4
 8000df6:	f100 33ff 	add.w	r3, r0, #4294967295
 8000dfa:	d202      	bcs.n	8000e02 <__udivmoddi4+0x14a>
 8000dfc:	45a0      	cmp	r8, r4
 8000dfe:	f200 80b6 	bhi.w	8000f6e <__udivmoddi4+0x2b6>
 8000e02:	4618      	mov	r0, r3
 8000e04:	eba4 0408 	sub.w	r4, r4, r8
 8000e08:	ea40 400c 	orr.w	r0, r0, ip, lsl #16
 8000e0c:	e79f      	b.n	8000d4e <__udivmoddi4+0x96>
 8000e0e:	f1c7 0c20 	rsb	ip, r7, #32
 8000e12:	40bb      	lsls	r3, r7
 8000e14:	fa22 fe0c 	lsr.w	lr, r2, ip
 8000e18:	ea4e 0e03 	orr.w	lr, lr, r3
 8000e1c:	fa01 f407 	lsl.w	r4, r1, r7
 8000e20:	fa20 f50c 	lsr.w	r5, r0, ip
 8000e24:	fa21 f30c 	lsr.w	r3, r1, ip
 8000e28:	ea4f 481e 	mov.w	r8, lr, lsr #16
 8000e2c:	4325      	orrs	r5, r4
 8000e2e:	fbb3 f9f8 	udiv	r9, r3, r8
 8000e32:	0c2c      	lsrs	r4, r5, #16
 8000e34:	fb08 3319 	mls	r3, r8, r9, r3
 8000e38:	fa1f fa8e 	uxth.w	sl, lr
 8000e3c:	ea44 4303 	orr.w	r3, r4, r3, lsl #16
 8000e40:	fb09 f40a 	mul.w	r4, r9, sl
 8000e44:	429c      	cmp	r4, r3
 8000e46:	fa02 f207 	lsl.w	r2, r2, r7
 8000e4a:	fa00 f107 	lsl.w	r1, r0, r7
 8000e4e:	d90b      	bls.n	8000e68 <__udivmoddi4+0x1b0>
 8000e50:	eb1e 0303 	adds.w	r3, lr, r3
 8000e54:	f109 30ff 	add.w	r0, r9, #4294967295
 8000e58:	f080 8087 	bcs.w	8000f6a <__udivmoddi4+0x2b2>
 8000e5c:	429c      	cmp	r4, r3
 8000e5e:	f240 8084 	bls.w	8000f6a <__udivmoddi4+0x2b2>
 8000e62:	f1a9 0902 	sub.w	r9, r9, #2
 8000e66:	4473      	add	r3, lr
 8000e68:	1b1b      	subs	r3, r3, r4
 8000e6a:	b2ad      	uxth	r5, r5
 8000e6c:	fbb3 f0f8 	udiv	r0, r3, r8
 8000e70:	fb08 3310 	mls	r3, r8, r0, r3
 8000e74:	ea45 4403 	orr.w	r4, r5, r3, lsl #16
 8000e78:	fb00 fa0a 	mul.w	sl, r0, sl
 8000e7c:	45a2      	cmp	sl, r4
 8000e7e:	d908      	bls.n	8000e92 <__udivmoddi4+0x1da>
 8000e80:	eb1e 0404 	adds.w	r4, lr, r4
 8000e84:	f100 33ff 	add.w	r3, r0, #4294967295
 8000e88:	d26b      	bcs.n	8000f62 <__udivmoddi4+0x2aa>
 8000e8a:	45a2      	cmp	sl, r4
 8000e8c:	d969      	bls.n	8000f62 <__udivmoddi4+0x2aa>
 8000e8e:	3802      	subs	r0, #2
 8000e90:	4474      	add	r4, lr
 8000e92:	ea40 4009 	orr.w	r0, r0, r9, lsl #16
 8000e96:	fba0 8902 	umull	r8, r9, r0, r2
 8000e9a:	eba4 040a 	sub.w	r4, r4, sl
 8000e9e:	454c      	cmp	r4, r9
 8000ea0:	46c2      	mov	sl, r8
 8000ea2:	464b      	mov	r3, r9
 8000ea4:	d354      	bcc.n	8000f50 <__udivmoddi4+0x298>
 8000ea6:	d051      	beq.n	8000f4c <__udivmoddi4+0x294>
 8000ea8:	2e00      	cmp	r6, #0
 8000eaa:	d069      	beq.n	8000f80 <__udivmoddi4+0x2c8>
 8000eac:	ebb1 050a 	subs.w	r5, r1, sl
 8000eb0:	eb64 0403 	sbc.w	r4, r4, r3
 8000eb4:	fa04 fc0c 	lsl.w	ip, r4, ip
 8000eb8:	40fd      	lsrs	r5, r7
 8000eba:	40fc      	lsrs	r4, r7
 8000ebc:	ea4c 0505 	orr.w	r5, ip, r5
 8000ec0:	e9c6 5400 	strd	r5, r4, [r6]
 8000ec4:	2700      	movs	r7, #0
 8000ec6:	e747      	b.n	8000d58 <__udivmoddi4+0xa0>
 8000ec8:	f1c2 0320 	rsb	r3, r2, #32
 8000ecc:	fa20 f703 	lsr.w	r7, r0, r3
 8000ed0:	4095      	lsls	r5, r2
 8000ed2:	fa01 f002 	lsl.w	r0, r1, r2
 8000ed6:	fa21 f303 	lsr.w	r3, r1, r3
 8000eda:	ea4f 4e15 	mov.w	lr, r5, lsr #16
 8000ede:	4338      	orrs	r0, r7
 8000ee0:	0c01      	lsrs	r1, r0, #16
 8000ee2:	fbb3 f7fe 	udiv	r7, r3, lr
 8000ee6:	fa1f f885 	uxth.w	r8, r5
 8000eea:	fb0e 3317 	mls	r3, lr, r7, r3
 8000eee:	ea41 4103 	orr.w	r1, r1, r3, lsl #16
 8000ef2:	fb07 f308 	mul.w	r3, r7, r8
 8000ef6:	428b      	cmp	r3, r1
 8000ef8:	fa04 f402 	lsl.w	r4, r4, r2
 8000efc:	d907      	bls.n	8000f0e <__udivmoddi4+0x256>
 8000efe:	1869      	adds	r1, r5, r1
 8000f00:	f107 3cff 	add.w	ip, r7, #4294967295
 8000f04:	d22f      	bcs.n	8000f66 <__udivmoddi4+0x2ae>
 8000f06:	428b      	cmp	r3, r1
 8000f08:	d92d      	bls.n	8000f66 <__udivmoddi4+0x2ae>
 8000f0a:	3f02      	subs	r7, #2
 8000f0c:	4429      	add	r1, r5
 8000f0e:	1acb      	subs	r3, r1, r3
 8000f10:	b281      	uxth	r1, r0
 8000f12:	fbb3 f0fe 	udiv	r0, r3, lr
 8000f16:	fb0e 3310 	mls	r3, lr, r0, r3
 8000f1a:	ea41 4103 	orr.w	r1, r1, r3, lsl #16
 8000f1e:	fb00 f308 	mul.w	r3, r0, r8
 8000f22:	428b      	cmp	r3, r1
 8000f24:	d907      	bls.n	8000f36 <__udivmoddi4+0x27e>
 8000f26:	1869      	adds	r1, r5, r1
 8000f28:	f100 3cff 	add.w	ip, r0, #4294967295
 8000f2c:	d217      	bcs.n	8000f5e <__udivmoddi4+0x2a6>
 8000f2e:	428b      	cmp	r3, r1
 8000f30:	d915      	bls.n	8000f5e <__udivmoddi4+0x2a6>
 8000f32:	3802      	subs	r0, #2
 8000f34:	4429      	add	r1, r5
 8000f36:	1ac9      	subs	r1, r1, r3
 8000f38:	ea40 4707 	orr.w	r7, r0, r7, lsl #16
 8000f3c:	e73b      	b.n	8000db6 <__udivmoddi4+0xfe>
 8000f3e:	4637      	mov	r7, r6
 8000f40:	4630      	mov	r0, r6
 8000f42:	e709      	b.n	8000d58 <__udivmoddi4+0xa0>
 8000f44:	4607      	mov	r7, r0
 8000f46:	e6e7      	b.n	8000d18 <__udivmoddi4+0x60>
 8000f48:	4618      	mov	r0, r3
 8000f4a:	e6fb      	b.n	8000d44 <__udivmoddi4+0x8c>
 8000f4c:	4541      	cmp	r1, r8
 8000f4e:	d2ab      	bcs.n	8000ea8 <__udivmoddi4+0x1f0>
 8000f50:	ebb8 0a02 	subs.w	sl, r8, r2
 8000f54:	eb69 020e 	sbc.w	r2, r9, lr
 8000f58:	3801      	subs	r0, #1
 8000f5a:	4613      	mov	r3, r2
 8000f5c:	e7a4      	b.n	8000ea8 <__udivmoddi4+0x1f0>
 8000f5e:	4660      	mov	r0, ip
 8000f60:	e7e9      	b.n	8000f36 <__udivmoddi4+0x27e>
 8000f62:	4618      	mov	r0, r3
 8000f64:	e795      	b.n	8000e92 <__udivmoddi4+0x1da>
 8000f66:	4667      	mov	r7, ip
 8000f68:	e7d1      	b.n	8000f0e <__udivmoddi4+0x256>
 8000f6a:	4681      	mov	r9, r0
 8000f6c:	e77c      	b.n	8000e68 <__udivmoddi4+0x1b0>
 8000f6e:	3802      	subs	r0, #2
 8000f70:	442c      	add	r4, r5
 8000f72:	e747      	b.n	8000e04 <__udivmoddi4+0x14c>
 8000f74:	f1ac 0c02 	sub.w	ip, ip, #2
 8000f78:	442b      	add	r3, r5
 8000f7a:	e72f      	b.n	8000ddc <__udivmoddi4+0x124>
 8000f7c:	4638      	mov	r0, r7
 8000f7e:	e708      	b.n	8000d92 <__udivmoddi4+0xda>
 8000f80:	4637      	mov	r7, r6
 8000f82:	e6e9      	b.n	8000d58 <__udivmoddi4+0xa0>

08000f84 <__aeabi_idiv0>:
 8000f84:	4770      	bx	lr
 8000f86:	bf00      	nop

08000f88 <comInit>:

void comInit ( com_t* driver, uint32_t timeout )
{
	uint32_t i = 0;

	driver->rxIndex = 0;
 8000f88:	2200      	movs	r2, #0
	driver->txIndex = 0;
 8000f8a:	e9c0 2200 	strd	r2, r2, [r0]
{
 8000f8e:	b410      	push	{r4}
 8000f90:	f200 140f 	addw	r4, r0, #271	; 0x10f

	driver->rxReady = FALSE;

	driver->timeout = timeout;
 8000f94:	f8c0 1210 	str.w	r1, [r0, #528]	; 0x210
	driver->rxReady = FALSE;
 8000f98:	7202      	strb	r2, [r0, #8]
 8000f9a:	4621      	mov	r1, r4
	driver->rxTimeoutCounter = 0;
 8000f9c:	60c2      	str	r2, [r0, #12]
 8000f9e:	f100 030f 	add.w	r3, r0, #15

	for ( i = 0; i < BUFFERSIZE; ++i )
	{
		driver->rxBuffer[ i ] = 0;
 8000fa2:	f803 2f01 	strb.w	r2, [r3, #1]!
	for ( i = 0; i < BUFFERSIZE; ++i )
 8000fa6:	428b      	cmp	r3, r1
		driver->txBuffer[ i ] = 0;
 8000fa8:	f804 2f01 	strb.w	r2, [r4, #1]!
	for ( i = 0; i < BUFFERSIZE; ++i )
 8000fac:	d1f9      	bne.n	8000fa2 <comInit+0x1a>
	}
}
 8000fae:	f85d 4b04 	ldr.w	r4, [sp], #4
 8000fb2:	4770      	bx	lr

08000fb4 <comGetData>:

void comGetData ( com_t* driver, uint8_t data )
{
	if ( driver->rxReady == FALSE )
 8000fb4:	7a02      	ldrb	r2, [r0, #8]
 8000fb6:	b98a      	cbnz	r2, 8000fdc <comGetData+0x28>
	{
		driver->rxBuffer[ driver->rxIndex ] = data;
 8000fb8:	6803      	ldr	r3, [r0, #0]
{
 8000fba:	b410      	push	{r4}
		driver->rxBuffer[ driver->rxIndex ] = data;
 8000fbc:	18c4      	adds	r4, r0, r3
		++driver->rxIndex;
 8000fbe:	3301      	adds	r3, #1
		driver->rxBuffer[ driver->rxIndex ] = data;
 8000fc0:	7421      	strb	r1, [r4, #16]
		++driver->rxIndex;
 8000fc2:	6003      	str	r3, [r0, #0]

		if ( ( driver->rxBuffer[ driver->rxIndex - 2 ] == '\r' ) && ( driver->rxBuffer[ driver->rxIndex - 1 ] == '\n' ) )
 8000fc4:	7be3      	ldrb	r3, [r4, #15]
 8000fc6:	2b0d      	cmp	r3, #13
 8000fc8:	d002      	beq.n	8000fd0 <comGetData+0x1c>
		{
			driver->rxReady = TRUE;
			driver->rxTimeoutCounter = 0;
		}
	}
}
 8000fca:	f85d 4b04 	ldr.w	r4, [sp], #4
 8000fce:	4770      	bx	lr
		if ( ( driver->rxBuffer[ driver->rxIndex - 2 ] == '\r' ) && ( driver->rxBuffer[ driver->rxIndex - 1 ] == '\n' ) )
 8000fd0:	290a      	cmp	r1, #10
 8000fd2:	d1fa      	bne.n	8000fca <comGetData+0x16>
			driver->rxReady = TRUE;
 8000fd4:	2301      	movs	r3, #1
			driver->rxTimeoutCounter = 0;
 8000fd6:	60c2      	str	r2, [r0, #12]
			driver->rxReady = TRUE;
 8000fd8:	7203      	strb	r3, [r0, #8]
}
 8000fda:	e7f6      	b.n	8000fca <comGetData+0x16>
 8000fdc:	4770      	bx	lr
 8000fde:	bf00      	nop

08000fe0 <comTimeoutCounter>:

void comTimeoutCounter ( com_t* driver )
{
	if ( ( driver->rxIndex != 0 ) && ( driver->rxReady == FALSE ) )
 8000fe0:	6803      	ldr	r3, [r0, #0]
 8000fe2:	b153      	cbz	r3, 8000ffa <comTimeoutCounter+0x1a>
 8000fe4:	7a02      	ldrb	r2, [r0, #8]
 8000fe6:	b942      	cbnz	r2, 8000ffa <comTimeoutCounter+0x1a>
	{
		++driver->rxTimeoutCounter;
 8000fe8:	68c3      	ldr	r3, [r0, #12]

		if ( driver->rxTimeoutCounter > driver->timeout )
 8000fea:	f8d0 1210 	ldr.w	r1, [r0, #528]	; 0x210
		++driver->rxTimeoutCounter;
 8000fee:	3301      	adds	r3, #1
		if ( driver->rxTimeoutCounter > driver->timeout )
 8000ff0:	428b      	cmp	r3, r1
		++driver->rxTimeoutCounter;
 8000ff2:	60c3      	str	r3, [r0, #12]
		{
			driver->rxIndex = 0;
 8000ff4:	bf84      	itt	hi
 8000ff6:	6002      	strhi	r2, [r0, #0]
			driver->rxTimeoutCounter = 0;
 8000ff8:	60c2      	strhi	r2, [r0, #12]
		}
	}
}
 8000ffa:	4770      	bx	lr

08000ffc <comIsRxBufferReady>:

uint8_t comIsRxBufferReady ( com_t* driver )
{
	return ( driver->rxReady );
}
 8000ffc:	7a00      	ldrb	r0, [r0, #8]
 8000ffe:	4770      	bx	lr

08001000 <comRxBufferProcessed>:

void comRxBufferProcessed ( com_t* driver )
{
	driver->rxReady = FALSE;
 8001000:	2300      	movs	r3, #0
 8001002:	7203      	strb	r3, [r0, #8]
}
 8001004:	4770      	bx	lr
 8001006:	bf00      	nop

08001008 <comGetTxBufferIndex>:

uint32_t comGetTxBufferIndex ( com_t* driver )
{
	return ( driver->txIndex );
}
 8001008:	6840      	ldr	r0, [r0, #4]
 800100a:	4770      	bx	lr

0800100c <comSetTxBufferIndex>:

void comSetTxBufferIndex ( com_t* driver, uint32_t index )
{
	driver->txIndex = index;
 800100c:	6041      	str	r1, [r0, #4]
}
 800100e:	4770      	bx	lr

08001010 <adcToTemp>:
	__HAL_TIM_SET_COMPARE ( &htim3, TIM_CHANNEL_1, (uint32_t) inp * 10 );
}

float adcToTemp ( uint32_t adcRaw ) //Calculate temperature from 10 bit ADC value
{
	float adcRawVar = adcRaw;
 8001010:	ee07 0a90 	vmov	s15, r0
 8001014:	eef8 6a67 	vcvt.f32.u32	s13, s15
	// T = ( 1 / a + b ( Ln Rt / R25 ) + c ( Ln Rt / R25 ) 2 + d ( Ln Rt / R25 ) ) - 273
	float Vo=3*adcRawVar/4095;
 8001018:	eef0 7a08 	vmov.f32	s15, #8	; 0x40400000  3.0
 800101c:	ee66 6aa7 	vmul.f32	s13, s13, s15
 8001020:	ed9f 5abf 	vldr	s10, [pc, #764]	; 8001320 <adcToTemp+0x310>
	float RtRT25=(Vo*10000/(3-Vo))/30000;
 8001024:	eddf 5abf 	vldr	s11, [pc, #764]	; 8001324 <adcToTemp+0x314>
 8001028:	ed9f 6abf 	vldr	s12, [pc, #764]	; 8001328 <adcToTemp+0x318>
	float Vo=3*adcRawVar/4095;
 800102c:	ee86 7a85 	vdiv.f32	s14, s13, s10
{
 8001030:	b5f0      	push	{r4, r5, r6, r7, lr}
 8001032:	b085      	sub	sp, #20
	float RtRT25=(Vo*10000/(3-Vo))/30000;
 8001034:	ee77 7ac7 	vsub.f32	s15, s15, s14
 8001038:	ee27 7a25 	vmul.f32	s14, s14, s11
 800103c:	eec7 6a27 	vdiv.f32	s13, s14, s15

	if((RtRT25<60.16)&&(RtRT25>3.195))
 8001040:	eec6 7a86 	vdiv.f32	s15, s13, s12
 8001044:	ee17 0a90 	vmov	r0, s15
 8001048:	f7ff fa7e 	bl	8000548 <__aeabi_f2d>
 800104c:	a38e      	add	r3, pc, #568	; (adr r3, 8001288 <adcToTemp+0x278>)
 800104e:	e9d3 2300 	ldrd	r2, r3, [r3]
 8001052:	4604      	mov	r4, r0
 8001054:	460d      	mov	r5, r1
 8001056:	f7ff fd41 	bl	8000adc <__aeabi_dcmplt>
 800105a:	b140      	cbz	r0, 800106e <adcToTemp+0x5e>
 800105c:	a38c      	add	r3, pc, #560	; (adr r3, 8001290 <adcToTemp+0x280>)
 800105e:	e9d3 2300 	ldrd	r2, r3, [r3]
 8001062:	4620      	mov	r0, r4
 8001064:	4629      	mov	r1, r5
 8001066:	f7ff fd57 	bl	8000b18 <__aeabi_dcmpgt>
 800106a:	2800      	cmp	r0, #0
 800106c:	d139      	bne.n	80010e2 <adcToTemp+0xd2>
		return((1/(3.3545590E-3+(2.5903082E-4*log(RtRT25))+(4.1929419E-6*pow(log(RtRT25),2))+(-7.1497776E-8*pow(log(RtRT25),3))))-273);
	else if((RtRT25<3.195)&&(RtRT25>0.3636))
 800106e:	a388      	add	r3, pc, #544	; (adr r3, 8001290 <adcToTemp+0x280>)
 8001070:	e9d3 2300 	ldrd	r2, r3, [r3]
 8001074:	4620      	mov	r0, r4
 8001076:	4629      	mov	r1, r5
 8001078:	f7ff fd30 	bl	8000adc <__aeabi_dcmplt>
 800107c:	b148      	cbz	r0, 8001092 <adcToTemp+0x82>
 800107e:	a386      	add	r3, pc, #536	; (adr r3, 8001298 <adcToTemp+0x288>)
 8001080:	e9d3 2300 	ldrd	r2, r3, [r3]
 8001084:	4620      	mov	r0, r4
 8001086:	4629      	mov	r1, r5
 8001088:	f7ff fd46 	bl	8000b18 <__aeabi_dcmpgt>
 800108c:	2800      	cmp	r0, #0
 800108e:	f040 8081 	bne.w	8001194 <adcToTemp+0x184>
		return((1/(3.3540178E-3+(2.6021087E-4*log(RtRT25))+(3.5946173E-6*pow(log(RtRT25),2))+(-8.5676875E-8*pow(log(RtRT25),3))))-273);
	else if((RtRT25<0.3636)&&(RtRT25>0.06933))
 8001092:	a381      	add	r3, pc, #516	; (adr r3, 8001298 <adcToTemp+0x288>)
 8001094:	e9d3 2300 	ldrd	r2, r3, [r3]
 8001098:	4620      	mov	r0, r4
 800109a:	4629      	mov	r1, r5
 800109c:	f7ff fd1e 	bl	8000adc <__aeabi_dcmplt>
 80010a0:	b148      	cbz	r0, 80010b6 <adcToTemp+0xa6>
 80010a2:	a37f      	add	r3, pc, #508	; (adr r3, 80012a0 <adcToTemp+0x290>)
 80010a4:	e9d3 2300 	ldrd	r2, r3, [r3]
 80010a8:	4620      	mov	r0, r4
 80010aa:	4629      	mov	r1, r5
 80010ac:	f7ff fd34 	bl	8000b18 <__aeabi_dcmpgt>
 80010b0:	2800      	cmp	r0, #0
 80010b2:	f040 80ac 	bne.w	800120e <adcToTemp+0x1fe>
		return((1/(3.3531474E-3+(2.5743868E-4*log(RtRT25))+(1.7022402E-6*pow(log(RtRT25),2))+(-8.8297492E-8*pow(log(RtRT25),3))))-273);
	else if((RtRT25<0.06933)&&(RtRT25>0.0187))
 80010b6:	a37a      	add	r3, pc, #488	; (adr r3, 80012a0 <adcToTemp+0x290>)
 80010b8:	e9d3 2300 	ldrd	r2, r3, [r3]
 80010bc:	4620      	mov	r0, r4
 80010be:	4629      	mov	r1, r5
 80010c0:	f7ff fd0c 	bl	8000adc <__aeabi_dcmplt>
 80010c4:	b148      	cbz	r0, 80010da <adcToTemp+0xca>
 80010c6:	a378      	add	r3, pc, #480	; (adr r3, 80012a8 <adcToTemp+0x298>)
 80010c8:	e9d3 2300 	ldrd	r2, r3, [r3]
 80010cc:	4620      	mov	r0, r4
 80010ce:	4629      	mov	r1, r5
 80010d0:	f7ff fd22 	bl	8000b18 <__aeabi_dcmpgt>
 80010d4:	2800      	cmp	r0, #0
 80010d6:	f040 812d 	bne.w	8001334 <adcToTemp+0x324>
		return((1/(3.3547977E-3+(2.5879299E-4*log(RtRT25))+(1.8964602E-6*pow(log(RtRT25),2))+(-1.1884916E-7*pow(log(RtRT25),3))))-273);
	else
		return(255.0); //Error Value
 80010da:	ed9f 0a94 	vldr	s0, [pc, #592]	; 800132c <adcToTemp+0x31c>
}
 80010de:	b005      	add	sp, #20
 80010e0:	bdf0      	pop	{r4, r5, r6, r7, pc}
		return((1/(3.3545590E-3+(2.5903082E-4*log(RtRT25))+(4.1929419E-6*pow(log(RtRT25),2))+(-7.1497776E-8*pow(log(RtRT25),3))))-273);
 80010e2:	ec45 4b10 	vmov	d0, r4, r5
 80010e6:	f008 fe7d 	bl	8009de4 <log>
 80010ea:	ec51 0b10 	vmov	r0, r1, d0
 80010ee:	ec45 4b10 	vmov	d0, r4, r5
 80010f2:	e9cd 0102 	strd	r0, r1, [sp, #8]
 80010f6:	f008 fe75 	bl	8009de4 <log>
 80010fa:	ec57 6b10 	vmov	r6, r7, d0
 80010fe:	ec45 4b10 	vmov	d0, r4, r5
 8001102:	f008 fe6f 	bl	8009de4 <log>
 8001106:	ed9f 1b6a 	vldr	d1, [pc, #424]	; 80012b0 <adcToTemp+0x2a0>
 800110a:	f008 feeb 	bl	8009ee4 <pow>
 800110e:	a36a      	add	r3, pc, #424	; (adr r3, 80012b8 <adcToTemp+0x2a8>)
 8001110:	e9d3 2300 	ldrd	r2, r3, [r3]
 8001114:	e9dd 0102 	ldrd	r0, r1, [sp, #8]
 8001118:	ed8d 0b00 	vstr	d0, [sp]
 800111c:	f7ff fa6c 	bl	80005f8 <__aeabi_dmul>
 8001120:	a367      	add	r3, pc, #412	; (adr r3, 80012c0 <adcToTemp+0x2b0>)
 8001122:	e9d3 2300 	ldrd	r2, r3, [r3]
 8001126:	f7ff f8b1 	bl	800028c <__adddf3>
 800112a:	4632      	mov	r2, r6
 800112c:	4604      	mov	r4, r0
 800112e:	460d      	mov	r5, r1
 8001130:	463b      	mov	r3, r7
 8001132:	4630      	mov	r0, r6
 8001134:	4639      	mov	r1, r7
 8001136:	f7ff fa5f 	bl	80005f8 <__aeabi_dmul>
 800113a:	a363      	add	r3, pc, #396	; (adr r3, 80012c8 <adcToTemp+0x2b8>)
 800113c:	e9d3 2300 	ldrd	r2, r3, [r3]
 8001140:	f7ff fa5a 	bl	80005f8 <__aeabi_dmul>
 8001144:	4602      	mov	r2, r0
 8001146:	460b      	mov	r3, r1
 8001148:	4620      	mov	r0, r4
 800114a:	4629      	mov	r1, r5
 800114c:	f7ff f89e 	bl	800028c <__adddf3>
 8001150:	a35f      	add	r3, pc, #380	; (adr r3, 80012d0 <adcToTemp+0x2c0>)
 8001152:	e9d3 2300 	ldrd	r2, r3, [r3]
 8001156:	4604      	mov	r4, r0
 8001158:	460d      	mov	r5, r1
		return((1/(3.3547977E-3+(2.5879299E-4*log(RtRT25))+(1.8964602E-6*pow(log(RtRT25),2))+(-1.1884916E-7*pow(log(RtRT25),3))))-273);
 800115a:	ed9d 0b00 	vldr	d0, [sp]
 800115e:	ec51 0b10 	vmov	r0, r1, d0
 8001162:	f7ff fa49 	bl	80005f8 <__aeabi_dmul>
 8001166:	4602      	mov	r2, r0
 8001168:	460b      	mov	r3, r1
 800116a:	4620      	mov	r0, r4
 800116c:	4629      	mov	r1, r5
 800116e:	f7ff f88d 	bl	800028c <__adddf3>
 8001172:	4602      	mov	r2, r0
 8001174:	460b      	mov	r3, r1
 8001176:	2000      	movs	r0, #0
 8001178:	496d      	ldr	r1, [pc, #436]	; (8001330 <adcToTemp+0x320>)
 800117a:	f7ff fb67 	bl	800084c <__aeabi_ddiv>
 800117e:	a356      	add	r3, pc, #344	; (adr r3, 80012d8 <adcToTemp+0x2c8>)
 8001180:	e9d3 2300 	ldrd	r2, r3, [r3]
 8001184:	f7ff f880 	bl	8000288 <__aeabi_dsub>
 8001188:	f7ff fd2e 	bl	8000be8 <__aeabi_d2f>
 800118c:	ee00 0a10 	vmov	s0, r0
}
 8001190:	b005      	add	sp, #20
 8001192:	bdf0      	pop	{r4, r5, r6, r7, pc}
		return((1/(3.3540178E-3+(2.6021087E-4*log(RtRT25))+(3.5946173E-6*pow(log(RtRT25),2))+(-8.5676875E-8*pow(log(RtRT25),3))))-273);
 8001194:	ec45 4b10 	vmov	d0, r4, r5
 8001198:	f008 fe24 	bl	8009de4 <log>
 800119c:	ec51 0b10 	vmov	r0, r1, d0
 80011a0:	ec45 4b10 	vmov	d0, r4, r5
 80011a4:	e9cd 0102 	strd	r0, r1, [sp, #8]
 80011a8:	f008 fe1c 	bl	8009de4 <log>
 80011ac:	ec57 6b10 	vmov	r6, r7, d0
 80011b0:	ec45 4b10 	vmov	d0, r4, r5
 80011b4:	f008 fe16 	bl	8009de4 <log>
 80011b8:	ed9f 1b3d 	vldr	d1, [pc, #244]	; 80012b0 <adcToTemp+0x2a0>
 80011bc:	f008 fe92 	bl	8009ee4 <pow>
 80011c0:	a347      	add	r3, pc, #284	; (adr r3, 80012e0 <adcToTemp+0x2d0>)
 80011c2:	e9d3 2300 	ldrd	r2, r3, [r3]
 80011c6:	e9dd 0102 	ldrd	r0, r1, [sp, #8]
 80011ca:	ed8d 0b00 	vstr	d0, [sp]
 80011ce:	f7ff fa13 	bl	80005f8 <__aeabi_dmul>
 80011d2:	a345      	add	r3, pc, #276	; (adr r3, 80012e8 <adcToTemp+0x2d8>)
 80011d4:	e9d3 2300 	ldrd	r2, r3, [r3]
 80011d8:	f7ff f858 	bl	800028c <__adddf3>
 80011dc:	4632      	mov	r2, r6
 80011de:	4604      	mov	r4, r0
 80011e0:	460d      	mov	r5, r1
 80011e2:	463b      	mov	r3, r7
 80011e4:	4630      	mov	r0, r6
 80011e6:	4639      	mov	r1, r7
 80011e8:	f7ff fa06 	bl	80005f8 <__aeabi_dmul>
 80011ec:	a340      	add	r3, pc, #256	; (adr r3, 80012f0 <adcToTemp+0x2e0>)
 80011ee:	e9d3 2300 	ldrd	r2, r3, [r3]
 80011f2:	f7ff fa01 	bl	80005f8 <__aeabi_dmul>
 80011f6:	4602      	mov	r2, r0
 80011f8:	460b      	mov	r3, r1
 80011fa:	4620      	mov	r0, r4
 80011fc:	4629      	mov	r1, r5
 80011fe:	f7ff f845 	bl	800028c <__adddf3>
 8001202:	a33d      	add	r3, pc, #244	; (adr r3, 80012f8 <adcToTemp+0x2e8>)
 8001204:	e9d3 2300 	ldrd	r2, r3, [r3]
 8001208:	4604      	mov	r4, r0
 800120a:	460d      	mov	r5, r1
 800120c:	e7a5      	b.n	800115a <adcToTemp+0x14a>
		return((1/(3.3531474E-3+(2.5743868E-4*log(RtRT25))+(1.7022402E-6*pow(log(RtRT25),2))+(-8.8297492E-8*pow(log(RtRT25),3))))-273);
 800120e:	ec45 4b10 	vmov	d0, r4, r5
 8001212:	f008 fde7 	bl	8009de4 <log>
 8001216:	ec51 0b10 	vmov	r0, r1, d0
 800121a:	ec45 4b10 	vmov	d0, r4, r5
 800121e:	e9cd 0102 	strd	r0, r1, [sp, #8]
 8001222:	f008 fddf 	bl	8009de4 <log>
 8001226:	ec57 6b10 	vmov	r6, r7, d0
 800122a:	ec45 4b10 	vmov	d0, r4, r5
 800122e:	f008 fdd9 	bl	8009de4 <log>
 8001232:	ed9f 1b1f 	vldr	d1, [pc, #124]	; 80012b0 <adcToTemp+0x2a0>
 8001236:	f008 fe55 	bl	8009ee4 <pow>
 800123a:	a331      	add	r3, pc, #196	; (adr r3, 8001300 <adcToTemp+0x2f0>)
 800123c:	e9d3 2300 	ldrd	r2, r3, [r3]
 8001240:	e9dd 0102 	ldrd	r0, r1, [sp, #8]
 8001244:	ed8d 0b00 	vstr	d0, [sp]
 8001248:	f7ff f9d6 	bl	80005f8 <__aeabi_dmul>
 800124c:	a32e      	add	r3, pc, #184	; (adr r3, 8001308 <adcToTemp+0x2f8>)
 800124e:	e9d3 2300 	ldrd	r2, r3, [r3]
 8001252:	f7ff f81b 	bl	800028c <__adddf3>
 8001256:	4632      	mov	r2, r6
 8001258:	4604      	mov	r4, r0
 800125a:	460d      	mov	r5, r1
 800125c:	463b      	mov	r3, r7
 800125e:	4630      	mov	r0, r6
 8001260:	4639      	mov	r1, r7
 8001262:	f7ff f9c9 	bl	80005f8 <__aeabi_dmul>
 8001266:	a32a      	add	r3, pc, #168	; (adr r3, 8001310 <adcToTemp+0x300>)
 8001268:	e9d3 2300 	ldrd	r2, r3, [r3]
 800126c:	f7ff f9c4 	bl	80005f8 <__aeabi_dmul>
 8001270:	4602      	mov	r2, r0
 8001272:	460b      	mov	r3, r1
 8001274:	4620      	mov	r0, r4
 8001276:	4629      	mov	r1, r5
 8001278:	f7ff f808 	bl	800028c <__adddf3>
 800127c:	a326      	add	r3, pc, #152	; (adr r3, 8001318 <adcToTemp+0x308>)
 800127e:	e9d3 2300 	ldrd	r2, r3, [r3]
 8001282:	4604      	mov	r4, r0
 8001284:	460d      	mov	r5, r1
 8001286:	e768      	b.n	800115a <adcToTemp+0x14a>
 8001288:	e147ae14 	.word	0xe147ae14
 800128c:	404e147a 	.word	0x404e147a
 8001290:	28f5c28f 	.word	0x28f5c28f
 8001294:	40098f5c 	.word	0x40098f5c
 8001298:	ef34d6a1 	.word	0xef34d6a1
 800129c:	3fd74538 	.word	0x3fd74538
 80012a0:	62a1b5c8 	.word	0x62a1b5c8
 80012a4:	3fb1bf9c 	.word	0x3fb1bf9c
 80012a8:	c1bda512 	.word	0xc1bda512
 80012ac:	3f932617 	.word	0x3f932617
 80012b0:	00000000 	.word	0x00000000
 80012b4:	40080000 	.word	0x40080000
 80012b8:	e68ad796 	.word	0xe68ad796
 80012bc:	3f30f9d0 	.word	0x3f30f9d0
 80012c0:	2651f0b0 	.word	0x2651f0b0
 80012c4:	3f6b7b05 	.word	0x3f6b7b05
 80012c8:	17e9b45e 	.word	0x17e9b45e
 80012cc:	3ed19623 	.word	0x3ed19623
 80012d0:	2d59f69c 	.word	0x2d59f69c
 80012d4:	be73314a 	.word	0xbe73314a
 80012d8:	00000000 	.word	0x00000000
 80012dc:	40711000 	.word	0x40711000
 80012e0:	2d3d1c0b 	.word	0x2d3d1c0b
 80012e4:	3f310d9d 	.word	0x3f310d9d
 80012e8:	985bc406 	.word	0x985bc406
 80012ec:	3f6b79e2 	.word	0x3f6b79e2
 80012f0:	c2668e6a 	.word	0xc2668e6a
 80012f4:	3ece2761 	.word	0x3ece2761
 80012f8:	86530344 	.word	0x86530344
 80012fc:	be76ffab 	.word	0xbe76ffab
 8001300:	b6196c0a 	.word	0xb6196c0a
 8001304:	3f30df1a 	.word	0x3f30df1a
 8001308:	4d7e4cb2 	.word	0x4d7e4cb2
 800130c:	3f6b780f 	.word	0x3f6b780f
 8001310:	e4a6a429 	.word	0xe4a6a429
 8001314:	3ebc8f10 	.word	0x3ebc8f10
 8001318:	e811a6aa 	.word	0xe811a6aa
 800131c:	be77b3c1 	.word	0xbe77b3c1
 8001320:	457ff000 	.word	0x457ff000
 8001324:	461c4000 	.word	0x461c4000
 8001328:	46ea6000 	.word	0x46ea6000
 800132c:	437f0000 	.word	0x437f0000
 8001330:	3ff00000 	.word	0x3ff00000
		return((1/(3.3547977E-3+(2.5879299E-4*log(RtRT25))+(1.8964602E-6*pow(log(RtRT25),2))+(-1.1884916E-7*pow(log(RtRT25),3))))-273);
 8001334:	ec45 4b10 	vmov	d0, r4, r5
 8001338:	f008 fd54 	bl	8009de4 <log>
 800133c:	ec51 0b10 	vmov	r0, r1, d0
 8001340:	ec45 4b10 	vmov	d0, r4, r5
 8001344:	e9cd 0102 	strd	r0, r1, [sp, #8]
 8001348:	f008 fd4c 	bl	8009de4 <log>
 800134c:	ec57 6b10 	vmov	r6, r7, d0
 8001350:	ec45 4b10 	vmov	d0, r4, r5
 8001354:	f008 fd46 	bl	8009de4 <log>
 8001358:	ed9f 1b15 	vldr	d1, [pc, #84]	; 80013b0 <adcToTemp+0x3a0>
 800135c:	f008 fdc2 	bl	8009ee4 <pow>
 8001360:	a315      	add	r3, pc, #84	; (adr r3, 80013b8 <adcToTemp+0x3a8>)
 8001362:	e9d3 2300 	ldrd	r2, r3, [r3]
 8001366:	e9dd 0102 	ldrd	r0, r1, [sp, #8]
 800136a:	ed8d 0b00 	vstr	d0, [sp]
 800136e:	f7ff f943 	bl	80005f8 <__aeabi_dmul>
 8001372:	a313      	add	r3, pc, #76	; (adr r3, 80013c0 <adcToTemp+0x3b0>)
 8001374:	e9d3 2300 	ldrd	r2, r3, [r3]
 8001378:	f7fe ff88 	bl	800028c <__adddf3>
 800137c:	4632      	mov	r2, r6
 800137e:	4604      	mov	r4, r0
 8001380:	460d      	mov	r5, r1
 8001382:	463b      	mov	r3, r7
 8001384:	4630      	mov	r0, r6
 8001386:	4639      	mov	r1, r7
 8001388:	f7ff f936 	bl	80005f8 <__aeabi_dmul>
 800138c:	a30e      	add	r3, pc, #56	; (adr r3, 80013c8 <adcToTemp+0x3b8>)
 800138e:	e9d3 2300 	ldrd	r2, r3, [r3]
 8001392:	f7ff f931 	bl	80005f8 <__aeabi_dmul>
 8001396:	4602      	mov	r2, r0
 8001398:	460b      	mov	r3, r1
 800139a:	4620      	mov	r0, r4
 800139c:	4629      	mov	r1, r5
 800139e:	f7fe ff75 	bl	800028c <__adddf3>
 80013a2:	a30b      	add	r3, pc, #44	; (adr r3, 80013d0 <adcToTemp+0x3c0>)
 80013a4:	e9d3 2300 	ldrd	r2, r3, [r3]
 80013a8:	4604      	mov	r4, r0
 80013aa:	460d      	mov	r5, r1
 80013ac:	e6d5      	b.n	800115a <adcToTemp+0x14a>
 80013ae:	bf00      	nop
 80013b0:	00000000 	.word	0x00000000
 80013b4:	40080000 	.word	0x40080000
 80013b8:	6db1218b 	.word	0x6db1218b
 80013bc:	3f30f5d3 	.word	0x3f30f5d3
 80013c0:	4cff8ecb 	.word	0x4cff8ecb
 80013c4:	3f6b7b85 	.word	0x3f6b7b85
 80013c8:	0aa0b008 	.word	0x0aa0b008
 80013cc:	3ebfd13c 	.word	0x3ebfd13c
 80013d0:	88b075bc 	.word	0x88b075bc
 80013d4:	be7fe740 	.word	0xbe7fe740

080013d8 <appLevelComProcessor>:

void appLevelComProcessor ( com_t *driver )
{
 80013d8:	e92d 4ff0 	stmdb	sp!, {r4, r5, r6, r7, r8, r9, sl, fp, lr}
	if ( strstr ( ( char* ) driver->rxBuffer, "AT+PIDPRM=" ) != 0 )
 80013dc:	f100 0510 	add.w	r5, r0, #16
{
 80013e0:	b087      	sub	sp, #28
 80013e2:	4604      	mov	r4, r0
	if ( strstr ( ( char* ) driver->rxBuffer, "AT+PIDPRM=" ) != 0 )
 80013e4:	494b      	ldr	r1, [pc, #300]	; (8001514 <appLevelComProcessor+0x13c>)
 80013e6:	4628      	mov	r0, r5
 80013e8:	f005 ff5d 	bl	80072a6 <strstr>
 80013ec:	bb48      	cbnz	r0, 8001442 <appLevelComProcessor+0x6a>
		pidChangeCoefficients ( &pid, kpLocal, kiLocal, kdLocal, tsLocal );

		strcpy ( ( char* ) driver->txBuffer, "OK\r\n" );
		driver->txIndex = strlen ( ( char* ) driver->txBuffer );
	}
	else if ( strstr ( ( char* ) driver->rxBuffer, "AT+SETPOINT=" ) != 0 )
 80013ee:	494a      	ldr	r1, [pc, #296]	; (8001518 <appLevelComProcessor+0x140>)
 80013f0:	4628      	mov	r0, r5
 80013f2:	f005 ff58 	bl	80072a6 <strstr>
 80013f6:	4606      	mov	r6, r0
 80013f8:	b968      	cbnz	r0, 8001416 <appLevelComProcessor+0x3e>
		temperatureSetPoint = atof ( ( char* ) driver->rxBuffer + 12 );

		strcpy ( ( char* ) driver->txBuffer, "OK\r\n" );
		driver->txIndex = strlen ( ( char* ) driver->txBuffer );
	}
	else if ( strstr ( ( char* ) driver->rxBuffer, "AT+CONTROL=" ) != 0 )
 80013fa:	4948      	ldr	r1, [pc, #288]	; (800151c <appLevelComProcessor+0x144>)
 80013fc:	4628      	mov	r0, r5
 80013fe:	f005 ff52 	bl	80072a6 <strstr>
 8001402:	2800      	cmp	r0, #0
 8001404:	d069      	beq.n	80014da <appLevelComProcessor+0x102>
	{
		if ( driver->rxBuffer [ 11 ] == '1' )
 8001406:	7ee3      	ldrb	r3, [r4, #27]
 8001408:	2b31      	cmp	r3, #49	; 0x31
		{
			controlActivation = TRUE;
 800140a:	4b45      	ldr	r3, [pc, #276]	; (8001520 <appLevelComProcessor+0x148>)
 800140c:	bf06      	itte	eq
 800140e:	2201      	moveq	r2, #1
 8001410:	701a      	strbeq	r2, [r3, #0]
		}
		else
		{
			controlActivation = FALSE;
 8001412:	701e      	strbne	r6, [r3, #0]
 8001414:	e055      	b.n	80014c2 <appLevelComProcessor+0xea>
		temperatureSetPoint = atof ( ( char* ) driver->rxBuffer + 12 );
 8001416:	f104 001c 	add.w	r0, r4, #28
 800141a:	f005 f9bd 	bl	8006798 <atof>
 800141e:	ec51 0b10 	vmov	r0, r1, d0
 8001422:	f7ff fbe1 	bl	8000be8 <__aeabi_d2f>
		strcpy ( ( char* ) driver->txBuffer, "OK\r\n" );
 8001426:	4b3f      	ldr	r3, [pc, #252]	; (8001524 <appLevelComProcessor+0x14c>)
		temperatureSetPoint = atof ( ( char* ) driver->rxBuffer + 12 );
 8001428:	4a3f      	ldr	r2, [pc, #252]	; (8001528 <appLevelComProcessor+0x150>)
 800142a:	6010      	str	r0, [r2, #0]
		strcpy ( ( char* ) driver->txBuffer, "OK\r\n" );
 800142c:	791a      	ldrb	r2, [r3, #4]
 800142e:	6818      	ldr	r0, [r3, #0]
 8001430:	f8c4 0110 	str.w	r0, [r4, #272]	; 0x110
		driver->txIndex = strlen ( ( char* ) driver->txBuffer );
 8001434:	2304      	movs	r3, #4
		strcpy ( ( char* ) driver->txBuffer, "OK\r\n" );
 8001436:	f884 2114 	strb.w	r2, [r4, #276]	; 0x114
		driver->txIndex = strlen ( ( char* ) driver->txBuffer );
 800143a:	6063      	str	r3, [r4, #4]
	{

		sprintf ( ( char* ) driver->txBuffer, "+TEMPERATURE=%.2f,%d\r\n", temperatureFiltered, ( int ) HAL_GetTick ( ) );
		driver->txIndex = strlen ( ( char* ) driver->txBuffer );
	}
}
 800143c:	b007      	add	sp, #28
 800143e:	e8bd 8ff0 	ldmia.w	sp!, {r4, r5, r6, r7, r8, r9, sl, fp, pc}
		tempPtr += ( strlen ( "AT+PIDPRM=" ) );
 8001442:	f104 051a 	add.w	r5, r4, #26
		kpLocal = atof ( tempPtr );
 8001446:	4628      	mov	r0, r5
 8001448:	f005 f9a6 	bl	8006798 <atof>
		tempPtr = strstr ( tempPtr, "," ) + 1;
 800144c:	212c      	movs	r1, #44	; 0x2c
 800144e:	4628      	mov	r0, r5
		kpLocal = atof ( tempPtr );
 8001450:	ec57 6b10 	vmov	r6, r7, d0
		tempPtr = strstr ( tempPtr, "," ) + 1;
 8001454:	f005 ff1a 	bl	800728c <strchr>
 8001458:	1c45      	adds	r5, r0, #1
		kiLocal = atof ( tempPtr );
 800145a:	4628      	mov	r0, r5
 800145c:	f005 f99c 	bl	8006798 <atof>
		tempPtr = strstr ( tempPtr, "," ) + 1;
 8001460:	212c      	movs	r1, #44	; 0x2c
 8001462:	4628      	mov	r0, r5
		kiLocal = atof ( tempPtr );
 8001464:	ec59 8b10 	vmov	r8, r9, d0
		tempPtr = strstr ( tempPtr, "," ) + 1;
 8001468:	f005 ff10 	bl	800728c <strchr>
 800146c:	1c45      	adds	r5, r0, #1
		kdLocal = atof ( tempPtr );
 800146e:	4628      	mov	r0, r5
 8001470:	f005 f992 	bl	8006798 <atof>
		tempPtr = strstr ( tempPtr, "," ) + 1;
 8001474:	212c      	movs	r1, #44	; 0x2c
 8001476:	4628      	mov	r0, r5
		kdLocal = atof ( tempPtr );
 8001478:	ec5b ab10 	vmov	sl, fp, d0
		tempPtr = strstr ( tempPtr, "," ) + 1;
 800147c:	f005 ff06 	bl	800728c <strchr>
		tsLocal = atof ( tempPtr );
 8001480:	3001      	adds	r0, #1
 8001482:	f005 f989 	bl	8006798 <atof>
 8001486:	ec51 0b10 	vmov	r0, r1, d0
 800148a:	f7ff fbad 	bl	8000be8 <__aeabi_d2f>
		kdLocal = atof ( tempPtr );
 800148e:	4659      	mov	r1, fp
		tsLocal = atof ( tempPtr );
 8001490:	9005      	str	r0, [sp, #20]
		kdLocal = atof ( tempPtr );
 8001492:	4650      	mov	r0, sl
 8001494:	f7ff fba8 	bl	8000be8 <__aeabi_d2f>
		kiLocal = atof ( tempPtr );
 8001498:	4649      	mov	r1, r9
		kdLocal = atof ( tempPtr );
 800149a:	9004      	str	r0, [sp, #16]
		kiLocal = atof ( tempPtr );
 800149c:	4640      	mov	r0, r8
 800149e:	f7ff fba3 	bl	8000be8 <__aeabi_d2f>
		kpLocal = atof ( tempPtr );
 80014a2:	4639      	mov	r1, r7
		kiLocal = atof ( tempPtr );
 80014a4:	9003      	str	r0, [sp, #12]
		kpLocal = atof ( tempPtr );
 80014a6:	4630      	mov	r0, r6
 80014a8:	f7ff fb9e 	bl	8000be8 <__aeabi_d2f>
		pidChangeCoefficients ( &pid, kpLocal, kiLocal, kdLocal, tsLocal );
 80014ac:	eddd 1a05 	vldr	s3, [sp, #20]
 80014b0:	ed9d 1a04 	vldr	s2, [sp, #16]
 80014b4:	eddd 0a03 	vldr	s1, [sp, #12]
 80014b8:	ee00 0a10 	vmov	s0, r0
 80014bc:	481b      	ldr	r0, [pc, #108]	; (800152c <appLevelComProcessor+0x154>)
 80014be:	f000 fd87 	bl	8001fd0 <pidChangeCoefficients>
		strcpy ( ( char* ) driver->txBuffer, "OK\r\n" );
 80014c2:	4b18      	ldr	r3, [pc, #96]	; (8001524 <appLevelComProcessor+0x14c>)
 80014c4:	6818      	ldr	r0, [r3, #0]
 80014c6:	791b      	ldrb	r3, [r3, #4]
 80014c8:	f8c4 0110 	str.w	r0, [r4, #272]	; 0x110
		driver->txIndex = strlen ( ( char* )driver->txBuffer );
 80014cc:	2204      	movs	r2, #4
		strcpy ( ( char* ) driver->txBuffer, "OK\r\n" );
 80014ce:	f884 3114 	strb.w	r3, [r4, #276]	; 0x114
		driver->txIndex = strlen ( ( char* )driver->txBuffer );
 80014d2:	6062      	str	r2, [r4, #4]
}
 80014d4:	b007      	add	sp, #28
 80014d6:	e8bd 8ff0 	ldmia.w	sp!, {r4, r5, r6, r7, r8, r9, sl, fp, pc}
	else if ( strstr ( ( char* ) driver->rxBuffer, "AT+TEMPERATURE?" ) != 0 )
 80014da:	4628      	mov	r0, r5
 80014dc:	4914      	ldr	r1, [pc, #80]	; (8001530 <appLevelComProcessor+0x158>)
 80014de:	f005 fee2 	bl	80072a6 <strstr>
 80014e2:	2800      	cmp	r0, #0
 80014e4:	d0aa      	beq.n	800143c <appLevelComProcessor+0x64>
		sprintf ( ( char* ) driver->txBuffer, "+TEMPERATURE=%.2f,%d\r\n", temperatureFiltered, ( int ) HAL_GetTick ( ) );
 80014e6:	4b13      	ldr	r3, [pc, #76]	; (8001534 <appLevelComProcessor+0x15c>)
 80014e8:	6818      	ldr	r0, [r3, #0]
 80014ea:	f7ff f82d 	bl	8000548 <__aeabi_f2d>
 80014ee:	460f      	mov	r7, r1
 80014f0:	4606      	mov	r6, r0
 80014f2:	f000 fe25 	bl	8002140 <HAL_GetTick>
 80014f6:	f504 7588 	add.w	r5, r4, #272	; 0x110
 80014fa:	9000      	str	r0, [sp, #0]
 80014fc:	4632      	mov	r2, r6
 80014fe:	463b      	mov	r3, r7
 8001500:	490d      	ldr	r1, [pc, #52]	; (8001538 <appLevelComProcessor+0x160>)
 8001502:	4628      	mov	r0, r5
 8001504:	f005 fea2 	bl	800724c <siprintf>
		driver->txIndex = strlen ( ( char* ) driver->txBuffer );
 8001508:	4628      	mov	r0, r5
 800150a:	f7fe fe61 	bl	80001d0 <strlen>
 800150e:	6060      	str	r0, [r4, #4]
}
 8001510:	e794      	b.n	800143c <appLevelComProcessor+0x64>
 8001512:	bf00      	nop
 8001514:	0800b318 	.word	0x0800b318
 8001518:	0800b32c 	.word	0x0800b32c
 800151c:	0800b33c 	.word	0x0800b33c
 8001520:	20000228 	.word	0x20000228
 8001524:	0800b324 	.word	0x0800b324
 8001528:	20000004 	.word	0x20000004
 800152c:	2000024c 	.word	0x2000024c
 8001530:	0800b348 	.word	0x0800b348
 8001534:	20000230 	.word	0x20000230
 8001538:	0800b358 	.word	0x0800b358

0800153c <SystemClock_Config>:
/**
  * @brief System Clock Configuration
  * @retval None
  */
void SystemClock_Config(void)
{
 800153c:	b570      	push	{r4, r5, r6, lr}
  RCC_OscInitTypeDef RCC_OscInitStruct = {0};
 800153e:	2400      	movs	r4, #0
{
 8001540:	b098      	sub	sp, #96	; 0x60
  RCC_OscInitTypeDef RCC_OscInitStruct = {0};
 8001542:	e9cd 440e 	strd	r4, r4, [sp, #56]	; 0x38
 8001546:	e9cd 4410 	strd	r4, r4, [sp, #64]	; 0x40
  RCC_ClkInitTypeDef RCC_ClkInitStruct = {0};
 800154a:	e9cd 4408 	strd	r4, r4, [sp, #32]
 800154e:	e9cd 440a 	strd	r4, r4, [sp, #40]	; 0x28
  RCC_PeriphCLKInitTypeDef PeriphClkInitStruct = {0};
 8001552:	e9cd 4404 	strd	r4, r4, [sp, #16]

  /** Configure the main internal regulator output voltage 
  */
  __HAL_RCC_PWR_CLK_ENABLE();
 8001556:	4a22      	ldr	r2, [pc, #136]	; (80015e0 <SystemClock_Config+0xa4>)
 8001558:	9401      	str	r4, [sp, #4]
  RCC_ClkInitTypeDef RCC_ClkInitStruct = {0};
 800155a:	9407      	str	r4, [sp, #28]
  RCC_PeriphCLKInitTypeDef PeriphClkInitStruct = {0};
 800155c:	9403      	str	r4, [sp, #12]
 800155e:	9406      	str	r4, [sp, #24]
  __HAL_RCC_PWR_CLK_ENABLE();
 8001560:	6c11      	ldr	r1, [r2, #64]	; 0x40
  __HAL_PWR_VOLTAGESCALING_CONFIG(PWR_REGULATOR_VOLTAGE_SCALE1);
 8001562:	4b20      	ldr	r3, [pc, #128]	; (80015e4 <SystemClock_Config+0xa8>)
  __HAL_RCC_PWR_CLK_ENABLE();
 8001564:	f041 5180 	orr.w	r1, r1, #268435456	; 0x10000000
 8001568:	6411      	str	r1, [r2, #64]	; 0x40
 800156a:	6c12      	ldr	r2, [r2, #64]	; 0x40
 800156c:	f002 5280 	and.w	r2, r2, #268435456	; 0x10000000
 8001570:	9201      	str	r2, [sp, #4]
 8001572:	9a01      	ldr	r2, [sp, #4]
  __HAL_PWR_VOLTAGESCALING_CONFIG(PWR_REGULATOR_VOLTAGE_SCALE1);
 8001574:	9402      	str	r4, [sp, #8]
 8001576:	681a      	ldr	r2, [r3, #0]
 8001578:	f442 4280 	orr.w	r2, r2, #16384	; 0x4000
 800157c:	601a      	str	r2, [r3, #0]
 800157e:	681b      	ldr	r3, [r3, #0]
 8001580:	f403 4380 	and.w	r3, r3, #16384	; 0x4000
 8001584:	9302      	str	r3, [sp, #8]
  /** Initializes the CPU, AHB and APB busses clocks 
  */
  RCC_OscInitStruct.OscillatorType = RCC_OSCILLATORTYPE_HSE;
 8001586:	2601      	movs	r6, #1
  RCC_OscInitStruct.HSEState = RCC_HSE_ON;
 8001588:	f44f 3380 	mov.w	r3, #65536	; 0x10000
 800158c:	e9cd 630c 	strd	r6, r3, [sp, #48]	; 0x30
  RCC_OscInitStruct.PLL.PLLState = RCC_PLL_ON;
  RCC_OscInitStruct.PLL.PLLSource = RCC_PLLSOURCE_HSE;
 8001590:	f44f 0280 	mov.w	r2, #4194304	; 0x400000
  RCC_OscInitStruct.PLL.PLLM = 8;
 8001594:	2308      	movs	r3, #8
  RCC_OscInitStruct.PLL.PLLState = RCC_PLL_ON;
 8001596:	2502      	movs	r5, #2
  RCC_OscInitStruct.PLL.PLLSource = RCC_PLLSOURCE_HSE;
 8001598:	9213      	str	r2, [sp, #76]	; 0x4c
  RCC_OscInitStruct.PLL.PLLM = 8;
 800159a:	9314      	str	r3, [sp, #80]	; 0x50
  RCC_OscInitStruct.PLL.PLLN = 336;
 800159c:	f44f 72a8 	mov.w	r2, #336	; 0x150
  RCC_OscInitStruct.PLL.PLLP = RCC_PLLP_DIV2;
  RCC_OscInitStruct.PLL.PLLQ = 7;
 80015a0:	2307      	movs	r3, #7
  if (HAL_RCC_OscConfig(&RCC_OscInitStruct) != HAL_OK)
 80015a2:	a80c      	add	r0, sp, #48	; 0x30
  __HAL_PWR_VOLTAGESCALING_CONFIG(PWR_REGULATOR_VOLTAGE_SCALE1);
 80015a4:	9902      	ldr	r1, [sp, #8]
  RCC_OscInitStruct.PLL.PLLState = RCC_PLL_ON;
 80015a6:	9512      	str	r5, [sp, #72]	; 0x48
  RCC_OscInitStruct.PLL.PLLP = RCC_PLLP_DIV2;
 80015a8:	9516      	str	r5, [sp, #88]	; 0x58
  RCC_OscInitStruct.PLL.PLLN = 336;
 80015aa:	9215      	str	r2, [sp, #84]	; 0x54
  RCC_OscInitStruct.PLL.PLLQ = 7;
 80015ac:	9317      	str	r3, [sp, #92]	; 0x5c
  if (HAL_RCC_OscConfig(&RCC_OscInitStruct) != HAL_OK)
 80015ae:	f002 fb91 	bl	8003cd4 <HAL_RCC_OscConfig>
  {
    Error_Handler();
  }
  /** Initializes the CPU, AHB and APB busses clocks 
  */
  RCC_ClkInitStruct.ClockType = RCC_CLOCKTYPE_HCLK|RCC_CLOCKTYPE_SYSCLK
 80015b2:	210f      	movs	r1, #15
                              |RCC_CLOCKTYPE_PCLK1|RCC_CLOCKTYPE_PCLK2;
  RCC_ClkInitStruct.SYSCLKSource = RCC_SYSCLKSOURCE_PLLCLK;
  RCC_ClkInitStruct.AHBCLKDivider = RCC_SYSCLK_DIV1;
  RCC_ClkInitStruct.APB1CLKDivider = RCC_HCLK_DIV4;
 80015b4:	f44f 52a0 	mov.w	r2, #5120	; 0x1400
  RCC_ClkInitStruct.APB2CLKDivider = RCC_HCLK_DIV2;
 80015b8:	f44f 5380 	mov.w	r3, #4096	; 0x1000
  RCC_ClkInitStruct.ClockType = RCC_CLOCKTYPE_HCLK|RCC_CLOCKTYPE_SYSCLK
 80015bc:	e9cd 1507 	strd	r1, r5, [sp, #28]

  if (HAL_RCC_ClockConfig(&RCC_ClkInitStruct, FLASH_LATENCY_5) != HAL_OK)
 80015c0:	a807      	add	r0, sp, #28
 80015c2:	2105      	movs	r1, #5
  RCC_ClkInitStruct.APB2CLKDivider = RCC_HCLK_DIV2;
 80015c4:	e9cd 230a 	strd	r2, r3, [sp, #40]	; 0x28
  RCC_ClkInitStruct.AHBCLKDivider = RCC_SYSCLK_DIV1;
 80015c8:	9409      	str	r4, [sp, #36]	; 0x24
  if (HAL_RCC_ClockConfig(&RCC_ClkInitStruct, FLASH_LATENCY_5) != HAL_OK)
 80015ca:	f002 fd97 	bl	80040fc <HAL_RCC_ClockConfig>
  {
    Error_Handler();
  }
  PeriphClkInitStruct.PeriphClockSelection = RCC_PERIPHCLK_I2S;
  PeriphClkInitStruct.PLLI2S.PLLI2SN = 192;
 80015ce:	23c0      	movs	r3, #192	; 0xc0
  PeriphClkInitStruct.PLLI2S.PLLI2SR = 2;
  if (HAL_RCCEx_PeriphCLKConfig(&PeriphClkInitStruct) != HAL_OK)
 80015d0:	a803      	add	r0, sp, #12
  PeriphClkInitStruct.PeriphClockSelection = RCC_PERIPHCLK_I2S;
 80015d2:	9603      	str	r6, [sp, #12]
  PeriphClkInitStruct.PLLI2S.PLLI2SN = 192;
 80015d4:	e9cd 3504 	strd	r3, r5, [sp, #16]
  if (HAL_RCCEx_PeriphCLKConfig(&PeriphClkInitStruct) != HAL_OK)
 80015d8:	f002 fe4e 	bl	8004278 <HAL_RCCEx_PeriphCLKConfig>
  {
    Error_Handler();
  }
}
 80015dc:	b018      	add	sp, #96	; 0x60
 80015de:	bd70      	pop	{r4, r5, r6, pc}
 80015e0:	40023800 	.word	0x40023800
 80015e4:	40007000 	.word	0x40007000

080015e8 <main>:
{
 80015e8:	e92d 4880 	stmdb	sp!, {r7, fp, lr}
  * @param None
  * @retval None
  */
static void MX_GPIO_Init(void)
{
  GPIO_InitTypeDef GPIO_InitStruct = {0};
 80015ec:	2400      	movs	r4, #0
{
 80015ee:	b091      	sub	sp, #68	; 0x44
  HAL_Init();
 80015f0:	f000 fd80 	bl	80020f4 <HAL_Init>
  SystemClock_Config();
 80015f4:	f7ff ffa2 	bl	800153c <SystemClock_Config>
  GPIO_InitTypeDef GPIO_InitStruct = {0};
 80015f8:	e9cd 4409 	strd	r4, r4, [sp, #36]	; 0x24
 80015fc:	e9cd 440b 	strd	r4, r4, [sp, #44]	; 0x2c

  /* GPIO Ports Clock Enable */
  __HAL_RCC_GPIOE_CLK_ENABLE();
 8001600:	4eb8      	ldr	r6, [pc, #736]	; (80018e4 <main+0x2fc>)
 8001602:	9401      	str	r4, [sp, #4]
  GPIO_InitTypeDef GPIO_InitStruct = {0};
 8001604:	940d      	str	r4, [sp, #52]	; 0x34
  __HAL_RCC_GPIOE_CLK_ENABLE();
 8001606:	6b33      	ldr	r3, [r6, #48]	; 0x30
  __HAL_RCC_GPIOA_CLK_ENABLE();
  __HAL_RCC_GPIOB_CLK_ENABLE();
  __HAL_RCC_GPIOD_CLK_ENABLE();

  /*Configure GPIO pin Output Level */
  HAL_GPIO_WritePin(CS_I2C_SPI_GPIO_Port, CS_I2C_SPI_Pin, GPIO_PIN_RESET);
 8001608:	48b7      	ldr	r0, [pc, #732]	; (80018e8 <main+0x300>)
  GPIO_InitStruct.Alternate = GPIO_AF5_SPI2;
  HAL_GPIO_Init(PDM_OUT_GPIO_Port, &GPIO_InitStruct);

  /*Configure GPIO pin : B1_Pin */
  GPIO_InitStruct.Pin = B1_Pin;
  GPIO_InitStruct.Mode = GPIO_MODE_EVT_RISING;
 800160a:	f8df 8334 	ldr.w	r8, [pc, #820]	; 8001940 <main+0x358>
  hadc1.Instance = ADC1;
 800160e:	4fb7      	ldr	r7, [pc, #732]	; (80018ec <main+0x304>)
  __HAL_RCC_GPIOE_CLK_ENABLE();
 8001610:	f043 0310 	orr.w	r3, r3, #16
 8001614:	6333      	str	r3, [r6, #48]	; 0x30
 8001616:	6b33      	ldr	r3, [r6, #48]	; 0x30
 8001618:	f003 0310 	and.w	r3, r3, #16
 800161c:	9301      	str	r3, [sp, #4]
 800161e:	9b01      	ldr	r3, [sp, #4]
  __HAL_RCC_GPIOC_CLK_ENABLE();
 8001620:	9402      	str	r4, [sp, #8]
 8001622:	6b33      	ldr	r3, [r6, #48]	; 0x30
 8001624:	f043 0304 	orr.w	r3, r3, #4
 8001628:	6333      	str	r3, [r6, #48]	; 0x30
 800162a:	6b33      	ldr	r3, [r6, #48]	; 0x30
 800162c:	f003 0304 	and.w	r3, r3, #4
 8001630:	9302      	str	r3, [sp, #8]
 8001632:	9b02      	ldr	r3, [sp, #8]
  __HAL_RCC_GPIOH_CLK_ENABLE();
 8001634:	9403      	str	r4, [sp, #12]
 8001636:	6b33      	ldr	r3, [r6, #48]	; 0x30
 8001638:	f043 0380 	orr.w	r3, r3, #128	; 0x80
 800163c:	6333      	str	r3, [r6, #48]	; 0x30
 800163e:	6b33      	ldr	r3, [r6, #48]	; 0x30
 8001640:	f003 0380 	and.w	r3, r3, #128	; 0x80
 8001644:	9303      	str	r3, [sp, #12]
 8001646:	9b03      	ldr	r3, [sp, #12]
  __HAL_RCC_GPIOA_CLK_ENABLE();
 8001648:	9404      	str	r4, [sp, #16]
 800164a:	6b33      	ldr	r3, [r6, #48]	; 0x30
 800164c:	f043 0301 	orr.w	r3, r3, #1
 8001650:	6333      	str	r3, [r6, #48]	; 0x30
 8001652:	6b33      	ldr	r3, [r6, #48]	; 0x30
 8001654:	f003 0301 	and.w	r3, r3, #1
 8001658:	9304      	str	r3, [sp, #16]
 800165a:	9b04      	ldr	r3, [sp, #16]
  __HAL_RCC_GPIOB_CLK_ENABLE();
 800165c:	9405      	str	r4, [sp, #20]
 800165e:	6b33      	ldr	r3, [r6, #48]	; 0x30
 8001660:	f043 0302 	orr.w	r3, r3, #2
 8001664:	6333      	str	r3, [r6, #48]	; 0x30
 8001666:	6b33      	ldr	r3, [r6, #48]	; 0x30
 8001668:	f003 0302 	and.w	r3, r3, #2
 800166c:	9305      	str	r3, [sp, #20]
 800166e:	9b05      	ldr	r3, [sp, #20]
  __HAL_RCC_GPIOD_CLK_ENABLE();
 8001670:	9406      	str	r4, [sp, #24]
 8001672:	6b33      	ldr	r3, [r6, #48]	; 0x30
 8001674:	f043 0308 	orr.w	r3, r3, #8
 8001678:	6333      	str	r3, [r6, #48]	; 0x30
 800167a:	6b33      	ldr	r3, [r6, #48]	; 0x30
 800167c:	f003 0308 	and.w	r3, r3, #8
  HAL_GPIO_WritePin(CS_I2C_SPI_GPIO_Port, CS_I2C_SPI_Pin, GPIO_PIN_RESET);
 8001680:	4622      	mov	r2, r4
  __HAL_RCC_GPIOD_CLK_ENABLE();
 8001682:	9306      	str	r3, [sp, #24]
  HAL_GPIO_WritePin(CS_I2C_SPI_GPIO_Port, CS_I2C_SPI_Pin, GPIO_PIN_RESET);
 8001684:	2108      	movs	r1, #8
  __HAL_RCC_GPIOD_CLK_ENABLE();
 8001686:	9b06      	ldr	r3, [sp, #24]
  HAL_GPIO_WritePin(CS_I2C_SPI_GPIO_Port, CS_I2C_SPI_Pin, GPIO_PIN_RESET);
 8001688:	f001 faf0 	bl	8002c6c <HAL_GPIO_WritePin>
  HAL_GPIO_WritePin(OTG_FS_PowerSwitchOn_GPIO_Port, OTG_FS_PowerSwitchOn_Pin, GPIO_PIN_SET);
 800168c:	2201      	movs	r2, #1
 800168e:	4611      	mov	r1, r2
 8001690:	4897      	ldr	r0, [pc, #604]	; (80018f0 <main+0x308>)
 8001692:	f001 faeb 	bl	8002c6c <HAL_GPIO_WritePin>
  HAL_GPIO_WritePin(GPIOD, LD4_Pin|LD3_Pin|LD5_Pin|LD6_Pin 
 8001696:	4622      	mov	r2, r4
 8001698:	f24f 0110 	movw	r1, #61456	; 0xf010
 800169c:	4895      	ldr	r0, [pc, #596]	; (80018f4 <main+0x30c>)
 800169e:	f001 fae5 	bl	8002c6c <HAL_GPIO_WritePin>
  GPIO_InitStruct.Mode = GPIO_MODE_OUTPUT_PP;
 80016a2:	f04f 0901 	mov.w	r9, #1
  GPIO_InitStruct.Pin = CS_I2C_SPI_Pin;
 80016a6:	f04f 0b08 	mov.w	fp, #8
  HAL_GPIO_Init(CS_I2C_SPI_GPIO_Port, &GPIO_InitStruct);
 80016aa:	a909      	add	r1, sp, #36	; 0x24
 80016ac:	488e      	ldr	r0, [pc, #568]	; (80018e8 <main+0x300>)
  GPIO_InitStruct.Speed = GPIO_SPEED_FREQ_LOW;
 80016ae:	e9cd 440b 	strd	r4, r4, [sp, #44]	; 0x2c
  GPIO_InitStruct.Mode = GPIO_MODE_OUTPUT_PP;
 80016b2:	e9cd b909 	strd	fp, r9, [sp, #36]	; 0x24
  HAL_GPIO_Init(CS_I2C_SPI_GPIO_Port, &GPIO_InitStruct);
 80016b6:	f001 f9d5 	bl	8002a64 <HAL_GPIO_Init>
  HAL_GPIO_Init(OTG_FS_PowerSwitchOn_GPIO_Port, &GPIO_InitStruct);
 80016ba:	a909      	add	r1, sp, #36	; 0x24
 80016bc:	488c      	ldr	r0, [pc, #560]	; (80018f0 <main+0x308>)
  GPIO_InitStruct.Mode = GPIO_MODE_AF_PP;
 80016be:	2502      	movs	r5, #2
  GPIO_InitStruct.Alternate = GPIO_AF5_SPI2;
 80016c0:	f04f 0a05 	mov.w	sl, #5
  GPIO_InitStruct.Speed = GPIO_SPEED_FREQ_LOW;
 80016c4:	e9cd 440b 	strd	r4, r4, [sp, #44]	; 0x2c
  GPIO_InitStruct.Mode = GPIO_MODE_OUTPUT_PP;
 80016c8:	e9cd 9909 	strd	r9, r9, [sp, #36]	; 0x24
  HAL_GPIO_Init(OTG_FS_PowerSwitchOn_GPIO_Port, &GPIO_InitStruct);
 80016cc:	f001 f9ca 	bl	8002a64 <HAL_GPIO_Init>
  HAL_GPIO_Init(PDM_OUT_GPIO_Port, &GPIO_InitStruct);
 80016d0:	a909      	add	r1, sp, #36	; 0x24
 80016d2:	4887      	ldr	r0, [pc, #540]	; (80018f0 <main+0x308>)
  GPIO_InitStruct.Mode = GPIO_MODE_AF_PP;
 80016d4:	950a      	str	r5, [sp, #40]	; 0x28
  GPIO_InitStruct.Speed = GPIO_SPEED_FREQ_LOW;
 80016d6:	e9cd 440b 	strd	r4, r4, [sp, #44]	; 0x2c
  GPIO_InitStruct.Pin = PDM_OUT_Pin;
 80016da:	f8cd b024 	str.w	fp, [sp, #36]	; 0x24
  GPIO_InitStruct.Alternate = GPIO_AF5_SPI2;
 80016de:	f8cd a034 	str.w	sl, [sp, #52]	; 0x34
  HAL_GPIO_Init(PDM_OUT_GPIO_Port, &GPIO_InitStruct);
 80016e2:	f001 f9bf 	bl	8002a64 <HAL_GPIO_Init>
  GPIO_InitStruct.Pull = GPIO_NOPULL;
  HAL_GPIO_Init(B1_GPIO_Port, &GPIO_InitStruct);
 80016e6:	a909      	add	r1, sp, #36	; 0x24
 80016e8:	4883      	ldr	r0, [pc, #524]	; (80018f8 <main+0x310>)
  GPIO_InitStruct.Pin = B1_Pin;
 80016ea:	f8cd 9024 	str.w	r9, [sp, #36]	; 0x24
  GPIO_InitStruct.Mode = GPIO_MODE_EVT_RISING;
 80016ee:	e9cd 840a 	strd	r8, r4, [sp, #40]	; 0x28
  HAL_GPIO_Init(B1_GPIO_Port, &GPIO_InitStruct);
 80016f2:	f001 f9b7 	bl	8002a64 <HAL_GPIO_Init>

  /*Configure GPIO pin : BOOT1_Pin */
  GPIO_InitStruct.Pin = BOOT1_Pin;
 80016f6:	2304      	movs	r3, #4
  GPIO_InitStruct.Mode = GPIO_MODE_INPUT;
  GPIO_InitStruct.Pull = GPIO_NOPULL;
  HAL_GPIO_Init(BOOT1_GPIO_Port, &GPIO_InitStruct);
 80016f8:	a909      	add	r1, sp, #36	; 0x24
 80016fa:	4880      	ldr	r0, [pc, #512]	; (80018fc <main+0x314>)
  GPIO_InitStruct.Pin = BOOT1_Pin;
 80016fc:	9309      	str	r3, [sp, #36]	; 0x24
  GPIO_InitStruct.Pull = GPIO_NOPULL;
 80016fe:	e9cd 440a 	strd	r4, r4, [sp, #40]	; 0x28
  HAL_GPIO_Init(BOOT1_GPIO_Port, &GPIO_InitStruct);
 8001702:	f001 f9af 	bl	8002a64 <HAL_GPIO_Init>

  /*Configure GPIO pin : CLK_IN_Pin */
  GPIO_InitStruct.Pin = CLK_IN_Pin;
 8001706:	f44f 6380 	mov.w	r3, #1024	; 0x400
  GPIO_InitStruct.Mode = GPIO_MODE_AF_PP;
  GPIO_InitStruct.Pull = GPIO_NOPULL;
  GPIO_InitStruct.Speed = GPIO_SPEED_FREQ_LOW;
  GPIO_InitStruct.Alternate = GPIO_AF5_SPI2;
  HAL_GPIO_Init(CLK_IN_GPIO_Port, &GPIO_InitStruct);
 800170a:	a909      	add	r1, sp, #36	; 0x24
 800170c:	487b      	ldr	r0, [pc, #492]	; (80018fc <main+0x314>)
  GPIO_InitStruct.Pin = CLK_IN_Pin;
 800170e:	9309      	str	r3, [sp, #36]	; 0x24
  GPIO_InitStruct.Pull = GPIO_NOPULL;
 8001710:	e9cd 540a 	strd	r5, r4, [sp, #40]	; 0x28
  GPIO_InitStruct.Alternate = GPIO_AF5_SPI2;
 8001714:	e9cd 4a0c 	strd	r4, sl, [sp, #48]	; 0x30
  HAL_GPIO_Init(CLK_IN_GPIO_Port, &GPIO_InitStruct);
 8001718:	f001 f9a4 	bl	8002a64 <HAL_GPIO_Init>

  /*Configure GPIO pins : LD4_Pin LD3_Pin LD5_Pin LD6_Pin 
                           Audio_RST_Pin */
  GPIO_InitStruct.Pin = LD4_Pin|LD3_Pin|LD5_Pin|LD6_Pin 
 800171c:	f24f 0310 	movw	r3, #61456	; 0xf010
                          |Audio_RST_Pin;
  GPIO_InitStruct.Mode = GPIO_MODE_OUTPUT_PP;
  GPIO_InitStruct.Pull = GPIO_NOPULL;
  GPIO_InitStruct.Speed = GPIO_SPEED_FREQ_LOW;
  HAL_GPIO_Init(GPIOD, &GPIO_InitStruct);
 8001720:	a909      	add	r1, sp, #36	; 0x24
 8001722:	4874      	ldr	r0, [pc, #464]	; (80018f4 <main+0x30c>)
  GPIO_InitStruct.Speed = GPIO_SPEED_FREQ_LOW;
 8001724:	940c      	str	r4, [sp, #48]	; 0x30
  GPIO_InitStruct.Pull = GPIO_NOPULL;
 8001726:	e9cd 940a 	strd	r9, r4, [sp, #40]	; 0x28
  GPIO_InitStruct.Pin = LD4_Pin|LD3_Pin|LD5_Pin|LD6_Pin 
 800172a:	9309      	str	r3, [sp, #36]	; 0x24
  HAL_GPIO_Init(GPIOD, &GPIO_InitStruct);
 800172c:	f001 f99a 	bl	8002a64 <HAL_GPIO_Init>

  /*Configure GPIO pin : OTG_FS_OverCurrent_Pin */
  GPIO_InitStruct.Pin = OTG_FS_OverCurrent_Pin;
 8001730:	2320      	movs	r3, #32
  GPIO_InitStruct.Mode = GPIO_MODE_INPUT;
  GPIO_InitStruct.Pull = GPIO_NOPULL;
  HAL_GPIO_Init(OTG_FS_OverCurrent_GPIO_Port, &GPIO_InitStruct);
 8001732:	a909      	add	r1, sp, #36	; 0x24
 8001734:	486f      	ldr	r0, [pc, #444]	; (80018f4 <main+0x30c>)
  GPIO_InitStruct.Pin = OTG_FS_OverCurrent_Pin;
 8001736:	9309      	str	r3, [sp, #36]	; 0x24
  GPIO_InitStruct.Pull = GPIO_NOPULL;
 8001738:	e9cd 440a 	strd	r4, r4, [sp, #40]	; 0x28
  HAL_GPIO_Init(OTG_FS_OverCurrent_GPIO_Port, &GPIO_InitStruct);
 800173c:	f001 f992 	bl	8002a64 <HAL_GPIO_Init>

  /*Configure GPIO pin : MEMS_INT2_Pin */
  GPIO_InitStruct.Pin = MEMS_INT2_Pin;
  GPIO_InitStruct.Mode = GPIO_MODE_EVT_RISING;
  GPIO_InitStruct.Pull = GPIO_NOPULL;
  HAL_GPIO_Init(MEMS_INT2_GPIO_Port, &GPIO_InitStruct);
 8001740:	a909      	add	r1, sp, #36	; 0x24
 8001742:	4869      	ldr	r0, [pc, #420]	; (80018e8 <main+0x300>)
  GPIO_InitStruct.Pull = GPIO_NOPULL;
 8001744:	940b      	str	r4, [sp, #44]	; 0x2c
  GPIO_InitStruct.Pin = MEMS_INT2_Pin;
 8001746:	e9cd 5809 	strd	r5, r8, [sp, #36]	; 0x24
  HAL_GPIO_Init(MEMS_INT2_GPIO_Port, &GPIO_InitStruct);
 800174a:	f001 f98b 	bl	8002a64 <HAL_GPIO_Init>
  hi2c1.Instance = I2C1;
 800174e:	4b6c      	ldr	r3, [pc, #432]	; (8001900 <main+0x318>)
 8001750:	486c      	ldr	r0, [pc, #432]	; (8001904 <main+0x31c>)
  hi2c1.Init.ClockSpeed = 100000;
 8001752:	496d      	ldr	r1, [pc, #436]	; (8001908 <main+0x320>)
  hi2c1.Instance = I2C1;
 8001754:	6018      	str	r0, [r3, #0]
  hi2c1.Init.AddressingMode = I2C_ADDRESSINGMODE_7BIT;
 8001756:	f44f 4280 	mov.w	r2, #16384	; 0x4000
  if (HAL_I2C_Init(&hi2c1) != HAL_OK)
 800175a:	4618      	mov	r0, r3
  hi2c1.Init.DutyCycle = I2C_DUTYCYCLE_2;
 800175c:	609c      	str	r4, [r3, #8]
  hi2c1.Init.OwnAddress1 = 0;
 800175e:	60dc      	str	r4, [r3, #12]
  hi2c1.Init.OwnAddress2 = 0;
 8001760:	e9c3 4405 	strd	r4, r4, [r3, #20]
  hi2c1.Init.NoStretchMode = I2C_NOSTRETCH_DISABLE;
 8001764:	e9c3 4407 	strd	r4, r4, [r3, #28]
  hi2c1.Init.ClockSpeed = 100000;
 8001768:	6059      	str	r1, [r3, #4]
  hi2c1.Init.AddressingMode = I2C_ADDRESSINGMODE_7BIT;
 800176a:	611a      	str	r2, [r3, #16]
  if (HAL_I2C_Init(&hi2c1) != HAL_OK)
 800176c:	f001 ff90 	bl	8003690 <HAL_I2C_Init>
  hi2s3.Instance = SPI3;
 8001770:	4b66      	ldr	r3, [pc, #408]	; (800190c <main+0x324>)
 8001772:	4967      	ldr	r1, [pc, #412]	; (8001910 <main+0x328>)
  hi2s3.Init.AudioFreq = I2S_AUDIOFREQ_96K;
 8001774:	4a67      	ldr	r2, [pc, #412]	; (8001914 <main+0x32c>)
  hi2s3.Init.Standard = I2S_STANDARD_PHILIPS;
 8001776:	609c      	str	r4, [r3, #8]
  hi2s3.Init.Mode = I2S_MODE_MASTER_TX;
 8001778:	f44f 7500 	mov.w	r5, #512	; 0x200
  if (HAL_I2S_Init(&hi2s3) != HAL_OK)
 800177c:	4618      	mov	r0, r3
  hi2s3.Init.DataFormat = I2S_DATAFORMAT_16B;
 800177e:	60dc      	str	r4, [r3, #12]
  hi2s3.Init.ClockSource = I2S_CLOCK_PLL;
 8001780:	e9c3 4406 	strd	r4, r4, [r3, #24]
  hi2s3.Init.FullDuplexMode = I2S_FULLDUPLEXMODE_DISABLE;
 8001784:	621c      	str	r4, [r3, #32]
  hi2s3.Instance = SPI3;
 8001786:	6019      	str	r1, [r3, #0]
  hi2s3.Init.AudioFreq = I2S_AUDIOFREQ_96K;
 8001788:	615a      	str	r2, [r3, #20]
  hi2s3.Init.Mode = I2S_MODE_MASTER_TX;
 800178a:	605d      	str	r5, [r3, #4]
  hi2s3.Init.MCLKOutput = I2S_MCLKOUTPUT_ENABLE;
 800178c:	611d      	str	r5, [r3, #16]
  if (HAL_I2S_Init(&hi2s3) != HAL_OK)
 800178e:	f002 f83f 	bl	8003810 <HAL_I2S_Init>
  hspi1.Instance = SPI1;
 8001792:	4b61      	ldr	r3, [pc, #388]	; (8001918 <main+0x330>)
 8001794:	4861      	ldr	r0, [pc, #388]	; (800191c <main+0x334>)
 8001796:	6018      	str	r0, [r3, #0]
  hspi1.Init.Mode = SPI_MODE_MASTER;
 8001798:	f44f 7182 	mov.w	r1, #260	; 0x104
  hspi1.Init.CRCPolynomial = 10;
 800179c:	220a      	movs	r2, #10
  if (HAL_SPI_Init(&hspi1) != HAL_OK)
 800179e:	4618      	mov	r0, r3
  hspi1.Init.NSS = SPI_NSS_SOFT;
 80017a0:	619d      	str	r5, [r3, #24]
  hspi1.Init.DataSize = SPI_DATASIZE_8BIT;
 80017a2:	e9c3 4402 	strd	r4, r4, [r3, #8]
  hspi1.Init.CLKPhase = SPI_PHASE_1EDGE;
 80017a6:	e9c3 4404 	strd	r4, r4, [r3, #16]
  hspi1.Init.FirstBit = SPI_FIRSTBIT_MSB;
 80017aa:	e9c3 4407 	strd	r4, r4, [r3, #28]
  hspi1.Init.CRCCalculation = SPI_CRCCALCULATION_DISABLE;
 80017ae:	e9c3 4409 	strd	r4, r4, [r3, #36]	; 0x24
  hspi1.Init.Mode = SPI_MODE_MASTER;
 80017b2:	6059      	str	r1, [r3, #4]
  hspi1.Init.CRCPolynomial = 10;
 80017b4:	62da      	str	r2, [r3, #44]	; 0x2c
  if (HAL_SPI_Init(&hspi1) != HAL_OK)
 80017b6:	f002 fe2f 	bl	8004418 <HAL_SPI_Init>
  MX_USB_HOST_Init();
 80017ba:	f004 fe8b 	bl	80064d4 <MX_USB_HOST_Init>
  __HAL_RCC_DMA2_CLK_ENABLE();
 80017be:	9400      	str	r4, [sp, #0]
 80017c0:	6b33      	ldr	r3, [r6, #48]	; 0x30
  htim3.Instance = TIM3;
 80017c2:	f8df 8180 	ldr.w	r8, [pc, #384]	; 8001944 <main+0x35c>
  huart2.Instance = USART2;
 80017c6:	4d56      	ldr	r5, [pc, #344]	; (8001920 <main+0x338>)
  __HAL_RCC_DMA2_CLK_ENABLE();
 80017c8:	f443 0380 	orr.w	r3, r3, #4194304	; 0x400000
 80017cc:	6333      	str	r3, [r6, #48]	; 0x30
 80017ce:	6b33      	ldr	r3, [r6, #48]	; 0x30
 80017d0:	4e54      	ldr	r6, [pc, #336]	; (8001924 <main+0x33c>)
 80017d2:	f403 0380 	and.w	r3, r3, #4194304	; 0x400000
  HAL_NVIC_SetPriority(DMA2_Stream0_IRQn, 0, 0);
 80017d6:	4622      	mov	r2, r4
 80017d8:	4621      	mov	r1, r4
  __HAL_RCC_DMA2_CLK_ENABLE();
 80017da:	9300      	str	r3, [sp, #0]
  HAL_NVIC_SetPriority(DMA2_Stream0_IRQn, 0, 0);
 80017dc:	2038      	movs	r0, #56	; 0x38
  __HAL_RCC_DMA2_CLK_ENABLE();
 80017de:	9b00      	ldr	r3, [sp, #0]
  HAL_NVIC_SetPriority(DMA2_Stream0_IRQn, 0, 0);
 80017e0:	f000 ff22 	bl	8002628 <HAL_NVIC_SetPriority>
  HAL_NVIC_EnableIRQ(DMA2_Stream0_IRQn);
 80017e4:	2038      	movs	r0, #56	; 0x38
 80017e6:	f000 ff55 	bl	8002694 <HAL_NVIC_EnableIRQ>
  hadc1.Init.ClockPrescaler = ADC_CLOCK_SYNC_PCLK_DIV4;
 80017ea:	f44f 3280 	mov.w	r2, #65536	; 0x10000
  hadc1.Instance = ADC1;
 80017ee:	494e      	ldr	r1, [pc, #312]	; (8001928 <main+0x340>)
  hadc1.Init.ExternalTrigConv = ADC_SOFTWARE_START;
 80017f0:	4b4e      	ldr	r3, [pc, #312]	; (800192c <main+0x344>)
  hadc1.Init.ClockPrescaler = ADC_CLOCK_SYNC_PCLK_DIV4;
 80017f2:	607a      	str	r2, [r7, #4]
  if (HAL_ADC_Init(&hadc1) != HAL_OK)
 80017f4:	4638      	mov	r0, r7
  hadc1.Init.Resolution = ADC_RESOLUTION_12B;
 80017f6:	60bc      	str	r4, [r7, #8]
  hadc1.Init.ScanConvMode = DISABLE;
 80017f8:	613c      	str	r4, [r7, #16]
  hadc1.Init.DiscontinuousConvMode = DISABLE;
 80017fa:	f887 4020 	strb.w	r4, [r7, #32]
  hadc1.Init.ExternalTrigConvEdge = ADC_EXTERNALTRIGCONVEDGE_NONE;
 80017fe:	62fc      	str	r4, [r7, #44]	; 0x2c
  hadc1.Init.DataAlign = ADC_DATAALIGN_RIGHT;
 8001800:	60fc      	str	r4, [r7, #12]
  hadc1.Instance = ADC1;
 8001802:	6039      	str	r1, [r7, #0]
  hadc1.Init.ExternalTrigConv = ADC_SOFTWARE_START;
 8001804:	62bb      	str	r3, [r7, #40]	; 0x28
  ADC_ChannelConfTypeDef sConfig = {0};
 8001806:	9409      	str	r4, [sp, #36]	; 0x24
 8001808:	e9cd 440a 	strd	r4, r4, [sp, #40]	; 0x28
 800180c:	940c      	str	r4, [sp, #48]	; 0x30
  hadc1.Init.ContinuousConvMode = ENABLE;
 800180e:	f887 9018 	strb.w	r9, [r7, #24]
  hadc1.Init.NbrOfConversion = 1;
 8001812:	f8c7 901c 	str.w	r9, [r7, #28]
  hadc1.Init.DMAContinuousRequests = ENABLE;
 8001816:	f887 9030 	strb.w	r9, [r7, #48]	; 0x30
  hadc1.Init.EOCSelection = ADC_EOC_SINGLE_CONV;
 800181a:	f8c7 9014 	str.w	r9, [r7, #20]
  if (HAL_ADC_Init(&hadc1) != HAL_OK)
 800181e:	f000 fca7 	bl	8002170 <HAL_ADC_Init>
  sConfig.SamplingTime = ADC_SAMPLETIME_144CYCLES;
 8001822:	2306      	movs	r3, #6
  if (HAL_ADC_ConfigChannel(&hadc1, &sConfig) != HAL_OK)
 8001824:	4638      	mov	r0, r7
 8001826:	a909      	add	r1, sp, #36	; 0x24
  sConfig.SamplingTime = ADC_SAMPLETIME_144CYCLES;
 8001828:	930b      	str	r3, [sp, #44]	; 0x2c
  sConfig.Rank = 1;
 800182a:	e9cd 9909 	strd	r9, r9, [sp, #36]	; 0x24
  if (HAL_ADC_ConfigChannel(&hadc1, &sConfig) != HAL_OK)
 800182e:	f000 fe41 	bl	80024b4 <HAL_ADC_ConfigChannel>
  htim3.Instance = TIM3;
 8001832:	4b3f      	ldr	r3, [pc, #252]	; (8001930 <main+0x348>)
 8001834:	f8c8 3000 	str.w	r3, [r8]
  htim3.Init.Period = 999;
 8001838:	f240 32e7 	movw	r2, #999	; 0x3e7
  htim3.Init.AutoReloadPreload = TIM_AUTORELOAD_PRELOAD_ENABLE;
 800183c:	2380      	movs	r3, #128	; 0x80
  htim3.Init.Prescaler = 83;
 800183e:	2153      	movs	r1, #83	; 0x53
  if (HAL_TIM_PWM_Init(&htim3) != HAL_OK)
 8001840:	4640      	mov	r0, r8
  htim3.Init.Period = 999;
 8001842:	f8c8 200c 	str.w	r2, [r8, #12]
  htim3.Init.AutoReloadPreload = TIM_AUTORELOAD_PRELOAD_ENABLE;
 8001846:	f8c8 3018 	str.w	r3, [r8, #24]
  TIM_MasterConfigTypeDef sMasterConfig = {0};
 800184a:	9407      	str	r4, [sp, #28]
  TIM_OC_InitTypeDef sConfigOC = {0};
 800184c:	e9cd 4409 	strd	r4, r4, [sp, #36]	; 0x24
 8001850:	e9cd 440b 	strd	r4, r4, [sp, #44]	; 0x2c
 8001854:	e9cd 440d 	strd	r4, r4, [sp, #52]	; 0x34
 8001858:	940f      	str	r4, [sp, #60]	; 0x3c
  TIM_MasterConfigTypeDef sMasterConfig = {0};
 800185a:	9408      	str	r4, [sp, #32]
  htim3.Init.CounterMode = TIM_COUNTERMODE_UP;
 800185c:	f8c8 4008 	str.w	r4, [r8, #8]
  htim3.Init.ClockDivision = TIM_CLOCKDIVISION_DIV1;
 8001860:	f8c8 4010 	str.w	r4, [r8, #16]
  htim3.Init.Prescaler = 83;
 8001864:	f8c8 1004 	str.w	r1, [r8, #4]
  if (HAL_TIM_PWM_Init(&htim3) != HAL_OK)
 8001868:	f003 f81c 	bl	80048a4 <HAL_TIM_PWM_Init>
  if (HAL_TIMEx_MasterConfigSynchronization(&htim3, &sMasterConfig) != HAL_OK)
 800186c:	a907      	add	r1, sp, #28
 800186e:	4640      	mov	r0, r8
  sMasterConfig.MasterSlaveMode = TIM_MASTERSLAVEMODE_DISABLE;
 8001870:	e9cd 4407 	strd	r4, r4, [sp, #28]
  if (HAL_TIMEx_MasterConfigSynchronization(&htim3, &sMasterConfig) != HAL_OK)
 8001874:	f003 f8e0 	bl	8004a38 <HAL_TIMEx_MasterConfigSynchronization>
  sConfigOC.OCMode = TIM_OCMODE_PWM1;
 8001878:	2360      	movs	r3, #96	; 0x60
  if (HAL_TIM_PWM_ConfigChannel(&htim3, &sConfigOC, TIM_CHANNEL_1) != HAL_OK)
 800187a:	a909      	add	r1, sp, #36	; 0x24
 800187c:	4622      	mov	r2, r4
  sConfigOC.OCMode = TIM_OCMODE_PWM1;
 800187e:	9309      	str	r3, [sp, #36]	; 0x24
  if (HAL_TIM_PWM_ConfigChannel(&htim3, &sConfigOC, TIM_CHANNEL_1) != HAL_OK)
 8001880:	4640      	mov	r0, r8
  sConfigOC.Pulse = 499;
 8001882:	f240 13f3 	movw	r3, #499	; 0x1f3
 8001886:	930a      	str	r3, [sp, #40]	; 0x28
  sConfigOC.OCPolarity = TIM_OCPOLARITY_HIGH;
 8001888:	940b      	str	r4, [sp, #44]	; 0x2c
  sConfigOC.OCFastMode = TIM_OCFAST_DISABLE;
 800188a:	940d      	str	r4, [sp, #52]	; 0x34
  if (HAL_TIM_PWM_ConfigChannel(&htim3, &sConfigOC, TIM_CHANNEL_1) != HAL_OK)
 800188c:	f003 f858 	bl	8004940 <HAL_TIM_PWM_ConfigChannel>
  HAL_TIM_MspPostInit(&htim3);
 8001890:	4640      	mov	r0, r8
 8001892:	f000 fa9b 	bl	8001dcc <HAL_TIM_MspPostInit>
  huart2.Instance = USART2;
 8001896:	4a27      	ldr	r2, [pc, #156]	; (8001934 <main+0x34c>)
  htim7.Instance = TIM7;
 8001898:	4f27      	ldr	r7, [pc, #156]	; (8001938 <main+0x350>)
  huart2.Instance = USART2;
 800189a:	602a      	str	r2, [r5, #0]
  huart2.Init.BaudRate = 115200;
 800189c:	f44f 33e1 	mov.w	r3, #115200	; 0x1c200
  huart2.Init.Mode = UART_MODE_TX_RX;
 80018a0:	220c      	movs	r2, #12
  huart2.Init.BaudRate = 115200;
 80018a2:	606b      	str	r3, [r5, #4]
  if (HAL_UART_Init(&huart2) != HAL_OK)
 80018a4:	4628      	mov	r0, r5
  huart2.Init.OverSampling = UART_OVERSAMPLING_8;
 80018a6:	f44f 4300 	mov.w	r3, #32768	; 0x8000
  huart2.Init.WordLength = UART_WORDLENGTH_8B;
 80018aa:	60ac      	str	r4, [r5, #8]
  huart2.Init.Parity = UART_PARITY_NONE;
 80018ac:	e9c5 4403 	strd	r4, r4, [r5, #12]
  huart2.Init.HwFlowCtl = UART_HWCONTROL_NONE;
 80018b0:	61ac      	str	r4, [r5, #24]
  huart2.Init.Mode = UART_MODE_TX_RX;
 80018b2:	616a      	str	r2, [r5, #20]
  huart2.Init.OverSampling = UART_OVERSAMPLING_8;
 80018b4:	61eb      	str	r3, [r5, #28]
  if (HAL_UART_Init(&huart2) != HAL_OK)
 80018b6:	f003 f981 	bl	8004bbc <HAL_UART_Init>
  htim7.Instance = TIM7;
 80018ba:	4b20      	ldr	r3, [pc, #128]	; (800193c <main+0x354>)
 80018bc:	603b      	str	r3, [r7, #0]
  htim7.Init.Prescaler = 167;
 80018be:	22a7      	movs	r2, #167	; 0xa7
  htim7.Init.Period = 9999;
 80018c0:	f242 730f 	movw	r3, #9999	; 0x270f
  if (HAL_TIM_Base_Init(&htim7) != HAL_OK)
 80018c4:	4638      	mov	r0, r7
  htim7.Init.Period = 9999;
 80018c6:	60fb      	str	r3, [r7, #12]
  htim7.Init.Prescaler = 167;
 80018c8:	607a      	str	r2, [r7, #4]
  htim7.Init.CounterMode = TIM_COUNTERMODE_UP;
 80018ca:	60bc      	str	r4, [r7, #8]
  htim7.Init.AutoReloadPreload = TIM_AUTORELOAD_PRELOAD_DISABLE;
 80018cc:	61bc      	str	r4, [r7, #24]
  TIM_MasterConfigTypeDef sMasterConfig = {0};
 80018ce:	9409      	str	r4, [sp, #36]	; 0x24
 80018d0:	940a      	str	r4, [sp, #40]	; 0x28
  if (HAL_TIM_Base_Init(&htim7) != HAL_OK)
 80018d2:	f002 ffcb 	bl	800486c <HAL_TIM_Base_Init>
  if (HAL_TIMEx_MasterConfigSynchronization(&htim7, &sMasterConfig) != HAL_OK)
 80018d6:	a909      	add	r1, sp, #36	; 0x24
 80018d8:	4638      	mov	r0, r7
  sMasterConfig.MasterSlaveMode = TIM_MASTERSLAVEMODE_DISABLE;
 80018da:	e9cd 4409 	strd	r4, r4, [sp, #36]	; 0x24
  if (HAL_TIMEx_MasterConfigSynchronization(&htim7, &sMasterConfig) != HAL_OK)
 80018de:	f003 f8ab 	bl	8004a38 <HAL_TIMEx_MasterConfigSynchronization>
 80018e2:	e031      	b.n	8001948 <main+0x360>
 80018e4:	40023800 	.word	0x40023800
 80018e8:	40021000 	.word	0x40021000
 80018ec:	20000534 	.word	0x20000534
 80018f0:	40020800 	.word	0x40020800
 80018f4:	40020c00 	.word	0x40020c00
 80018f8:	40020000 	.word	0x40020000
 80018fc:	40020400 	.word	0x40020400
 8001900:	2000028c 	.word	0x2000028c
 8001904:	40005400 	.word	0x40005400
 8001908:	000186a0 	.word	0x000186a0
 800190c:	200006b4 	.word	0x200006b4
 8001910:	40003c00 	.word	0x40003c00
 8001914:	00017700 	.word	0x00017700
 8001918:	200005dc 	.word	0x200005dc
 800191c:	40013000 	.word	0x40013000
 8001920:	20000634 	.word	0x20000634
 8001924:	200002e0 	.word	0x200002e0
 8001928:	40012000 	.word	0x40012000
 800192c:	0f000001 	.word	0x0f000001
 8001930:	40000400 	.word	0x40000400
 8001934:	40004400 	.word	0x40004400
 8001938:	20000674 	.word	0x20000674
 800193c:	40001400 	.word	0x40001400
 8001940:	10120000 	.word	0x10120000
 8001944:	200004f4 	.word	0x200004f4
  HAL_UART_Receive_IT ( &huart2, &u2rx, 1 );
 8001948:	464a      	mov	r2, r9
 800194a:	4924      	ldr	r1, [pc, #144]	; (80019dc <main+0x3f4>)
 800194c:	4628      	mov	r0, r5
 800194e:	f003 f987 	bl	8004c60 <HAL_UART_Receive_IT>
  HAL_TIM_Base_Start_IT ( &htim7 );
 8001952:	4638      	mov	r0, r7
 8001954:	f002 fe2a 	bl	80045ac <HAL_TIM_Base_Start_IT>
  HAL_TIM_PWM_Start ( &htim3, TIM_CHANNEL_1 );
 8001958:	4621      	mov	r1, r4
 800195a:	4640      	mov	r0, r8
 800195c:	f002 fe60 	bl	8004620 <HAL_TIM_PWM_Start>
  __HAL_TIM_SET_COMPARE ( &htim3, TIM_CHANNEL_1, 0 );
 8001960:	f8d8 3000 	ldr.w	r3, [r8]
  pidInit ( &pid, KP, KI, KD, TS, 50, -50, 50, -50, 100, 0 );
 8001964:	eddf 4a1e 	vldr	s9, [pc, #120]	; 80019e0 <main+0x3f8>
 8001968:	eddf 3a1e 	vldr	s7, [pc, #120]	; 80019e4 <main+0x3fc>
 800196c:	ed9f 3a1e 	vldr	s6, [pc, #120]	; 80019e8 <main+0x400>
  __HAL_TIM_SET_COMPARE ( &htim3, TIM_CHANNEL_1, 0 );
 8001970:	635c      	str	r4, [r3, #52]	; 0x34
  pidInit ( &pid, KP, KI, KD, TS, 50, -50, 50, -50, 100, 0 );
 8001972:	eeb0 1a64 	vmov.f32	s2, s9
 8001976:	eef0 2a63 	vmov.f32	s5, s7
 800197a:	eeb0 2a43 	vmov.f32	s4, s6
 800197e:	ed9f 4a1b 	vldr	s8, [pc, #108]	; 80019ec <main+0x404>
 8001982:	eddf 1a1b 	vldr	s3, [pc, #108]	; 80019f0 <main+0x408>
 8001986:	481b      	ldr	r0, [pc, #108]	; (80019f4 <main+0x40c>)
 8001988:	eef7 0a00 	vmov.f32	s1, #112	; 0x3f800000  1.0
 800198c:	eeb2 0a04 	vmov.f32	s0, #36	; 0x41200000  10.0
 8001990:	f000 fb06 	bl	8001fa0 <pidInit>
  comInit ( &com, 5 );
 8001994:	4651      	mov	r1, sl
 8001996:	4630      	mov	r0, r6
 8001998:	f7ff faf6 	bl	8000f88 <comInit>
	  if ( comIsRxBufferReady ( &com ) == TRUE )
 800199c:	4634      	mov	r4, r6
			  HAL_UART_Transmit_IT ( &huart2, com.txBuffer, com.txIndex );
 800199e:	f506 7788 	add.w	r7, r6, #272	; 0x110
 80019a2:	e001      	b.n	80019a8 <main+0x3c0>
    MX_USB_HOST_Process();
 80019a4:	f004 fdb8 	bl	8006518 <MX_USB_HOST_Process>
	  if ( comIsRxBufferReady ( &com ) == TRUE )
 80019a8:	4620      	mov	r0, r4
 80019aa:	f7ff fb27 	bl	8000ffc <comIsRxBufferReady>
 80019ae:	2801      	cmp	r0, #1
 80019b0:	d1f8      	bne.n	80019a4 <main+0x3bc>
		  appLevelComProcessor ( &com );
 80019b2:	4620      	mov	r0, r4
 80019b4:	f7ff fd10 	bl	80013d8 <appLevelComProcessor>
		  if ( comGetTxBufferIndex ( &com ) != 0 )
 80019b8:	4620      	mov	r0, r4
 80019ba:	f7ff fb25 	bl	8001008 <comGetTxBufferIndex>
 80019be:	b918      	cbnz	r0, 80019c8 <main+0x3e0>
		  comRxBufferProcessed ( &com );
 80019c0:	4620      	mov	r0, r4
 80019c2:	f7ff fb1d 	bl	8001000 <comRxBufferProcessed>
 80019c6:	e7ed      	b.n	80019a4 <main+0x3bc>
			  HAL_UART_Transmit_IT ( &huart2, com.txBuffer, com.txIndex );
 80019c8:	4639      	mov	r1, r7
 80019ca:	88b2      	ldrh	r2, [r6, #4]
 80019cc:	4628      	mov	r0, r5
 80019ce:	f003 f925 	bl	8004c1c <HAL_UART_Transmit_IT>
			  comSetTxBufferIndex ( &com, 0 );
 80019d2:	2100      	movs	r1, #0
 80019d4:	4620      	mov	r0, r4
 80019d6:	f7ff fb19 	bl	800100c <comSetTxBufferIndex>
 80019da:	e7f1      	b.n	80019c0 <main+0x3d8>
 80019dc:	20000234 	.word	0x20000234
 80019e0:	00000000 	.word	0x00000000
 80019e4:	c2480000 	.word	0xc2480000
 80019e8:	42480000 	.word	0x42480000
 80019ec:	42c80000 	.word	0x42c80000
 80019f0:	3c23d70a 	.word	0x3c23d70a
 80019f4:	2000024c 	.word	0x2000024c

080019f8 <HAL_TIM_PeriodElapsedCallback>:
}

/* USER CODE BEGIN 4 */

void HAL_TIM_PeriodElapsedCallback(TIM_HandleTypeDef *htim)
{
 80019f8:	b508      	push	{r3, lr}
    if ( htim->Instance == TIM7 )
 80019fa:	6802      	ldr	r2, [r0, #0]
 80019fc:	4b29      	ldr	r3, [pc, #164]	; (8001aa4 <HAL_TIM_PeriodElapsedCallback+0xac>)
 80019fe:	429a      	cmp	r2, r3
 8001a00:	d000      	beq.n	8001a04 <HAL_TIM_PeriodElapsedCallback+0xc>

    	HAL_ADC_Start_DMA ( &hadc1, (uint32_t *)&adcRawValue, 1 );

    	comTimeoutCounter ( &com );
    }
}
 8001a02:	bd08      	pop	{r3, pc}
    	temperature = adcToTemp ( adcRawValue );
 8001a04:	4b28      	ldr	r3, [pc, #160]	; (8001aa8 <HAL_TIM_PeriodElapsedCallback+0xb0>)
 8001a06:	6818      	ldr	r0, [r3, #0]
 8001a08:	f7ff fb02 	bl	8001010 <adcToTemp>
    	temperatureFiltered = ( temperature * filterRate ) +  ( temperatureFiltered * ( 1 - filterRate ) );
 8001a0c:	4a27      	ldr	r2, [pc, #156]	; (8001aac <HAL_TIM_PeriodElapsedCallback+0xb4>)
 8001a0e:	4b28      	ldr	r3, [pc, #160]	; (8001ab0 <HAL_TIM_PeriodElapsedCallback+0xb8>)
 8001a10:	ed92 7a00 	vldr	s14, [r2]
 8001a14:	ed93 6a00 	vldr	s12, [r3]
    	pidControl ( &pid, ( temperatureSetPoint - temperatureFiltered ) );
 8001a18:	4926      	ldr	r1, [pc, #152]	; (8001ab4 <HAL_TIM_PeriodElapsedCallback+0xbc>)
    	temperature = adcToTemp ( adcRawValue );
 8001a1a:	4a27      	ldr	r2, [pc, #156]	; (8001ab8 <HAL_TIM_PeriodElapsedCallback+0xc0>)
    	pidControl ( &pid, ( temperatureSetPoint - temperatureFiltered ) );
 8001a1c:	edd1 6a00 	vldr	s13, [r1]
    	temperature = adcToTemp ( adcRawValue );
 8001a20:	ed82 0a00 	vstr	s0, [r2]
    	temperatureFiltered = ( temperature * filterRate ) +  ( temperatureFiltered * ( 1 - filterRate ) );
 8001a24:	eef7 7a00 	vmov.f32	s15, #112	; 0x3f800000  1.0
 8001a28:	ee77 7ac7 	vsub.f32	s15, s15, s14
    	pidControl ( &pid, ( temperatureSetPoint - temperatureFiltered ) );
 8001a2c:	4823      	ldr	r0, [pc, #140]	; (8001abc <HAL_TIM_PeriodElapsedCallback+0xc4>)
    	temperatureFiltered = ( temperature * filterRate ) +  ( temperatureFiltered * ( 1 - filterRate ) );
 8001a2e:	ee67 7a86 	vmul.f32	s15, s15, s12
 8001a32:	eee0 7a07 	vfma.f32	s15, s0, s14
    	pidControl ( &pid, ( temperatureSetPoint - temperatureFiltered ) );
 8001a36:	ee36 0ae7 	vsub.f32	s0, s13, s15
    	temperatureFiltered = ( temperature * filterRate ) +  ( temperatureFiltered * ( 1 - filterRate ) );
 8001a3a:	edc3 7a00 	vstr	s15, [r3]
    	pidControl ( &pid, ( temperatureSetPoint - temperatureFiltered ) );
 8001a3e:	f000 fad1 	bl	8001fe4 <pidControl>
    	if ( controlActivation == TRUE )
 8001a42:	4b1f      	ldr	r3, [pc, #124]	; (8001ac0 <HAL_TIM_PeriodElapsedCallback+0xc8>)
 8001a44:	781b      	ldrb	r3, [r3, #0]
 8001a46:	2b01      	cmp	r3, #1
 8001a48:	d00d      	beq.n	8001a66 <HAL_TIM_PeriodElapsedCallback+0x6e>
	__HAL_TIM_SET_COMPARE ( &htim3, TIM_CHANNEL_1, (uint32_t) inp * 10 );
 8001a4a:	4b1e      	ldr	r3, [pc, #120]	; (8001ac4 <HAL_TIM_PeriodElapsedCallback+0xcc>)
 8001a4c:	681b      	ldr	r3, [r3, #0]
 8001a4e:	2200      	movs	r2, #0
 8001a50:	635a      	str	r2, [r3, #52]	; 0x34
    	HAL_ADC_Start_DMA ( &hadc1, (uint32_t *)&adcRawValue, 1 );
 8001a52:	2201      	movs	r2, #1
 8001a54:	4914      	ldr	r1, [pc, #80]	; (8001aa8 <HAL_TIM_PeriodElapsedCallback+0xb0>)
 8001a56:	481c      	ldr	r0, [pc, #112]	; (8001ac8 <HAL_TIM_PeriodElapsedCallback+0xd0>)
 8001a58:	f000 fc3c 	bl	80022d4 <HAL_ADC_Start_DMA>
    	comTimeoutCounter ( &com );
 8001a5c:	481b      	ldr	r0, [pc, #108]	; (8001acc <HAL_TIM_PeriodElapsedCallback+0xd4>)
}
 8001a5e:	e8bd 4008 	ldmia.w	sp!, {r3, lr}
    	comTimeoutCounter ( &com );
 8001a62:	f7ff babd 	b.w	8000fe0 <comTimeoutCounter>
    		powerDriver ( pidGetOutput ( &pid ) );
 8001a66:	4815      	ldr	r0, [pc, #84]	; (8001abc <HAL_TIM_PeriodElapsedCallback+0xc4>)
 8001a68:	f000 fb1c 	bl	80020a4 <pidGetOutput>
	if ( inp > 100 )
 8001a6c:	eddf 7a18 	vldr	s15, [pc, #96]	; 8001ad0 <HAL_TIM_PeriodElapsedCallback+0xd8>
 8001a70:	eeb4 0ae7 	vcmpe.f32	s0, s15
 8001a74:	eef1 fa10 	vmrs	APSR_nzcv, fpscr
 8001a78:	dc0f      	bgt.n	8001a9a <HAL_TIM_PeriodElapsedCallback+0xa2>
	else if (inp < 0 )
 8001a7a:	eeb5 0ac0 	vcmpe.f32	s0, #0.0
 8001a7e:	eef1 fa10 	vmrs	APSR_nzcv, fpscr
 8001a82:	d40d      	bmi.n	8001aa0 <HAL_TIM_PeriodElapsedCallback+0xa8>
 8001a84:	eefc 7ac0 	vcvt.u32.f32	s15, s0
 8001a88:	ee17 3a90 	vmov	r3, s15
 8001a8c:	eb03 0383 	add.w	r3, r3, r3, lsl #2
 8001a90:	005b      	lsls	r3, r3, #1
	__HAL_TIM_SET_COMPARE ( &htim3, TIM_CHANNEL_1, (uint32_t) inp * 10 );
 8001a92:	4a0c      	ldr	r2, [pc, #48]	; (8001ac4 <HAL_TIM_PeriodElapsedCallback+0xcc>)
 8001a94:	6812      	ldr	r2, [r2, #0]
 8001a96:	6353      	str	r3, [r2, #52]	; 0x34
 8001a98:	e7db      	b.n	8001a52 <HAL_TIM_PeriodElapsedCallback+0x5a>
	if ( inp > 100 )
 8001a9a:	f240 33de 	movw	r3, #990	; 0x3de
 8001a9e:	e7f8      	b.n	8001a92 <HAL_TIM_PeriodElapsedCallback+0x9a>
	else if (inp < 0 )
 8001aa0:	2300      	movs	r3, #0
 8001aa2:	e7f6      	b.n	8001a92 <HAL_TIM_PeriodElapsedCallback+0x9a>
 8001aa4:	40001400 	.word	0x40001400
 8001aa8:	20000224 	.word	0x20000224
 8001aac:	20000000 	.word	0x20000000
 8001ab0:	20000230 	.word	0x20000230
 8001ab4:	20000004 	.word	0x20000004
 8001ab8:	2000022c 	.word	0x2000022c
 8001abc:	2000024c 	.word	0x2000024c
 8001ac0:	20000228 	.word	0x20000228
 8001ac4:	200004f4 	.word	0x200004f4
 8001ac8:	20000534 	.word	0x20000534
 8001acc:	200002e0 	.word	0x200002e0
 8001ad0:	42c80000 	.word	0x42c80000

08001ad4 <HAL_UART_TxCpltCallback>:
{
    if ( huart->Instance == USART2 )
    {

    }
}
 8001ad4:	4770      	bx	lr
 8001ad6:	bf00      	nop

08001ad8 <HAL_UART_RxCpltCallback>:

void HAL_UART_RxCpltCallback(UART_HandleTypeDef *huart)
{
    if ( huart->Instance == USART2 )
 8001ad8:	6802      	ldr	r2, [r0, #0]
 8001ada:	4b08      	ldr	r3, [pc, #32]	; (8001afc <HAL_UART_RxCpltCallback+0x24>)
 8001adc:	429a      	cmp	r2, r3
 8001ade:	d000      	beq.n	8001ae2 <HAL_UART_RxCpltCallback+0xa>
 8001ae0:	4770      	bx	lr
{
 8001ae2:	b510      	push	{r4, lr}
    {
    	comGetData ( &com, u2rx );
 8001ae4:	4c06      	ldr	r4, [pc, #24]	; (8001b00 <HAL_UART_RxCpltCallback+0x28>)
 8001ae6:	4807      	ldr	r0, [pc, #28]	; (8001b04 <HAL_UART_RxCpltCallback+0x2c>)
 8001ae8:	7821      	ldrb	r1, [r4, #0]
 8001aea:	f7ff fa63 	bl	8000fb4 <comGetData>

        HAL_UART_Receive_IT ( &huart2, &u2rx, 1 );
 8001aee:	4621      	mov	r1, r4
 8001af0:	2201      	movs	r2, #1
 8001af2:	4805      	ldr	r0, [pc, #20]	; (8001b08 <HAL_UART_RxCpltCallback+0x30>)
    }
}
 8001af4:	e8bd 4010 	ldmia.w	sp!, {r4, lr}
        HAL_UART_Receive_IT ( &huart2, &u2rx, 1 );
 8001af8:	f003 b8b2 	b.w	8004c60 <HAL_UART_Receive_IT>
 8001afc:	40004400 	.word	0x40004400
 8001b00:	20000234 	.word	0x20000234
 8001b04:	200002e0 	.word	0x200002e0
 8001b08:	20000634 	.word	0x20000634

08001b0c <Error_Handler>:
{
  /* USER CODE BEGIN Error_Handler_Debug */
  /* User can add his own implementation to report the HAL error return state */

  /* USER CODE END Error_Handler_Debug */
}
 8001b0c:	4770      	bx	lr
 8001b0e:	bf00      	nop

08001b10 <HAL_MspInit>:
void HAL_TIM_MspPostInit(TIM_HandleTypeDef *htim);
                    /**
  * Initializes the Global MSP.
  */
void HAL_MspInit(void)
{
 8001b10:	b082      	sub	sp, #8
  /* USER CODE BEGIN MspInit 0 */

  /* USER CODE END MspInit 0 */

  __HAL_RCC_SYSCFG_CLK_ENABLE();
 8001b12:	4b0c      	ldr	r3, [pc, #48]	; (8001b44 <HAL_MspInit+0x34>)
 8001b14:	2100      	movs	r1, #0
 8001b16:	9100      	str	r1, [sp, #0]
 8001b18:	6c5a      	ldr	r2, [r3, #68]	; 0x44
 8001b1a:	f442 4280 	orr.w	r2, r2, #16384	; 0x4000
 8001b1e:	645a      	str	r2, [r3, #68]	; 0x44
 8001b20:	6c5a      	ldr	r2, [r3, #68]	; 0x44
 8001b22:	f402 4280 	and.w	r2, r2, #16384	; 0x4000
 8001b26:	9200      	str	r2, [sp, #0]
 8001b28:	9a00      	ldr	r2, [sp, #0]
  __HAL_RCC_PWR_CLK_ENABLE();
 8001b2a:	9101      	str	r1, [sp, #4]
 8001b2c:	6c1a      	ldr	r2, [r3, #64]	; 0x40
 8001b2e:	f042 5280 	orr.w	r2, r2, #268435456	; 0x10000000
 8001b32:	641a      	str	r2, [r3, #64]	; 0x40
 8001b34:	6c1b      	ldr	r3, [r3, #64]	; 0x40
 8001b36:	f003 5380 	and.w	r3, r3, #268435456	; 0x10000000
 8001b3a:	9301      	str	r3, [sp, #4]
 8001b3c:	9b01      	ldr	r3, [sp, #4]
  /* System interrupt init*/

  /* USER CODE BEGIN MspInit 1 */

  /* USER CODE END MspInit 1 */
}
 8001b3e:	b002      	add	sp, #8
 8001b40:	4770      	bx	lr
 8001b42:	bf00      	nop
 8001b44:	40023800 	.word	0x40023800

08001b48 <HAL_ADC_MspInit>:
* This function configures the hardware resources used in this example
* @param hadc: ADC handle pointer
* @retval None
*/
void HAL_ADC_MspInit(ADC_HandleTypeDef* hadc)
{
 8001b48:	b570      	push	{r4, r5, r6, lr}
  GPIO_InitTypeDef GPIO_InitStruct = {0};
  if(hadc->Instance==ADC1)
 8001b4a:	6802      	ldr	r2, [r0, #0]
 8001b4c:	4b23      	ldr	r3, [pc, #140]	; (8001bdc <HAL_ADC_MspInit+0x94>)
{
 8001b4e:	b088      	sub	sp, #32
  GPIO_InitTypeDef GPIO_InitStruct = {0};
 8001b50:	2400      	movs	r4, #0
  if(hadc->Instance==ADC1)
 8001b52:	429a      	cmp	r2, r3
  GPIO_InitTypeDef GPIO_InitStruct = {0};
 8001b54:	e9cd 4403 	strd	r4, r4, [sp, #12]
 8001b58:	e9cd 4405 	strd	r4, r4, [sp, #20]
 8001b5c:	9407      	str	r4, [sp, #28]
  if(hadc->Instance==ADC1)
 8001b5e:	d001      	beq.n	8001b64 <HAL_ADC_MspInit+0x1c>
  /* USER CODE BEGIN ADC1_MspInit 1 */

  /* USER CODE END ADC1_MspInit 1 */
  }

}
 8001b60:	b008      	add	sp, #32
 8001b62:	bd70      	pop	{r4, r5, r6, pc}
    __HAL_RCC_ADC1_CLK_ENABLE();
 8001b64:	f503 338c 	add.w	r3, r3, #71680	; 0x11800
 8001b68:	9401      	str	r4, [sp, #4]
 8001b6a:	6c5a      	ldr	r2, [r3, #68]	; 0x44
    hdma_adc1.Instance = DMA2_Stream0;
 8001b6c:	4d1c      	ldr	r5, [pc, #112]	; (8001be0 <HAL_ADC_MspInit+0x98>)
    __HAL_RCC_ADC1_CLK_ENABLE();
 8001b6e:	f442 7280 	orr.w	r2, r2, #256	; 0x100
 8001b72:	645a      	str	r2, [r3, #68]	; 0x44
 8001b74:	6c5a      	ldr	r2, [r3, #68]	; 0x44
 8001b76:	f402 7280 	and.w	r2, r2, #256	; 0x100
 8001b7a:	9201      	str	r2, [sp, #4]
 8001b7c:	9a01      	ldr	r2, [sp, #4]
    __HAL_RCC_GPIOA_CLK_ENABLE();
 8001b7e:	9402      	str	r4, [sp, #8]
 8001b80:	6b1a      	ldr	r2, [r3, #48]	; 0x30
 8001b82:	f042 0201 	orr.w	r2, r2, #1
 8001b86:	631a      	str	r2, [r3, #48]	; 0x30
 8001b88:	6b1b      	ldr	r3, [r3, #48]	; 0x30
 8001b8a:	f003 0301 	and.w	r3, r3, #1
 8001b8e:	9302      	str	r3, [sp, #8]
    GPIO_InitStruct.Pin = GPIO_PIN_1;
 8001b90:	2302      	movs	r3, #2
    HAL_GPIO_Init(GPIOA, &GPIO_InitStruct);
 8001b92:	a903      	add	r1, sp, #12
    GPIO_InitStruct.Pin = GPIO_PIN_1;
 8001b94:	9303      	str	r3, [sp, #12]
 8001b96:	4606      	mov	r6, r0
    GPIO_InitStruct.Mode = GPIO_MODE_ANALOG;
 8001b98:	2303      	movs	r3, #3
    HAL_GPIO_Init(GPIOA, &GPIO_InitStruct);
 8001b9a:	4812      	ldr	r0, [pc, #72]	; (8001be4 <HAL_ADC_MspInit+0x9c>)
    __HAL_RCC_GPIOA_CLK_ENABLE();
 8001b9c:	9a02      	ldr	r2, [sp, #8]
    GPIO_InitStruct.Mode = GPIO_MODE_ANALOG;
 8001b9e:	9304      	str	r3, [sp, #16]
    HAL_GPIO_Init(GPIOA, &GPIO_InitStruct);
 8001ba0:	f000 ff60 	bl	8002a64 <HAL_GPIO_Init>
    hdma_adc1.Instance = DMA2_Stream0;
 8001ba4:	4810      	ldr	r0, [pc, #64]	; (8001be8 <HAL_ADC_MspInit+0xa0>)
 8001ba6:	6028      	str	r0, [r5, #0]
    hdma_adc1.Init.MemInc = DMA_MINC_ENABLE;
 8001ba8:	f44f 6180 	mov.w	r1, #1024	; 0x400
    hdma_adc1.Init.PeriphDataAlignment = DMA_PDATAALIGN_HALFWORD;
 8001bac:	f44f 6200 	mov.w	r2, #2048	; 0x800
    hdma_adc1.Init.MemDataAlignment = DMA_MDATAALIGN_HALFWORD;
 8001bb0:	f44f 5300 	mov.w	r3, #8192	; 0x2000
    if (HAL_DMA_Init(&hdma_adc1) != HAL_OK)
 8001bb4:	4628      	mov	r0, r5
    hdma_adc1.Init.Channel = DMA_CHANNEL_0;
 8001bb6:	606c      	str	r4, [r5, #4]
    hdma_adc1.Init.PeriphInc = DMA_PINC_DISABLE;
 8001bb8:	e9c5 4402 	strd	r4, r4, [r5, #8]
    hdma_adc1.Init.Priority = DMA_PRIORITY_LOW;
 8001bbc:	e9c5 4407 	strd	r4, r4, [r5, #28]
    hdma_adc1.Init.FIFOMode = DMA_FIFOMODE_DISABLE;
 8001bc0:	626c      	str	r4, [r5, #36]	; 0x24
    hdma_adc1.Init.PeriphDataAlignment = DMA_PDATAALIGN_HALFWORD;
 8001bc2:	e9c5 1204 	strd	r1, r2, [r5, #16]
    hdma_adc1.Init.MemDataAlignment = DMA_MDATAALIGN_HALFWORD;
 8001bc6:	61ab      	str	r3, [r5, #24]
    if (HAL_DMA_Init(&hdma_adc1) != HAL_OK)
 8001bc8:	f000 fd8c 	bl	80026e4 <HAL_DMA_Init>
 8001bcc:	b918      	cbnz	r0, 8001bd6 <HAL_ADC_MspInit+0x8e>
    __HAL_LINKDMA(hadc,DMA_Handle,hdma_adc1);
 8001bce:	63b5      	str	r5, [r6, #56]	; 0x38
 8001bd0:	63ae      	str	r6, [r5, #56]	; 0x38
}
 8001bd2:	b008      	add	sp, #32
 8001bd4:	bd70      	pop	{r4, r5, r6, pc}
      Error_Handler();
 8001bd6:	f7ff ff99 	bl	8001b0c <Error_Handler>
 8001bda:	e7f8      	b.n	8001bce <HAL_ADC_MspInit+0x86>
 8001bdc:	40012000 	.word	0x40012000
 8001be0:	2000057c 	.word	0x2000057c
 8001be4:	40020000 	.word	0x40020000
 8001be8:	40026410 	.word	0x40026410

08001bec <HAL_I2C_MspInit>:
* This function configures the hardware resources used in this example
* @param hi2c: I2C handle pointer
* @retval None
*/
void HAL_I2C_MspInit(I2C_HandleTypeDef* hi2c)
{
 8001bec:	b570      	push	{r4, r5, r6, lr}
  GPIO_InitTypeDef GPIO_InitStruct = {0};
  if(hi2c->Instance==I2C1)
 8001bee:	6802      	ldr	r2, [r0, #0]
 8001bf0:	4b17      	ldr	r3, [pc, #92]	; (8001c50 <HAL_I2C_MspInit+0x64>)
{
 8001bf2:	b088      	sub	sp, #32
  GPIO_InitTypeDef GPIO_InitStruct = {0};
 8001bf4:	2400      	movs	r4, #0
  if(hi2c->Instance==I2C1)
 8001bf6:	429a      	cmp	r2, r3
  GPIO_InitTypeDef GPIO_InitStruct = {0};
 8001bf8:	e9cd 4403 	strd	r4, r4, [sp, #12]
 8001bfc:	e9cd 4405 	strd	r4, r4, [sp, #20]
 8001c00:	9407      	str	r4, [sp, #28]
  if(hi2c->Instance==I2C1)
 8001c02:	d001      	beq.n	8001c08 <HAL_I2C_MspInit+0x1c>
  /* USER CODE BEGIN I2C1_MspInit 1 */

  /* USER CODE END I2C1_MspInit 1 */
  }

}
 8001c04:	b008      	add	sp, #32
 8001c06:	bd70      	pop	{r4, r5, r6, pc}
    __HAL_RCC_GPIOB_CLK_ENABLE();
 8001c08:	4d12      	ldr	r5, [pc, #72]	; (8001c54 <HAL_I2C_MspInit+0x68>)
 8001c0a:	9401      	str	r4, [sp, #4]
 8001c0c:	6b2b      	ldr	r3, [r5, #48]	; 0x30
    HAL_GPIO_Init(GPIOB, &GPIO_InitStruct);
 8001c0e:	4812      	ldr	r0, [pc, #72]	; (8001c58 <HAL_I2C_MspInit+0x6c>)
    __HAL_RCC_GPIOB_CLK_ENABLE();
 8001c10:	f043 0302 	orr.w	r3, r3, #2
 8001c14:	632b      	str	r3, [r5, #48]	; 0x30
 8001c16:	6b2b      	ldr	r3, [r5, #48]	; 0x30
 8001c18:	f003 0302 	and.w	r3, r3, #2
 8001c1c:	9301      	str	r3, [sp, #4]
    GPIO_InitStruct.Pin = Audio_SCL_Pin|Audio_SDA_Pin;
 8001c1e:	f44f 7210 	mov.w	r2, #576	; 0x240
    GPIO_InitStruct.Mode = GPIO_MODE_AF_OD;
 8001c22:	2312      	movs	r3, #18
    GPIO_InitStruct.Pin = Audio_SCL_Pin|Audio_SDA_Pin;
 8001c24:	9203      	str	r2, [sp, #12]
    GPIO_InitStruct.Mode = GPIO_MODE_AF_OD;
 8001c26:	9304      	str	r3, [sp, #16]
    GPIO_InitStruct.Pull = GPIO_PULLUP;
 8001c28:	2201      	movs	r2, #1
    GPIO_InitStruct.Alternate = GPIO_AF4_I2C1;
 8001c2a:	2304      	movs	r3, #4
    HAL_GPIO_Init(GPIOB, &GPIO_InitStruct);
 8001c2c:	a903      	add	r1, sp, #12
    GPIO_InitStruct.Alternate = GPIO_AF4_I2C1;
 8001c2e:	9307      	str	r3, [sp, #28]
    __HAL_RCC_GPIOB_CLK_ENABLE();
 8001c30:	9e01      	ldr	r6, [sp, #4]
    GPIO_InitStruct.Pull = GPIO_PULLUP;
 8001c32:	9205      	str	r2, [sp, #20]
    HAL_GPIO_Init(GPIOB, &GPIO_InitStruct);
 8001c34:	f000 ff16 	bl	8002a64 <HAL_GPIO_Init>
    __HAL_RCC_I2C1_CLK_ENABLE();
 8001c38:	9402      	str	r4, [sp, #8]
 8001c3a:	6c2b      	ldr	r3, [r5, #64]	; 0x40
 8001c3c:	f443 1300 	orr.w	r3, r3, #2097152	; 0x200000
 8001c40:	642b      	str	r3, [r5, #64]	; 0x40
 8001c42:	6c2b      	ldr	r3, [r5, #64]	; 0x40
 8001c44:	f403 1300 	and.w	r3, r3, #2097152	; 0x200000
 8001c48:	9302      	str	r3, [sp, #8]
 8001c4a:	9b02      	ldr	r3, [sp, #8]
}
 8001c4c:	b008      	add	sp, #32
 8001c4e:	bd70      	pop	{r4, r5, r6, pc}
 8001c50:	40005400 	.word	0x40005400
 8001c54:	40023800 	.word	0x40023800
 8001c58:	40020400 	.word	0x40020400

08001c5c <HAL_I2S_MspInit>:
* This function configures the hardware resources used in this example
* @param hi2s: I2S handle pointer
* @retval None
*/
void HAL_I2S_MspInit(I2S_HandleTypeDef* hi2s)
{
 8001c5c:	b570      	push	{r4, r5, r6, lr}
  GPIO_InitTypeDef GPIO_InitStruct = {0};
  if(hi2s->Instance==SPI3)
 8001c5e:	6802      	ldr	r2, [r0, #0]
 8001c60:	4b21      	ldr	r3, [pc, #132]	; (8001ce8 <HAL_I2S_MspInit+0x8c>)
{
 8001c62:	b088      	sub	sp, #32
  GPIO_InitTypeDef GPIO_InitStruct = {0};
 8001c64:	2400      	movs	r4, #0
  if(hi2s->Instance==SPI3)
 8001c66:	429a      	cmp	r2, r3
  GPIO_InitTypeDef GPIO_InitStruct = {0};
 8001c68:	e9cd 4403 	strd	r4, r4, [sp, #12]
 8001c6c:	e9cd 4405 	strd	r4, r4, [sp, #20]
 8001c70:	9407      	str	r4, [sp, #28]
  if(hi2s->Instance==SPI3)
 8001c72:	d001      	beq.n	8001c78 <HAL_I2S_MspInit+0x1c>
  /* USER CODE BEGIN SPI3_MspInit 1 */

  /* USER CODE END SPI3_MspInit 1 */
  }

}
 8001c74:	b008      	add	sp, #32
 8001c76:	bd70      	pop	{r4, r5, r6, pc}
    __HAL_RCC_SPI3_CLK_ENABLE();
 8001c78:	f503 33fe 	add.w	r3, r3, #130048	; 0x1fc00
 8001c7c:	9400      	str	r4, [sp, #0]
 8001c7e:	6c1a      	ldr	r2, [r3, #64]	; 0x40
    HAL_GPIO_Init(I2S3_WS_GPIO_Port, &GPIO_InitStruct);
 8001c80:	481a      	ldr	r0, [pc, #104]	; (8001cec <HAL_I2S_MspInit+0x90>)
    __HAL_RCC_SPI3_CLK_ENABLE();
 8001c82:	f442 4200 	orr.w	r2, r2, #32768	; 0x8000
 8001c86:	641a      	str	r2, [r3, #64]	; 0x40
 8001c88:	6c1a      	ldr	r2, [r3, #64]	; 0x40
 8001c8a:	f402 4200 	and.w	r2, r2, #32768	; 0x8000
 8001c8e:	9200      	str	r2, [sp, #0]
 8001c90:	9a00      	ldr	r2, [sp, #0]
    __HAL_RCC_GPIOA_CLK_ENABLE();
 8001c92:	9401      	str	r4, [sp, #4]
 8001c94:	6b1a      	ldr	r2, [r3, #48]	; 0x30
 8001c96:	f042 0201 	orr.w	r2, r2, #1
 8001c9a:	631a      	str	r2, [r3, #48]	; 0x30
 8001c9c:	6b1a      	ldr	r2, [r3, #48]	; 0x30
 8001c9e:	f002 0201 	and.w	r2, r2, #1
 8001ca2:	9201      	str	r2, [sp, #4]
 8001ca4:	9a01      	ldr	r2, [sp, #4]
    __HAL_RCC_GPIOC_CLK_ENABLE();
 8001ca6:	9402      	str	r4, [sp, #8]
 8001ca8:	6b1a      	ldr	r2, [r3, #48]	; 0x30
 8001caa:	f042 0204 	orr.w	r2, r2, #4
 8001cae:	631a      	str	r2, [r3, #48]	; 0x30
 8001cb0:	6b1b      	ldr	r3, [r3, #48]	; 0x30
 8001cb2:	f003 0304 	and.w	r3, r3, #4
 8001cb6:	9302      	str	r3, [sp, #8]
    GPIO_InitStruct.Mode = GPIO_MODE_AF_PP;
 8001cb8:	2602      	movs	r6, #2
    GPIO_InitStruct.Pin = I2S3_WS_Pin;
 8001cba:	2310      	movs	r3, #16
    GPIO_InitStruct.Alternate = GPIO_AF6_SPI3;
 8001cbc:	2506      	movs	r5, #6
    HAL_GPIO_Init(I2S3_WS_GPIO_Port, &GPIO_InitStruct);
 8001cbe:	a903      	add	r1, sp, #12
    __HAL_RCC_GPIOC_CLK_ENABLE();
 8001cc0:	9a02      	ldr	r2, [sp, #8]
    GPIO_InitStruct.Alternate = GPIO_AF6_SPI3;
 8001cc2:	9507      	str	r5, [sp, #28]
    GPIO_InitStruct.Mode = GPIO_MODE_AF_PP;
 8001cc4:	e9cd 3603 	strd	r3, r6, [sp, #12]
    HAL_GPIO_Init(I2S3_WS_GPIO_Port, &GPIO_InitStruct);
 8001cc8:	f000 fecc 	bl	8002a64 <HAL_GPIO_Init>
    GPIO_InitStruct.Pin = I2S3_MCK_Pin|I2S3_SCK_Pin|I2S3_SD_Pin;
 8001ccc:	f44f 53a4 	mov.w	r3, #5248	; 0x1480
    HAL_GPIO_Init(GPIOC, &GPIO_InitStruct);
 8001cd0:	a903      	add	r1, sp, #12
 8001cd2:	4807      	ldr	r0, [pc, #28]	; (8001cf0 <HAL_I2S_MspInit+0x94>)
    GPIO_InitStruct.Mode = GPIO_MODE_AF_PP;
 8001cd4:	9604      	str	r6, [sp, #16]
    GPIO_InitStruct.Alternate = GPIO_AF6_SPI3;
 8001cd6:	9507      	str	r5, [sp, #28]
    GPIO_InitStruct.Speed = GPIO_SPEED_FREQ_LOW;
 8001cd8:	e9cd 4405 	strd	r4, r4, [sp, #20]
    GPIO_InitStruct.Pin = I2S3_MCK_Pin|I2S3_SCK_Pin|I2S3_SD_Pin;
 8001cdc:	9303      	str	r3, [sp, #12]
    HAL_GPIO_Init(GPIOC, &GPIO_InitStruct);
 8001cde:	f000 fec1 	bl	8002a64 <HAL_GPIO_Init>
}
 8001ce2:	b008      	add	sp, #32
 8001ce4:	bd70      	pop	{r4, r5, r6, pc}
 8001ce6:	bf00      	nop
 8001ce8:	40003c00 	.word	0x40003c00
 8001cec:	40020000 	.word	0x40020000
 8001cf0:	40020800 	.word	0x40020800

08001cf4 <HAL_SPI_MspInit>:
* This function configures the hardware resources used in this example
* @param hspi: SPI handle pointer
* @retval None
*/
void HAL_SPI_MspInit(SPI_HandleTypeDef* hspi)
{
 8001cf4:	b530      	push	{r4, r5, lr}
  GPIO_InitTypeDef GPIO_InitStruct = {0};
  if(hspi->Instance==SPI1)
 8001cf6:	6801      	ldr	r1, [r0, #0]
 8001cf8:	4a16      	ldr	r2, [pc, #88]	; (8001d54 <HAL_SPI_MspInit+0x60>)
{
 8001cfa:	b089      	sub	sp, #36	; 0x24
  GPIO_InitTypeDef GPIO_InitStruct = {0};
 8001cfc:	2300      	movs	r3, #0
  if(hspi->Instance==SPI1)
 8001cfe:	4291      	cmp	r1, r2
  GPIO_InitTypeDef GPIO_InitStruct = {0};
 8001d00:	e9cd 3303 	strd	r3, r3, [sp, #12]
 8001d04:	e9cd 3305 	strd	r3, r3, [sp, #20]
 8001d08:	9307      	str	r3, [sp, #28]
  if(hspi->Instance==SPI1)
 8001d0a:	d001      	beq.n	8001d10 <HAL_SPI_MspInit+0x1c>
  /* USER CODE BEGIN SPI1_MspInit 1 */

  /* USER CODE END SPI1_MspInit 1 */
  }

}
 8001d0c:	b009      	add	sp, #36	; 0x24
 8001d0e:	bd30      	pop	{r4, r5, pc}
    __HAL_RCC_SPI1_CLK_ENABLE();
 8001d10:	f502 3284 	add.w	r2, r2, #67584	; 0x10800
 8001d14:	9301      	str	r3, [sp, #4]
 8001d16:	6c51      	ldr	r1, [r2, #68]	; 0x44
    HAL_GPIO_Init(GPIOA, &GPIO_InitStruct);
 8001d18:	480f      	ldr	r0, [pc, #60]	; (8001d58 <HAL_SPI_MspInit+0x64>)
    __HAL_RCC_SPI1_CLK_ENABLE();
 8001d1a:	f441 5180 	orr.w	r1, r1, #4096	; 0x1000
 8001d1e:	6451      	str	r1, [r2, #68]	; 0x44
 8001d20:	6c51      	ldr	r1, [r2, #68]	; 0x44
 8001d22:	f401 5180 	and.w	r1, r1, #4096	; 0x1000
 8001d26:	9101      	str	r1, [sp, #4]
 8001d28:	9901      	ldr	r1, [sp, #4]
    __HAL_RCC_GPIOA_CLK_ENABLE();
 8001d2a:	9302      	str	r3, [sp, #8]
 8001d2c:	6b13      	ldr	r3, [r2, #48]	; 0x30
 8001d2e:	f043 0301 	orr.w	r3, r3, #1
 8001d32:	6313      	str	r3, [r2, #48]	; 0x30
 8001d34:	6b13      	ldr	r3, [r2, #48]	; 0x30
 8001d36:	f003 0301 	and.w	r3, r3, #1
 8001d3a:	9302      	str	r3, [sp, #8]
    GPIO_InitStruct.Mode = GPIO_MODE_AF_PP;
 8001d3c:	2202      	movs	r2, #2
    GPIO_InitStruct.Alternate = GPIO_AF5_SPI1;
 8001d3e:	2305      	movs	r3, #5
    HAL_GPIO_Init(GPIOA, &GPIO_InitStruct);
 8001d40:	a903      	add	r1, sp, #12
    GPIO_InitStruct.Pin = SPI1_SCK_Pin|SPI1_MISO_Pin|SPI1_MOSI_Pin;
 8001d42:	24e0      	movs	r4, #224	; 0xe0
    __HAL_RCC_GPIOA_CLK_ENABLE();
 8001d44:	9d02      	ldr	r5, [sp, #8]
    GPIO_InitStruct.Alternate = GPIO_AF5_SPI1;
 8001d46:	9307      	str	r3, [sp, #28]
    GPIO_InitStruct.Mode = GPIO_MODE_AF_PP;
 8001d48:	e9cd 4203 	strd	r4, r2, [sp, #12]
    HAL_GPIO_Init(GPIOA, &GPIO_InitStruct);
 8001d4c:	f000 fe8a 	bl	8002a64 <HAL_GPIO_Init>
}
 8001d50:	b009      	add	sp, #36	; 0x24
 8001d52:	bd30      	pop	{r4, r5, pc}
 8001d54:	40013000 	.word	0x40013000
 8001d58:	40020000 	.word	0x40020000

08001d5c <HAL_TIM_PWM_MspInit>:
* @param htim_pwm: TIM_PWM handle pointer
* @retval None
*/
void HAL_TIM_PWM_MspInit(TIM_HandleTypeDef* htim_pwm)
{
  if(htim_pwm->Instance==TIM3)
 8001d5c:	6802      	ldr	r2, [r0, #0]
 8001d5e:	4b0a      	ldr	r3, [pc, #40]	; (8001d88 <HAL_TIM_PWM_MspInit+0x2c>)
 8001d60:	429a      	cmp	r2, r3
 8001d62:	d000      	beq.n	8001d66 <HAL_TIM_PWM_MspInit+0xa>
 8001d64:	4770      	bx	lr
{
 8001d66:	b082      	sub	sp, #8
  {
  /* USER CODE BEGIN TIM3_MspInit 0 */

  /* USER CODE END TIM3_MspInit 0 */
    /* Peripheral clock enable */
    __HAL_RCC_TIM3_CLK_ENABLE();
 8001d68:	f503 330d 	add.w	r3, r3, #144384	; 0x23400
 8001d6c:	2200      	movs	r2, #0
 8001d6e:	9201      	str	r2, [sp, #4]
 8001d70:	6c1a      	ldr	r2, [r3, #64]	; 0x40
 8001d72:	f042 0202 	orr.w	r2, r2, #2
 8001d76:	641a      	str	r2, [r3, #64]	; 0x40
 8001d78:	6c1b      	ldr	r3, [r3, #64]	; 0x40
 8001d7a:	f003 0302 	and.w	r3, r3, #2
 8001d7e:	9301      	str	r3, [sp, #4]
 8001d80:	9b01      	ldr	r3, [sp, #4]
  /* USER CODE BEGIN TIM3_MspInit 1 */

  /* USER CODE END TIM3_MspInit 1 */
  }

}
 8001d82:	b002      	add	sp, #8
 8001d84:	4770      	bx	lr
 8001d86:	bf00      	nop
 8001d88:	40000400 	.word	0x40000400

08001d8c <HAL_TIM_Base_MspInit>:
* @param htim_base: TIM_Base handle pointer
* @retval None
*/
void HAL_TIM_Base_MspInit(TIM_HandleTypeDef* htim_base)
{
  if(htim_base->Instance==TIM7)
 8001d8c:	6802      	ldr	r2, [r0, #0]
 8001d8e:	4b0e      	ldr	r3, [pc, #56]	; (8001dc8 <HAL_TIM_Base_MspInit+0x3c>)
 8001d90:	429a      	cmp	r2, r3
 8001d92:	d000      	beq.n	8001d96 <HAL_TIM_Base_MspInit+0xa>
 8001d94:	4770      	bx	lr
{
 8001d96:	b500      	push	{lr}
 8001d98:	b083      	sub	sp, #12
  {
  /* USER CODE BEGIN TIM7_MspInit 0 */

  /* USER CODE END TIM7_MspInit 0 */
    /* Peripheral clock enable */
    __HAL_RCC_TIM7_CLK_ENABLE();
 8001d9a:	2200      	movs	r2, #0
 8001d9c:	f503 3309 	add.w	r3, r3, #140288	; 0x22400
 8001da0:	9201      	str	r2, [sp, #4]
 8001da2:	6c19      	ldr	r1, [r3, #64]	; 0x40
 8001da4:	f041 0120 	orr.w	r1, r1, #32
 8001da8:	6419      	str	r1, [r3, #64]	; 0x40
 8001daa:	6c1b      	ldr	r3, [r3, #64]	; 0x40
 8001dac:	f003 0320 	and.w	r3, r3, #32
 8001db0:	9301      	str	r3, [sp, #4]
    /* TIM7 interrupt Init */
    HAL_NVIC_SetPriority(TIM7_IRQn, 0, 0);
 8001db2:	4611      	mov	r1, r2
 8001db4:	2037      	movs	r0, #55	; 0x37
    __HAL_RCC_TIM7_CLK_ENABLE();
 8001db6:	9b01      	ldr	r3, [sp, #4]
    HAL_NVIC_SetPriority(TIM7_IRQn, 0, 0);
 8001db8:	f000 fc36 	bl	8002628 <HAL_NVIC_SetPriority>
    HAL_NVIC_EnableIRQ(TIM7_IRQn);
 8001dbc:	2037      	movs	r0, #55	; 0x37
  /* USER CODE BEGIN TIM7_MspInit 1 */

  /* USER CODE END TIM7_MspInit 1 */
  }

}
 8001dbe:	b003      	add	sp, #12
 8001dc0:	f85d eb04 	ldr.w	lr, [sp], #4
    HAL_NVIC_EnableIRQ(TIM7_IRQn);
 8001dc4:	f000 bc66 	b.w	8002694 <HAL_NVIC_EnableIRQ>
 8001dc8:	40001400 	.word	0x40001400

08001dcc <HAL_TIM_MspPostInit>:

void HAL_TIM_MspPostInit(TIM_HandleTypeDef* htim)
{
 8001dcc:	b510      	push	{r4, lr}
  GPIO_InitTypeDef GPIO_InitStruct = {0};
  if(htim->Instance==TIM3)
 8001dce:	6801      	ldr	r1, [r0, #0]
 8001dd0:	4a11      	ldr	r2, [pc, #68]	; (8001e18 <HAL_TIM_MspPostInit+0x4c>)
{
 8001dd2:	b086      	sub	sp, #24
  GPIO_InitTypeDef GPIO_InitStruct = {0};
 8001dd4:	2300      	movs	r3, #0
  if(htim->Instance==TIM3)
 8001dd6:	4291      	cmp	r1, r2
  GPIO_InitTypeDef GPIO_InitStruct = {0};
 8001dd8:	e9cd 3301 	strd	r3, r3, [sp, #4]
 8001ddc:	e9cd 3303 	strd	r3, r3, [sp, #12]
 8001de0:	9305      	str	r3, [sp, #20]
  if(htim->Instance==TIM3)
 8001de2:	d001      	beq.n	8001de8 <HAL_TIM_MspPostInit+0x1c>
  /* USER CODE BEGIN TIM3_MspPostInit 1 */

  /* USER CODE END TIM3_MspPostInit 1 */
  }

}
 8001de4:	b006      	add	sp, #24
 8001de6:	bd10      	pop	{r4, pc}
    __HAL_RCC_GPIOC_CLK_ENABLE();
 8001de8:	f502 320d 	add.w	r2, r2, #144384	; 0x23400
 8001dec:	9300      	str	r3, [sp, #0]
 8001dee:	6b13      	ldr	r3, [r2, #48]	; 0x30
    HAL_GPIO_Init(GPIOC, &GPIO_InitStruct);
 8001df0:	480a      	ldr	r0, [pc, #40]	; (8001e1c <HAL_TIM_MspPostInit+0x50>)
    __HAL_RCC_GPIOC_CLK_ENABLE();
 8001df2:	f043 0304 	orr.w	r3, r3, #4
 8001df6:	6313      	str	r3, [r2, #48]	; 0x30
 8001df8:	6b13      	ldr	r3, [r2, #48]	; 0x30
 8001dfa:	f003 0304 	and.w	r3, r3, #4
 8001dfe:	9300      	str	r3, [sp, #0]
    GPIO_InitStruct.Pin = GPIO_PIN_6;
 8001e00:	2240      	movs	r2, #64	; 0x40
    GPIO_InitStruct.Mode = GPIO_MODE_AF_PP;
 8001e02:	2302      	movs	r3, #2
    HAL_GPIO_Init(GPIOC, &GPIO_InitStruct);
 8001e04:	a901      	add	r1, sp, #4
    __HAL_RCC_GPIOC_CLK_ENABLE();
 8001e06:	9c00      	ldr	r4, [sp, #0]
    GPIO_InitStruct.Alternate = GPIO_AF2_TIM3;
 8001e08:	9305      	str	r3, [sp, #20]
    GPIO_InitStruct.Mode = GPIO_MODE_AF_PP;
 8001e0a:	e9cd 2301 	strd	r2, r3, [sp, #4]
    HAL_GPIO_Init(GPIOC, &GPIO_InitStruct);
 8001e0e:	f000 fe29 	bl	8002a64 <HAL_GPIO_Init>
}
 8001e12:	b006      	add	sp, #24
 8001e14:	bd10      	pop	{r4, pc}
 8001e16:	bf00      	nop
 8001e18:	40000400 	.word	0x40000400
 8001e1c:	40020800 	.word	0x40020800

08001e20 <HAL_UART_MspInit>:
* This function configures the hardware resources used in this example
* @param huart: UART handle pointer
* @retval None
*/
void HAL_UART_MspInit(UART_HandleTypeDef* huart)
{
 8001e20:	b570      	push	{r4, r5, r6, lr}
  GPIO_InitTypeDef GPIO_InitStruct = {0};
  if(huart->Instance==USART2)
 8001e22:	6802      	ldr	r2, [r0, #0]
 8001e24:	4b1c      	ldr	r3, [pc, #112]	; (8001e98 <HAL_UART_MspInit+0x78>)
{
 8001e26:	b088      	sub	sp, #32
  GPIO_InitTypeDef GPIO_InitStruct = {0};
 8001e28:	2400      	movs	r4, #0
  if(huart->Instance==USART2)
 8001e2a:	429a      	cmp	r2, r3
  GPIO_InitTypeDef GPIO_InitStruct = {0};
 8001e2c:	e9cd 4403 	strd	r4, r4, [sp, #12]
 8001e30:	e9cd 4405 	strd	r4, r4, [sp, #20]
 8001e34:	9407      	str	r4, [sp, #28]
  if(huart->Instance==USART2)
 8001e36:	d001      	beq.n	8001e3c <HAL_UART_MspInit+0x1c>
  /* USER CODE BEGIN USART2_MspInit 1 */

  /* USER CODE END USART2_MspInit 1 */
  }

}
 8001e38:	b008      	add	sp, #32
 8001e3a:	bd70      	pop	{r4, r5, r6, pc}
    __HAL_RCC_USART2_CLK_ENABLE();
 8001e3c:	f503 33fa 	add.w	r3, r3, #128000	; 0x1f400
 8001e40:	9401      	str	r4, [sp, #4]
 8001e42:	6c1a      	ldr	r2, [r3, #64]	; 0x40
    HAL_GPIO_Init(GPIOA, &GPIO_InitStruct);
 8001e44:	4815      	ldr	r0, [pc, #84]	; (8001e9c <HAL_UART_MspInit+0x7c>)
    __HAL_RCC_USART2_CLK_ENABLE();
 8001e46:	f442 3200 	orr.w	r2, r2, #131072	; 0x20000
 8001e4a:	641a      	str	r2, [r3, #64]	; 0x40
 8001e4c:	6c1a      	ldr	r2, [r3, #64]	; 0x40
 8001e4e:	f402 3200 	and.w	r2, r2, #131072	; 0x20000
 8001e52:	9201      	str	r2, [sp, #4]
 8001e54:	9a01      	ldr	r2, [sp, #4]
    __HAL_RCC_GPIOA_CLK_ENABLE();
 8001e56:	9402      	str	r4, [sp, #8]
 8001e58:	6b1a      	ldr	r2, [r3, #48]	; 0x30
 8001e5a:	f042 0201 	orr.w	r2, r2, #1
 8001e5e:	631a      	str	r2, [r3, #48]	; 0x30
 8001e60:	6b1b      	ldr	r3, [r3, #48]	; 0x30
 8001e62:	f003 0301 	and.w	r3, r3, #1
 8001e66:	9302      	str	r3, [sp, #8]
    GPIO_InitStruct.Pin = GPIO_PIN_2|GPIO_PIN_3;
 8001e68:	220c      	movs	r2, #12
    GPIO_InitStruct.Mode = GPIO_MODE_AF_PP;
 8001e6a:	2302      	movs	r3, #2
    HAL_GPIO_Init(GPIOA, &GPIO_InitStruct);
 8001e6c:	a903      	add	r1, sp, #12
    GPIO_InitStruct.Pin = GPIO_PIN_2|GPIO_PIN_3;
 8001e6e:	9203      	str	r2, [sp, #12]
    GPIO_InitStruct.Mode = GPIO_MODE_AF_PP;
 8001e70:	9304      	str	r3, [sp, #16]
    GPIO_InitStruct.Speed = GPIO_SPEED_FREQ_VERY_HIGH;
 8001e72:	2203      	movs	r2, #3
    GPIO_InitStruct.Alternate = GPIO_AF7_USART2;
 8001e74:	2307      	movs	r3, #7
    GPIO_InitStruct.Pull = GPIO_PULLUP;
 8001e76:	2501      	movs	r5, #1
    GPIO_InitStruct.Alternate = GPIO_AF7_USART2;
 8001e78:	9307      	str	r3, [sp, #28]
    GPIO_InitStruct.Speed = GPIO_SPEED_FREQ_VERY_HIGH;
 8001e7a:	e9cd 5205 	strd	r5, r2, [sp, #20]
    __HAL_RCC_GPIOA_CLK_ENABLE();
 8001e7e:	9e02      	ldr	r6, [sp, #8]
    HAL_GPIO_Init(GPIOA, &GPIO_InitStruct);
 8001e80:	f000 fdf0 	bl	8002a64 <HAL_GPIO_Init>
    HAL_NVIC_SetPriority(USART2_IRQn, 0, 0);
 8001e84:	4622      	mov	r2, r4
 8001e86:	4621      	mov	r1, r4
 8001e88:	2026      	movs	r0, #38	; 0x26
 8001e8a:	f000 fbcd 	bl	8002628 <HAL_NVIC_SetPriority>
    HAL_NVIC_EnableIRQ(USART2_IRQn);
 8001e8e:	2026      	movs	r0, #38	; 0x26
 8001e90:	f000 fc00 	bl	8002694 <HAL_NVIC_EnableIRQ>
}
 8001e94:	b008      	add	sp, #32
 8001e96:	bd70      	pop	{r4, r5, r6, pc}
 8001e98:	40004400 	.word	0x40004400
 8001e9c:	40020000 	.word	0x40020000

08001ea0 <NMI_Handler>:

  /* USER CODE END NonMaskableInt_IRQn 0 */
  /* USER CODE BEGIN NonMaskableInt_IRQn 1 */

  /* USER CODE END NonMaskableInt_IRQn 1 */
}
 8001ea0:	4770      	bx	lr
 8001ea2:	bf00      	nop

08001ea4 <HardFault_Handler>:

/**
  * @brief This function handles Hard fault interrupt.
  */
void HardFault_Handler(void)
{
 8001ea4:	e7fe      	b.n	8001ea4 <HardFault_Handler>
 8001ea6:	bf00      	nop

08001ea8 <MemManage_Handler>:

/**
  * @brief This function handles Memory management fault.
  */
void MemManage_Handler(void)
{
 8001ea8:	e7fe      	b.n	8001ea8 <MemManage_Handler>
 8001eaa:	bf00      	nop

08001eac <BusFault_Handler>:

/**
  * @brief This function handles Pre-fetch fault, memory access fault.
  */
void BusFault_Handler(void)
{
 8001eac:	e7fe      	b.n	8001eac <BusFault_Handler>
 8001eae:	bf00      	nop

08001eb0 <UsageFault_Handler>:

/**
  * @brief This function handles Undefined instruction or illegal state.
  */
void UsageFault_Handler(void)
{
 8001eb0:	e7fe      	b.n	8001eb0 <UsageFault_Handler>
 8001eb2:	bf00      	nop

08001eb4 <SVC_Handler>:
 8001eb4:	4770      	bx	lr
 8001eb6:	bf00      	nop

08001eb8 <DebugMon_Handler>:
 8001eb8:	4770      	bx	lr
 8001eba:	bf00      	nop

08001ebc <PendSV_Handler>:
 8001ebc:	4770      	bx	lr
 8001ebe:	bf00      	nop

08001ec0 <SysTick_Handler>:
void SysTick_Handler(void)
{
  /* USER CODE BEGIN SysTick_IRQn 0 */

  /* USER CODE END SysTick_IRQn 0 */
  HAL_IncTick();
 8001ec0:	f000 b932 	b.w	8002128 <HAL_IncTick>

08001ec4 <USART2_IRQHandler>:
void USART2_IRQHandler(void)
{
  /* USER CODE BEGIN USART2_IRQn 0 */

  /* USER CODE END USART2_IRQn 0 */
  HAL_UART_IRQHandler(&huart2);
 8001ec4:	4801      	ldr	r0, [pc, #4]	; (8001ecc <USART2_IRQHandler+0x8>)
 8001ec6:	f002 bf2d 	b.w	8004d24 <HAL_UART_IRQHandler>
 8001eca:	bf00      	nop
 8001ecc:	20000634 	.word	0x20000634

08001ed0 <TIM7_IRQHandler>:
void TIM7_IRQHandler(void)
{
  /* USER CODE BEGIN TIM7_IRQn 0 */

  /* USER CODE END TIM7_IRQn 0 */
  HAL_TIM_IRQHandler(&htim7);
 8001ed0:	4801      	ldr	r0, [pc, #4]	; (8001ed8 <TIM7_IRQHandler+0x8>)
 8001ed2:	f002 bbaf 	b.w	8004634 <HAL_TIM_IRQHandler>
 8001ed6:	bf00      	nop
 8001ed8:	20000674 	.word	0x20000674

08001edc <DMA2_Stream0_IRQHandler>:
void DMA2_Stream0_IRQHandler(void)
{
  /* USER CODE BEGIN DMA2_Stream0_IRQn 0 */

  /* USER CODE END DMA2_Stream0_IRQn 0 */
  HAL_DMA_IRQHandler(&hdma_adc1);
 8001edc:	4801      	ldr	r0, [pc, #4]	; (8001ee4 <DMA2_Stream0_IRQHandler+0x8>)
 8001ede:	f000 bceb 	b.w	80028b8 <HAL_DMA_IRQHandler>
 8001ee2:	bf00      	nop
 8001ee4:	2000057c 	.word	0x2000057c

08001ee8 <OTG_FS_IRQHandler>:
void OTG_FS_IRQHandler(void)
{
  /* USER CODE BEGIN OTG_FS_IRQn 0 */

  /* USER CODE END OTG_FS_IRQn 0 */
  HAL_HCD_IRQHandler(&hhcd_USB_OTG_FS);
 8001ee8:	4801      	ldr	r0, [pc, #4]	; (8001ef0 <OTG_FS_IRQHandler+0x8>)
 8001eea:	f000 bfd1 	b.w	8002e90 <HAL_HCD_IRQHandler>
 8001eee:	bf00      	nop
 8001ef0:	20000acc 	.word	0x20000acc

08001ef4 <_sbrk>:
{
	extern char end asm("end");
	static char *heap_end;
	char *prev_heap_end;

	if (heap_end == 0)
 8001ef4:	4a0c      	ldr	r2, [pc, #48]	; (8001f28 <_sbrk+0x34>)
{
 8001ef6:	b508      	push	{r3, lr}
	if (heap_end == 0)
 8001ef8:	6813      	ldr	r3, [r2, #0]
 8001efa:	b133      	cbz	r3, 8001f0a <_sbrk+0x16>
		heap_end = &end;

	prev_heap_end = heap_end;
	if (heap_end + incr > stack_ptr)
 8001efc:	4418      	add	r0, r3
 8001efe:	4669      	mov	r1, sp
 8001f00:	4288      	cmp	r0, r1
 8001f02:	d808      	bhi.n	8001f16 <_sbrk+0x22>
	{
		errno = ENOMEM;
		return (caddr_t) -1;
	}

	heap_end += incr;
 8001f04:	6010      	str	r0, [r2, #0]

	return (caddr_t) prev_heap_end;
}
 8001f06:	4618      	mov	r0, r3
 8001f08:	bd08      	pop	{r3, pc}
		heap_end = &end;
 8001f0a:	4b08      	ldr	r3, [pc, #32]	; (8001f2c <_sbrk+0x38>)
 8001f0c:	6013      	str	r3, [r2, #0]
	if (heap_end + incr > stack_ptr)
 8001f0e:	4418      	add	r0, r3
 8001f10:	4669      	mov	r1, sp
 8001f12:	4288      	cmp	r0, r1
 8001f14:	d9f6      	bls.n	8001f04 <_sbrk+0x10>
		errno = ENOMEM;
 8001f16:	f004 fc43 	bl	80067a0 <__errno>
 8001f1a:	230c      	movs	r3, #12
 8001f1c:	6003      	str	r3, [r0, #0]
		return (caddr_t) -1;
 8001f1e:	f04f 33ff 	mov.w	r3, #4294967295
}
 8001f22:	4618      	mov	r0, r3
 8001f24:	bd08      	pop	{r3, pc}
 8001f26:	bf00      	nop
 8001f28:	20000238 	.word	0x20000238
 8001f2c:	20000d98 	.word	0x20000d98

08001f30 <SystemInit>:
  */
void SystemInit(void)
{
  /* FPU settings ------------------------------------------------------------*/
  #if (__FPU_PRESENT == 1) && (__FPU_USED == 1)
    SCB->CPACR |= ((3UL << 10*2)|(3UL << 11*2));  /* set CP10 and CP11 Full Access */
 8001f30:	4b05      	ldr	r3, [pc, #20]	; (8001f48 <SystemInit+0x18>)
 8001f32:	f8d3 2088 	ldr.w	r2, [r3, #136]	; 0x88

  /* Configure the Vector Table location add offset address ------------------*/
#ifdef VECT_TAB_SRAM
  SCB->VTOR = SRAM_BASE | VECT_TAB_OFFSET; /* Vector Table Relocation in Internal SRAM */
#else
  SCB->VTOR = FLASH_BASE | VECT_TAB_OFFSET; /* Vector Table Relocation in Internal FLASH */
 8001f36:	f04f 6100 	mov.w	r1, #134217728	; 0x8000000
    SCB->CPACR |= ((3UL << 10*2)|(3UL << 11*2));  /* set CP10 and CP11 Full Access */
 8001f3a:	f442 0270 	orr.w	r2, r2, #15728640	; 0xf00000
 8001f3e:	f8c3 2088 	str.w	r2, [r3, #136]	; 0x88
  SCB->VTOR = FLASH_BASE | VECT_TAB_OFFSET; /* Vector Table Relocation in Internal FLASH */
 8001f42:	6099      	str	r1, [r3, #8]
#endif
}
 8001f44:	4770      	bx	lr
 8001f46:	bf00      	nop
 8001f48:	e000ed00 	.word	0xe000ed00

08001f4c <Reset_Handler>:

    .section  .text.Reset_Handler
  .weak  Reset_Handler
  .type  Reset_Handler, %function
Reset_Handler:  
  ldr   sp, =_estack     /* set stack pointer */
 8001f4c:	f8df d034 	ldr.w	sp, [pc, #52]	; 8001f84 <LoopFillZerobss+0x14>

/* Copy the data segment initializers from flash to SRAM */  
  movs  r1, #0
 8001f50:	2100      	movs	r1, #0
  b  LoopCopyDataInit
 8001f52:	e003      	b.n	8001f5c <LoopCopyDataInit>

08001f54 <CopyDataInit>:

CopyDataInit:
  ldr  r3, =_sidata
 8001f54:	4b0c      	ldr	r3, [pc, #48]	; (8001f88 <LoopFillZerobss+0x18>)
  ldr  r3, [r3, r1]
 8001f56:	585b      	ldr	r3, [r3, r1]
  str  r3, [r0, r1]
 8001f58:	5043      	str	r3, [r0, r1]
  adds  r1, r1, #4
 8001f5a:	3104      	adds	r1, #4

08001f5c <LoopCopyDataInit>:
    
LoopCopyDataInit:
  ldr  r0, =_sdata
 8001f5c:	480b      	ldr	r0, [pc, #44]	; (8001f8c <LoopFillZerobss+0x1c>)
  ldr  r3, =_edata
 8001f5e:	4b0c      	ldr	r3, [pc, #48]	; (8001f90 <LoopFillZerobss+0x20>)
  adds  r2, r0, r1
 8001f60:	1842      	adds	r2, r0, r1
  cmp  r2, r3
 8001f62:	429a      	cmp	r2, r3
  bcc  CopyDataInit
 8001f64:	d3f6      	bcc.n	8001f54 <CopyDataInit>
  ldr  r2, =_sbss
 8001f66:	4a0b      	ldr	r2, [pc, #44]	; (8001f94 <LoopFillZerobss+0x24>)
  b  LoopFillZerobss
 8001f68:	e002      	b.n	8001f70 <LoopFillZerobss>

08001f6a <FillZerobss>:
/* Zero fill the bss segment. */  
FillZerobss:
  movs  r3, #0
 8001f6a:	2300      	movs	r3, #0
  str  r3, [r2], #4
 8001f6c:	f842 3b04 	str.w	r3, [r2], #4

08001f70 <LoopFillZerobss>:
    
LoopFillZerobss:
  ldr  r3, = _ebss
 8001f70:	4b09      	ldr	r3, [pc, #36]	; (8001f98 <LoopFillZerobss+0x28>)
  cmp  r2, r3
 8001f72:	429a      	cmp	r2, r3
  bcc  FillZerobss
 8001f74:	d3f9      	bcc.n	8001f6a <FillZerobss>

/* Call the clock system intitialization function.*/
  bl  SystemInit   
 8001f76:	f7ff ffdb 	bl	8001f30 <SystemInit>
/* Call static constructors */
    bl __libc_init_array
 8001f7a:	f004 fc17 	bl	80067ac <__libc_init_array>
/* Call the application's entry point.*/
  bl  main
 8001f7e:	f7ff fb33 	bl	80015e8 <main>
  bx  lr    
 8001f82:	4770      	bx	lr
  ldr   sp, =_estack     /* set stack pointer */
 8001f84:	20020000 	.word	0x20020000
  ldr  r3, =_sidata
 8001f88:	0800b6a0 	.word	0x0800b6a0
  ldr  r0, =_sdata
 8001f8c:	20000000 	.word	0x20000000
  ldr  r3, =_edata
 8001f90:	20000208 	.word	0x20000208
  ldr  r2, =_sbss
 8001f94:	20000208 	.word	0x20000208
  ldr  r3, = _ebss
 8001f98:	20000d94 	.word	0x20000d94

08001f9c <ADC_IRQHandler>:
 * @retval None       
*/
    .section  .text.Default_Handler,"ax",%progbits
Default_Handler:
Infinite_Loop:
  b  Infinite_Loop
 8001f9c:	e7fe      	b.n	8001f9c <ADC_IRQHandler>
	...

08001fa0 <pidInit>:
 * @about: Initialize pid structure.
 */
void pidInit ( pidc_t* driver, float kp, float ki, float kd, float ts, float iPartMaxLimit, float iPartMinLimit,
                float dPartMaxLimit, float dPartMinLimit, float pidOutputMaxLimit, float pidOutputMinLimit )
{
    driver->output = pidOutputMinLimit;
 8001fa0:	edc0 4a02 	vstr	s9, [r0, #8]

    // Coefficients.
    driver->kp = kp;
 8001fa4:	ed80 0a03 	vstr	s0, [r0, #12]
    driver->ki = ki;
 8001fa8:	edc0 0a04 	vstr	s1, [r0, #16]
    driver->kd = kd;
 8001fac:	ed80 1a05 	vstr	s2, [r0, #20]

    driver->ts = ts;
 8001fb0:	edc0 1a06 	vstr	s3, [r0, #24]

    // Limits of integral part.
    driver->iMax = iPartMaxLimit;
 8001fb4:	ed80 2a07 	vstr	s4, [r0, #28]
    driver->iMin = iPartMinLimit;
 8001fb8:	edc0 2a08 	vstr	s5, [r0, #32]
    
    // Limits of derivative part.
    driver->dMax = dPartMaxLimit;
 8001fbc:	ed80 3a09 	vstr	s6, [r0, #36]	; 0x24
    driver->dMin = dPartMinLimit;
 8001fc0:	edc0 3a0a 	vstr	s7, [r0, #40]	; 0x28

    // Limits of PID output value.
    driver->pidMax = pidOutputMaxLimit;
 8001fc4:	ed80 4a0e 	vstr	s8, [r0, #56]	; 0x38
    driver->pidMin = pidOutputMinLimit;
 8001fc8:	edc0 4a0f 	vstr	s9, [r0, #60]	; 0x3c
}
 8001fcc:	4770      	bx	lr
 8001fce:	bf00      	nop

08001fd0 <pidChangeCoefficients>:
 * @about: Changes PID coefficients.
 */
void pidChangeCoefficients ( pidc_t* driver, float kp, float ki, float kd, float ts )
{
    // Coefficients.
    driver->kp = kp;
 8001fd0:	ed80 0a03 	vstr	s0, [r0, #12]
    driver->ki = ki;
 8001fd4:	edc0 0a04 	vstr	s1, [r0, #16]
    driver->kd = kd;
 8001fd8:	ed80 1a05 	vstr	s2, [r0, #20]

    driver->ts = ts;
 8001fdc:	edc0 1a06 	vstr	s3, [r0, #24]
}
 8001fe0:	4770      	bx	lr
 8001fe2:	bf00      	nop

08001fe4 <pidControl>:

    // Calculate proportional part
    driver->partP = driver->error;

    // Calculate integral part
    driver->partI += ( driver->error * driver->ts );
 8001fe4:	ed90 7a0c 	vldr	s14, [r0, #48]	; 0x30
 8001fe8:	edd0 5a06 	vldr	s11, [r0, #24]

    // Control integral range
    if ( driver->partI > driver->iMax )
 8001fec:	edd0 7a07 	vldr	s15, [r0, #28]
    driver->error = error;
 8001ff0:	ed80 0a00 	vstr	s0, [r0]
    driver->partI += ( driver->error * driver->ts );
 8001ff4:	eea5 7a80 	vfma.f32	s14, s11, s0
    driver->partP = driver->error;
 8001ff8:	ed80 0a0b 	vstr	s0, [r0, #44]	; 0x2c
    if ( driver->partI > driver->iMax )
 8001ffc:	eeb4 7ae7 	vcmpe.f32	s14, s15
 8002000:	eef1 fa10 	vmrs	APSR_nzcv, fpscr
    driver->partI += ( driver->error * driver->ts );
 8002004:	ed80 7a0c 	vstr	s14, [r0, #48]	; 0x30
    if ( driver->partI > driver->iMax )
 8002008:	dc06      	bgt.n	8002018 <pidControl+0x34>
    {
        driver->partI = driver->iMax;
    }
    else if ( driver->partI < driver->iMin )
 800200a:	edd0 7a08 	vldr	s15, [r0, #32]
 800200e:	eeb4 7ae7 	vcmpe.f32	s14, s15
 8002012:	eef1 fa10 	vmrs	APSR_nzcv, fpscr
 8002016:	d53d      	bpl.n	8002094 <pidControl+0xb0>
    {
        driver->partI = driver->iMin;
 8002018:	edc0 7a0c 	vstr	s15, [r0, #48]	; 0x30
    {
        /* Intentionally blank. */
    }

    // Calculate derivative part
    driver->partD = ( ( driver->error - driver->lastError ) / driver->ts );
 800201c:	edd0 6a01 	vldr	s13, [r0, #4]
    
    // Control derivative range
    if ( driver->partD > driver->dMax )
 8002020:	ed90 7a09 	vldr	s14, [r0, #36]	; 0x24
    driver->partD = ( ( driver->error - driver->lastError ) / driver->ts );
 8002024:	ee70 6a66 	vsub.f32	s13, s0, s13
 8002028:	ee86 6aa5 	vdiv.f32	s12, s13, s11
    if ( driver->partD > driver->dMax )
 800202c:	eeb4 6ac7 	vcmpe.f32	s12, s14
 8002030:	eef1 fa10 	vmrs	APSR_nzcv, fpscr
    driver->partD = ( ( driver->error - driver->lastError ) / driver->ts );
 8002034:	ed80 6a0d 	vstr	s12, [r0, #52]	; 0x34
    if ( driver->partD > driver->dMax )
 8002038:	dc06      	bgt.n	8002048 <pidControl+0x64>
    {
        driver->partD = driver->dMax;
    }
    else if ( driver->partD < driver->dMin )
 800203a:	ed90 7a0a 	vldr	s14, [r0, #40]	; 0x28
 800203e:	eeb4 6ac7 	vcmpe.f32	s12, s14
 8002042:	eef1 fa10 	vmrs	APSR_nzcv, fpscr
 8002046:	d522      	bpl.n	800208e <pidControl+0xaa>
    {
        driver->partD = driver->dMin;
 8002048:	ed80 7a0d 	vstr	s14, [r0, #52]	; 0x34
        /* Intentionally blank. */
    }

    // Calculate PID output value
    driver->output = ( driver->kp * driver->partP ) +
                        ( driver->ki * driver->partI ) +
 800204c:	ed90 5a04 	vldr	s10, [r0, #16]
    driver->output = ( driver->kp * driver->partP ) +
 8002050:	edd0 5a03 	vldr	s11, [r0, #12]
                        ( driver->ki * driver->partI ) +
 8002054:	ed90 6a05 	vldr	s12, [r0, #20]
                        ( driver->kd * driver->partD );

    // Control PID range
    if ( driver->output > driver->pidMax )
 8002058:	edd0 6a0e 	vldr	s13, [r0, #56]	; 0x38
                        ( driver->ki * driver->partI ) +
 800205c:	ee67 7a85 	vmul.f32	s15, s15, s10
    driver->output = ( driver->kp * driver->partP ) +
 8002060:	eee5 7a80 	vfma.f32	s15, s11, s0
                        ( driver->ki * driver->partI ) +
 8002064:	eee6 7a07 	vfma.f32	s15, s12, s14
    if ( driver->output > driver->pidMax )
 8002068:	eef4 7ae6 	vcmpe.f32	s15, s13
 800206c:	eef1 fa10 	vmrs	APSR_nzcv, fpscr
    driver->output = ( driver->kp * driver->partP ) +
 8002070:	edc0 7a02 	vstr	s15, [r0, #8]
    if ( driver->output > driver->pidMax )
 8002074:	dc11      	bgt.n	800209a <pidControl+0xb6>
    {
        driver->output = driver->pidMax;
    }
    else if ( driver->output < driver->pidMin )
 8002076:	ed90 7a0f 	vldr	s14, [r0, #60]	; 0x3c
    {
        /* Intentionally blank. */
    }

    // Save current error for next iteration over lastError
    driver->lastError = driver->error;
 800207a:	ed80 0a01 	vstr	s0, [r0, #4]
    else if ( driver->output < driver->pidMin )
 800207e:	eef4 7ac7 	vcmpe.f32	s15, s14
 8002082:	eef1 fa10 	vmrs	APSR_nzcv, fpscr
        driver->output = driver->pidMin;
 8002086:	bf48      	it	mi
 8002088:	ed80 7a02 	vstrmi	s14, [r0, #8]
}
 800208c:	4770      	bx	lr
 800208e:	eeb0 7a46 	vmov.f32	s14, s12
 8002092:	e7db      	b.n	800204c <pidControl+0x68>
 8002094:	eef0 7a47 	vmov.f32	s15, s14
 8002098:	e7c0      	b.n	800201c <pidControl+0x38>
        driver->output = driver->pidMax;
 800209a:	edc0 6a02 	vstr	s13, [r0, #8]
    driver->lastError = driver->error;
 800209e:	ed80 0a01 	vstr	s0, [r0, #4]
}
 80020a2:	4770      	bx	lr

080020a4 <pidGetOutput>:
 * @about:
 */
float pidGetOutput ( pidc_t* driver )
{
    return ( driver->output );
}
 80020a4:	ed90 0a02 	vldr	s0, [r0, #8]
 80020a8:	4770      	bx	lr
 80020aa:	bf00      	nop

080020ac <HAL_InitTick>:
  *       implementation  in user file.
  * @param TickPriority Tick interrupt priority.
  * @retval HAL status
  */
__weak HAL_StatusTypeDef HAL_InitTick(uint32_t TickPriority)
{
 80020ac:	b538      	push	{r3, r4, r5, lr}
  /* Configure the SysTick to have interrupt in 1ms time basis*/
  if (HAL_SYSTICK_Config(SystemCoreClock / (1000U / uwTickFreq)) > 0U)
 80020ae:	4a0e      	ldr	r2, [pc, #56]	; (80020e8 <HAL_InitTick+0x3c>)
 80020b0:	4b0e      	ldr	r3, [pc, #56]	; (80020ec <HAL_InitTick+0x40>)
 80020b2:	7812      	ldrb	r2, [r2, #0]
 80020b4:	681b      	ldr	r3, [r3, #0]
{
 80020b6:	4605      	mov	r5, r0
  if (HAL_SYSTICK_Config(SystemCoreClock / (1000U / uwTickFreq)) > 0U)
 80020b8:	f44f 707a 	mov.w	r0, #1000	; 0x3e8
 80020bc:	fbb0 f0f2 	udiv	r0, r0, r2
 80020c0:	fbb3 f0f0 	udiv	r0, r3, r0
 80020c4:	f000 faf4 	bl	80026b0 <HAL_SYSTICK_Config>
 80020c8:	b908      	cbnz	r0, 80020ce <HAL_InitTick+0x22>
  {
    return HAL_ERROR;
  }

  /* Configure the SysTick IRQ priority */
  if (TickPriority < (1UL << __NVIC_PRIO_BITS))
 80020ca:	2d0f      	cmp	r5, #15
 80020cc:	d901      	bls.n	80020d2 <HAL_InitTick+0x26>
    return HAL_ERROR;
 80020ce:	2001      	movs	r0, #1
    return HAL_ERROR;
  }

  /* Return function status */
  return HAL_OK;
}
 80020d0:	bd38      	pop	{r3, r4, r5, pc}
 80020d2:	4604      	mov	r4, r0
    HAL_NVIC_SetPriority(SysTick_IRQn, TickPriority, 0U);
 80020d4:	4602      	mov	r2, r0
 80020d6:	4629      	mov	r1, r5
 80020d8:	f04f 30ff 	mov.w	r0, #4294967295
 80020dc:	f000 faa4 	bl	8002628 <HAL_NVIC_SetPriority>
    uwTickPrio = TickPriority;
 80020e0:	4b03      	ldr	r3, [pc, #12]	; (80020f0 <HAL_InitTick+0x44>)
 80020e2:	4620      	mov	r0, r4
 80020e4:	601d      	str	r5, [r3, #0]
}
 80020e6:	bd38      	pop	{r3, r4, r5, pc}
 80020e8:	2000000c 	.word	0x2000000c
 80020ec:	20000008 	.word	0x20000008
 80020f0:	20000010 	.word	0x20000010

080020f4 <HAL_Init>:
{
 80020f4:	b508      	push	{r3, lr}
  __HAL_FLASH_INSTRUCTION_CACHE_ENABLE();
 80020f6:	4b0b      	ldr	r3, [pc, #44]	; (8002124 <HAL_Init+0x30>)
 80020f8:	681a      	ldr	r2, [r3, #0]
 80020fa:	f442 7200 	orr.w	r2, r2, #512	; 0x200
 80020fe:	601a      	str	r2, [r3, #0]
  __HAL_FLASH_DATA_CACHE_ENABLE();
 8002100:	681a      	ldr	r2, [r3, #0]
 8002102:	f442 6280 	orr.w	r2, r2, #1024	; 0x400
 8002106:	601a      	str	r2, [r3, #0]
  __HAL_FLASH_PREFETCH_BUFFER_ENABLE();
 8002108:	681a      	ldr	r2, [r3, #0]
 800210a:	f442 7280 	orr.w	r2, r2, #256	; 0x100
 800210e:	601a      	str	r2, [r3, #0]
  HAL_NVIC_SetPriorityGrouping(NVIC_PRIORITYGROUP_4);
 8002110:	2003      	movs	r0, #3
 8002112:	f000 fa77 	bl	8002604 <HAL_NVIC_SetPriorityGrouping>
  HAL_InitTick(TICK_INT_PRIORITY);
 8002116:	2000      	movs	r0, #0
 8002118:	f7ff ffc8 	bl	80020ac <HAL_InitTick>
  HAL_MspInit();
 800211c:	f7ff fcf8 	bl	8001b10 <HAL_MspInit>
}
 8002120:	2000      	movs	r0, #0
 8002122:	bd08      	pop	{r3, pc}
 8002124:	40023c00 	.word	0x40023c00

08002128 <HAL_IncTick>:
  *      implementations in user file.
  * @retval None
  */
__weak void HAL_IncTick(void)
{
  uwTick += uwTickFreq;
 8002128:	4a03      	ldr	r2, [pc, #12]	; (8002138 <HAL_IncTick+0x10>)
 800212a:	4b04      	ldr	r3, [pc, #16]	; (800213c <HAL_IncTick+0x14>)
 800212c:	6811      	ldr	r1, [r2, #0]
 800212e:	781b      	ldrb	r3, [r3, #0]
 8002130:	440b      	add	r3, r1
 8002132:	6013      	str	r3, [r2, #0]
}
 8002134:	4770      	bx	lr
 8002136:	bf00      	nop
 8002138:	200006fc 	.word	0x200006fc
 800213c:	2000000c 	.word	0x2000000c

08002140 <HAL_GetTick>:
  *       implementations in user file.
  * @retval tick value
  */
__weak uint32_t HAL_GetTick(void)
{
  return uwTick;
 8002140:	4b01      	ldr	r3, [pc, #4]	; (8002148 <HAL_GetTick+0x8>)
 8002142:	6818      	ldr	r0, [r3, #0]
}
 8002144:	4770      	bx	lr
 8002146:	bf00      	nop
 8002148:	200006fc 	.word	0x200006fc

0800214c <HAL_Delay>:
  *       implementations in user file.
  * @param Delay specifies the delay time length, in milliseconds.
  * @retval None
  */
__weak void HAL_Delay(uint32_t Delay)
{
 800214c:	b538      	push	{r3, r4, r5, lr}
 800214e:	4604      	mov	r4, r0
  uint32_t tickstart = HAL_GetTick();
 8002150:	f7ff fff6 	bl	8002140 <HAL_GetTick>
  uint32_t wait = Delay;

  /* Add a freq to guarantee minimum wait */
  if (wait < HAL_MAX_DELAY)
 8002154:	1c63      	adds	r3, r4, #1
  uint32_t tickstart = HAL_GetTick();
 8002156:	4605      	mov	r5, r0
  if (wait < HAL_MAX_DELAY)
 8002158:	d002      	beq.n	8002160 <HAL_Delay+0x14>
  {
    wait += (uint32_t)(uwTickFreq);
 800215a:	4b04      	ldr	r3, [pc, #16]	; (800216c <HAL_Delay+0x20>)
 800215c:	781b      	ldrb	r3, [r3, #0]
 800215e:	441c      	add	r4, r3
  }

  while((HAL_GetTick() - tickstart) < wait)
 8002160:	f7ff ffee 	bl	8002140 <HAL_GetTick>
 8002164:	1b40      	subs	r0, r0, r5
 8002166:	42a0      	cmp	r0, r4
 8002168:	d3fa      	bcc.n	8002160 <HAL_Delay+0x14>
  {
  }
}
 800216a:	bd38      	pop	{r3, r4, r5, pc}
 800216c:	2000000c 	.word	0x2000000c

08002170 <HAL_ADC_Init>:
HAL_StatusTypeDef HAL_ADC_Init(ADC_HandleTypeDef* hadc)
{
  HAL_StatusTypeDef tmp_hal_status = HAL_OK;
  
  /* Check ADC handle */
  if(hadc == NULL)
 8002170:	2800      	cmp	r0, #0
 8002172:	f000 8091 	beq.w	8002298 <HAL_ADC_Init+0x128>
{
 8002176:	b5f8      	push	{r3, r4, r5, r6, r7, lr}
  if(hadc->Init.ExternalTrigConv != ADC_SOFTWARE_START)
  {
    assert_param(IS_ADC_EXT_TRIG_EDGE(hadc->Init.ExternalTrigConvEdge));
  }
  
  if(hadc->State == HAL_ADC_STATE_RESET)
 8002178:	6c05      	ldr	r5, [r0, #64]	; 0x40
 800217a:	4604      	mov	r4, r0
 800217c:	2d00      	cmp	r5, #0
 800217e:	f000 8081 	beq.w	8002284 <HAL_ADC_Init+0x114>
    hadc->Lock = HAL_UNLOCKED;
  }
  
  /* Configuration of ADC parameters if previous preliminary actions are      */ 
  /* correctly completed.                                                     */
  if (HAL_IS_BIT_CLR(hadc->State, HAL_ADC_STATE_ERROR_INTERNAL))
 8002182:	6c23      	ldr	r3, [r4, #64]	; 0x40
 8002184:	06db      	lsls	r3, r3, #27
 8002186:	d504      	bpl.n	8002192 <HAL_ADC_Init+0x22>
  {
    tmp_hal_status = HAL_ERROR;
  }
  
  /* Release Lock */
  __HAL_UNLOCK(hadc);
 8002188:	2300      	movs	r3, #0
    tmp_hal_status = HAL_ERROR;
 800218a:	2001      	movs	r0, #1
  __HAL_UNLOCK(hadc);
 800218c:	f884 303c 	strb.w	r3, [r4, #60]	; 0x3c

  /* Return function status */
  return tmp_hal_status;
}
 8002190:	bdf8      	pop	{r3, r4, r5, r6, r7, pc}
    ADC_STATE_CLR_SET(hadc->State,
 8002192:	6c22      	ldr	r2, [r4, #64]	; 0x40
  /* (Depending on STM32F4 product, there may be up to 3 ADCs and 1 common */
  /* control register)                                                    */
  tmpADC_Common = ADC_COMMON_REGISTER(hadc);
  
  /* Set the ADC clock prescaler */
  tmpADC_Common->CCR &= ~(ADC_CCR_ADCPRE);
 8002194:	494d      	ldr	r1, [pc, #308]	; (80022cc <HAL_ADC_Init+0x15c>)
  tmpADC_Common->CCR |=  hadc->Init.ClockPrescaler;
  
  /* Set ADC scan mode */
  hadc->Instance->CR1 &= ~(ADC_CR1_SCAN);
 8002196:	6823      	ldr	r3, [r4, #0]
  /* Enable external trigger if trigger selection is different of software  */
  /* start.                                                                 */
  /* Note: This configuration keeps the hardware feature of parameter       */
  /*       ExternalTrigConvEdge "trigger edge none" equivalent to           */
  /*       software start.                                                  */
  if(hadc->Init.ExternalTrigConv != ADC_SOFTWARE_START)
 8002198:	4d4d      	ldr	r5, [pc, #308]	; (80022d0 <HAL_ADC_Init+0x160>)
    ADC_STATE_CLR_SET(hadc->State,
 800219a:	f422 5288 	bic.w	r2, r2, #4352	; 0x1100
 800219e:	f022 0202 	bic.w	r2, r2, #2
 80021a2:	f042 0202 	orr.w	r2, r2, #2
 80021a6:	6422      	str	r2, [r4, #64]	; 0x40
  tmpADC_Common->CCR &= ~(ADC_CCR_ADCPRE);
 80021a8:	684a      	ldr	r2, [r1, #4]
 80021aa:	f422 3240 	bic.w	r2, r2, #196608	; 0x30000
 80021ae:	604a      	str	r2, [r1, #4]
  tmpADC_Common->CCR |=  hadc->Init.ClockPrescaler;
 80021b0:	684a      	ldr	r2, [r1, #4]
 80021b2:	6860      	ldr	r0, [r4, #4]
 80021b4:	4302      	orrs	r2, r0
 80021b6:	604a      	str	r2, [r1, #4]
  hadc->Instance->CR1 &= ~(ADC_CR1_SCAN);
 80021b8:	6858      	ldr	r0, [r3, #4]
  hadc->Instance->CR1 |=  ADC_CR1_SCANCONV(hadc->Init.ScanConvMode);
 80021ba:	6921      	ldr	r1, [r4, #16]
  hadc->Instance->CR1 |=  hadc->Init.Resolution;
 80021bc:	68a7      	ldr	r7, [r4, #8]
  hadc->Instance->CR2 |= hadc->Init.DataAlign;
 80021be:	68e6      	ldr	r6, [r4, #12]
  hadc->Instance->CR1 &= ~(ADC_CR1_SCAN);
 80021c0:	f420 7080 	bic.w	r0, r0, #256	; 0x100
 80021c4:	6058      	str	r0, [r3, #4]
  hadc->Instance->CR1 |=  ADC_CR1_SCANCONV(hadc->Init.ScanConvMode);
 80021c6:	685a      	ldr	r2, [r3, #4]
 80021c8:	ea42 2201 	orr.w	r2, r2, r1, lsl #8
 80021cc:	605a      	str	r2, [r3, #4]
  hadc->Instance->CR1 &= ~(ADC_CR1_RES);
 80021ce:	6858      	ldr	r0, [r3, #4]
 80021d0:	f020 7040 	bic.w	r0, r0, #50331648	; 0x3000000
 80021d4:	6058      	str	r0, [r3, #4]
  hadc->Instance->CR1 |=  hadc->Init.Resolution;
 80021d6:	6859      	ldr	r1, [r3, #4]
  if(hadc->Init.ExternalTrigConv != ADC_SOFTWARE_START)
 80021d8:	6aa0      	ldr	r0, [r4, #40]	; 0x28
  hadc->Instance->CR1 |=  hadc->Init.Resolution;
 80021da:	4339      	orrs	r1, r7
 80021dc:	6059      	str	r1, [r3, #4]
  hadc->Instance->CR2 &= ~(ADC_CR2_ALIGN);
 80021de:	6899      	ldr	r1, [r3, #8]
 80021e0:	f421 6100 	bic.w	r1, r1, #2048	; 0x800
 80021e4:	6099      	str	r1, [r3, #8]
  hadc->Instance->CR2 |= hadc->Init.DataAlign;
 80021e6:	689a      	ldr	r2, [r3, #8]
  if(hadc->Init.ExternalTrigConv != ADC_SOFTWARE_START)
 80021e8:	42a8      	cmp	r0, r5
  hadc->Instance->CR2 |= hadc->Init.DataAlign;
 80021ea:	ea42 0206 	orr.w	r2, r2, r6
 80021ee:	609a      	str	r2, [r3, #8]
  if(hadc->Init.ExternalTrigConv != ADC_SOFTWARE_START)
 80021f0:	d054      	beq.n	800229c <HAL_ADC_Init+0x12c>
  {
    /* Select external trigger to start conversion */
    hadc->Instance->CR2 &= ~(ADC_CR2_EXTSEL);
 80021f2:	6899      	ldr	r1, [r3, #8]
    hadc->Instance->CR2 |= hadc->Init.ExternalTrigConv;
    
    /* Select external trigger polarity */
    hadc->Instance->CR2 &= ~(ADC_CR2_EXTEN);
    hadc->Instance->CR2 |= hadc->Init.ExternalTrigConvEdge;
 80021f4:	6ae5      	ldr	r5, [r4, #44]	; 0x2c
    hadc->Instance->CR2 &= ~(ADC_CR2_EXTSEL);
 80021f6:	f021 6170 	bic.w	r1, r1, #251658240	; 0xf000000
 80021fa:	6099      	str	r1, [r3, #8]
    hadc->Instance->CR2 |= hadc->Init.ExternalTrigConv;
 80021fc:	689a      	ldr	r2, [r3, #8]
 80021fe:	4310      	orrs	r0, r2
 8002200:	6098      	str	r0, [r3, #8]
    hadc->Instance->CR2 &= ~(ADC_CR2_EXTEN);
 8002202:	6899      	ldr	r1, [r3, #8]
 8002204:	f021 5140 	bic.w	r1, r1, #805306368	; 0x30000000
 8002208:	6099      	str	r1, [r3, #8]
    hadc->Instance->CR2 |= hadc->Init.ExternalTrigConvEdge;
 800220a:	689a      	ldr	r2, [r3, #8]
 800220c:	432a      	orrs	r2, r5
 800220e:	609a      	str	r2, [r3, #8]
    hadc->Instance->CR2 &= ~(ADC_CR2_EXTSEL);
    hadc->Instance->CR2 &= ~(ADC_CR2_EXTEN);
  }
  
  /* Enable or disable ADC continuous conversion mode */
  hadc->Instance->CR2 &= ~(ADC_CR2_CONT);
 8002210:	6899      	ldr	r1, [r3, #8]
  hadc->Instance->CR2 |= ADC_CR2_CONTINUOUS((uint32_t)hadc->Init.ContinuousConvMode);
 8002212:	7e25      	ldrb	r5, [r4, #24]
  
  if(hadc->Init.DiscontinuousConvMode != DISABLE)
 8002214:	f894 0020 	ldrb.w	r0, [r4, #32]
  hadc->Instance->CR2 &= ~(ADC_CR2_CONT);
 8002218:	f021 0102 	bic.w	r1, r1, #2
 800221c:	6099      	str	r1, [r3, #8]
  hadc->Instance->CR2 |= ADC_CR2_CONTINUOUS((uint32_t)hadc->Init.ContinuousConvMode);
 800221e:	689a      	ldr	r2, [r3, #8]
 8002220:	ea42 0245 	orr.w	r2, r2, r5, lsl #1
 8002224:	609a      	str	r2, [r3, #8]
  {
    assert_param(IS_ADC_REGULAR_DISC_NUMBER(hadc->Init.NbrOfDiscConversion));
  
    /* Enable the selected ADC regular discontinuous mode */
    hadc->Instance->CR1 |= (uint32_t)ADC_CR1_DISCEN;
 8002226:	685a      	ldr	r2, [r3, #4]
  if(hadc->Init.DiscontinuousConvMode != DISABLE)
 8002228:	2800      	cmp	r0, #0
 800222a:	d140      	bne.n	80022ae <HAL_ADC_Init+0x13e>
    hadc->Instance->CR1 |=  ADC_CR1_DISCONTINUOUS(hadc->Init.NbrOfDiscConversion);
  }
  else
  {
    /* Disable the selected ADC regular discontinuous mode */
    hadc->Instance->CR1 &= ~(ADC_CR1_DISCEN);
 800222c:	f422 6200 	bic.w	r2, r2, #2048	; 0x800
 8002230:	605a      	str	r2, [r3, #4]
  }
  
  /* Set ADC number of conversion */
  hadc->Instance->SQR1 &= ~(ADC_SQR1_L);
 8002232:	6ada      	ldr	r2, [r3, #44]	; 0x2c
  hadc->Instance->SQR1 |=  ADC_SQR1(hadc->Init.NbrOfConversion);
 8002234:	69e5      	ldr	r5, [r4, #28]
  
  /* Enable or disable ADC DMA continuous request */
  hadc->Instance->CR2 &= ~(ADC_CR2_DDS);
  hadc->Instance->CR2 |= ADC_CR2_DMAContReq((uint32_t)hadc->Init.DMAContinuousRequests);
 8002236:	f894 7030 	ldrb.w	r7, [r4, #48]	; 0x30
  
  /* Enable or disable ADC end of conversion selection */
  hadc->Instance->CR2 &= ~(ADC_CR2_EOCS);
  hadc->Instance->CR2 |= ADC_CR2_EOCSelection(hadc->Init.EOCSelection);
 800223a:	6966      	ldr	r6, [r4, #20]
  hadc->Instance->SQR1 &= ~(ADC_SQR1_L);
 800223c:	f422 0270 	bic.w	r2, r2, #15728640	; 0xf00000
 8002240:	62da      	str	r2, [r3, #44]	; 0x2c
  hadc->Instance->SQR1 |=  ADC_SQR1(hadc->Init.NbrOfConversion);
 8002242:	6ad8      	ldr	r0, [r3, #44]	; 0x2c
 8002244:	3d01      	subs	r5, #1
 8002246:	ea40 5005 	orr.w	r0, r0, r5, lsl #20
 800224a:	62d8      	str	r0, [r3, #44]	; 0x2c
  hadc->Instance->CR2 &= ~(ADC_CR2_DDS);
 800224c:	6898      	ldr	r0, [r3, #8]
 800224e:	f420 7000 	bic.w	r0, r0, #512	; 0x200
 8002252:	6098      	str	r0, [r3, #8]
  hadc->Instance->CR2 |= ADC_CR2_DMAContReq((uint32_t)hadc->Init.DMAContinuousRequests);
 8002254:	6899      	ldr	r1, [r3, #8]
 8002256:	ea41 2147 	orr.w	r1, r1, r7, lsl #9
 800225a:	6099      	str	r1, [r3, #8]
  hadc->Instance->CR2 &= ~(ADC_CR2_EOCS);
 800225c:	6899      	ldr	r1, [r3, #8]
 800225e:	f421 6180 	bic.w	r1, r1, #1024	; 0x400
 8002262:	6099      	str	r1, [r3, #8]
  hadc->Instance->CR2 |= ADC_CR2_EOCSelection(hadc->Init.EOCSelection);
 8002264:	689a      	ldr	r2, [r3, #8]
    ADC_CLEAR_ERRORCODE(hadc);
 8002266:	2000      	movs	r0, #0
  hadc->Instance->CR2 |= ADC_CR2_EOCSelection(hadc->Init.EOCSelection);
 8002268:	ea42 2286 	orr.w	r2, r2, r6, lsl #10
 800226c:	609a      	str	r2, [r3, #8]
    ADC_CLEAR_ERRORCODE(hadc);
 800226e:	6460      	str	r0, [r4, #68]	; 0x44
    ADC_STATE_CLR_SET(hadc->State,
 8002270:	6c23      	ldr	r3, [r4, #64]	; 0x40
 8002272:	f023 0303 	bic.w	r3, r3, #3
 8002276:	f043 0301 	orr.w	r3, r3, #1
 800227a:	6423      	str	r3, [r4, #64]	; 0x40
  __HAL_UNLOCK(hadc);
 800227c:	2300      	movs	r3, #0
 800227e:	f884 303c 	strb.w	r3, [r4, #60]	; 0x3c
}
 8002282:	bdf8      	pop	{r3, r4, r5, r6, r7, pc}
    HAL_ADC_MspInit(hadc);
 8002284:	f7ff fc60 	bl	8001b48 <HAL_ADC_MspInit>
    ADC_CLEAR_ERRORCODE(hadc);
 8002288:	6465      	str	r5, [r4, #68]	; 0x44
  if (HAL_IS_BIT_CLR(hadc->State, HAL_ADC_STATE_ERROR_INTERNAL))
 800228a:	6c23      	ldr	r3, [r4, #64]	; 0x40
    hadc->Lock = HAL_UNLOCKED;
 800228c:	f884 503c 	strb.w	r5, [r4, #60]	; 0x3c
  if (HAL_IS_BIT_CLR(hadc->State, HAL_ADC_STATE_ERROR_INTERNAL))
 8002290:	06db      	lsls	r3, r3, #27
 8002292:	f53f af79 	bmi.w	8002188 <HAL_ADC_Init+0x18>
 8002296:	e77c      	b.n	8002192 <HAL_ADC_Init+0x22>
    return HAL_ERROR;
 8002298:	2001      	movs	r0, #1
}
 800229a:	4770      	bx	lr
    hadc->Instance->CR2 &= ~(ADC_CR2_EXTSEL);
 800229c:	689a      	ldr	r2, [r3, #8]
 800229e:	f022 6270 	bic.w	r2, r2, #251658240	; 0xf000000
 80022a2:	609a      	str	r2, [r3, #8]
    hadc->Instance->CR2 &= ~(ADC_CR2_EXTEN);
 80022a4:	689a      	ldr	r2, [r3, #8]
 80022a6:	f022 5240 	bic.w	r2, r2, #805306368	; 0x30000000
 80022aa:	609a      	str	r2, [r3, #8]
 80022ac:	e7b0      	b.n	8002210 <HAL_ADC_Init+0xa0>
    hadc->Instance->CR1 |= (uint32_t)ADC_CR1_DISCEN;
 80022ae:	f442 6200 	orr.w	r2, r2, #2048	; 0x800
    hadc->Instance->CR1 |=  ADC_CR1_DISCONTINUOUS(hadc->Init.NbrOfDiscConversion);
 80022b2:	6a61      	ldr	r1, [r4, #36]	; 0x24
    hadc->Instance->CR1 |= (uint32_t)ADC_CR1_DISCEN;
 80022b4:	605a      	str	r2, [r3, #4]
    hadc->Instance->CR1 &= ~(ADC_CR1_DISCNUM);
 80022b6:	685a      	ldr	r2, [r3, #4]
 80022b8:	f422 4260 	bic.w	r2, r2, #57344	; 0xe000
 80022bc:	605a      	str	r2, [r3, #4]
    hadc->Instance->CR1 |=  ADC_CR1_DISCONTINUOUS(hadc->Init.NbrOfDiscConversion);
 80022be:	685a      	ldr	r2, [r3, #4]
 80022c0:	3901      	subs	r1, #1
 80022c2:	ea42 3241 	orr.w	r2, r2, r1, lsl #13
 80022c6:	605a      	str	r2, [r3, #4]
 80022c8:	e7b3      	b.n	8002232 <HAL_ADC_Init+0xc2>
 80022ca:	bf00      	nop
 80022cc:	40012300 	.word	0x40012300
 80022d0:	0f000001 	.word	0x0f000001

080022d4 <HAL_ADC_Start_DMA>:
{
 80022d4:	b5f0      	push	{r4, r5, r6, r7, lr}
  __HAL_LOCK(hadc);
 80022d6:	f890 303c 	ldrb.w	r3, [r0, #60]	; 0x3c
{
 80022da:	b083      	sub	sp, #12
  __IO uint32_t counter = 0U;
 80022dc:	2400      	movs	r4, #0
  __HAL_LOCK(hadc);
 80022de:	2b01      	cmp	r3, #1
  __IO uint32_t counter = 0U;
 80022e0:	9401      	str	r4, [sp, #4]
  __HAL_LOCK(hadc);
 80022e2:	f000 8081 	beq.w	80023e8 <HAL_ADC_Start_DMA+0x114>
  if((hadc->Instance->CR2 & ADC_CR2_ADON) != ADC_CR2_ADON)
 80022e6:	6805      	ldr	r5, [r0, #0]
 80022e8:	68ab      	ldr	r3, [r5, #8]
  __HAL_LOCK(hadc);
 80022ea:	2401      	movs	r4, #1
  if((hadc->Instance->CR2 & ADC_CR2_ADON) != ADC_CR2_ADON)
 80022ec:	07df      	lsls	r7, r3, #31
  __HAL_LOCK(hadc);
 80022ee:	f880 403c 	strb.w	r4, [r0, #60]	; 0x3c
  if((hadc->Instance->CR2 & ADC_CR2_ADON) != ADC_CR2_ADON)
 80022f2:	d414      	bmi.n	800231e <HAL_ADC_Start_DMA+0x4a>
    counter = (ADC_STAB_DELAY_US * (SystemCoreClock / 1000000U));
 80022f4:	4b40      	ldr	r3, [pc, #256]	; (80023f8 <HAL_ADC_Start_DMA+0x124>)
 80022f6:	4e41      	ldr	r6, [pc, #260]	; (80023fc <HAL_ADC_Start_DMA+0x128>)
 80022f8:	681c      	ldr	r4, [r3, #0]
    __HAL_ADC_ENABLE(hadc);
 80022fa:	68ab      	ldr	r3, [r5, #8]
    counter = (ADC_STAB_DELAY_US * (SystemCoreClock / 1000000U));
 80022fc:	fba6 6404 	umull	r6, r4, r6, r4
 8002300:	0ca4      	lsrs	r4, r4, #18
    __HAL_ADC_ENABLE(hadc);
 8002302:	f043 0301 	orr.w	r3, r3, #1
    counter = (ADC_STAB_DELAY_US * (SystemCoreClock / 1000000U));
 8002306:	eb04 0444 	add.w	r4, r4, r4, lsl #1
    __HAL_ADC_ENABLE(hadc);
 800230a:	60ab      	str	r3, [r5, #8]
    counter = (ADC_STAB_DELAY_US * (SystemCoreClock / 1000000U));
 800230c:	9401      	str	r4, [sp, #4]
    while(counter != 0U)
 800230e:	9b01      	ldr	r3, [sp, #4]
 8002310:	b12b      	cbz	r3, 800231e <HAL_ADC_Start_DMA+0x4a>
      counter--;
 8002312:	9c01      	ldr	r4, [sp, #4]
 8002314:	3c01      	subs	r4, #1
 8002316:	9401      	str	r4, [sp, #4]
    while(counter != 0U)
 8002318:	9c01      	ldr	r4, [sp, #4]
 800231a:	2c00      	cmp	r4, #0
 800231c:	d1f9      	bne.n	8002312 <HAL_ADC_Start_DMA+0x3e>
  if(HAL_IS_BIT_SET(hadc->Instance->CR2, ADC_CR2_ADON))
 800231e:	68ab      	ldr	r3, [r5, #8]
 8002320:	07de      	lsls	r6, r3, #31
 8002322:	d543      	bpl.n	80023ac <HAL_ADC_Start_DMA+0xd8>
    ADC_STATE_CLR_SET(hadc->State,
 8002324:	6c04      	ldr	r4, [r0, #64]	; 0x40
 8002326:	f424 64e0 	bic.w	r4, r4, #1792	; 0x700
 800232a:	f024 0401 	bic.w	r4, r4, #1
 800232e:	f444 7480 	orr.w	r4, r4, #256	; 0x100
 8002332:	6404      	str	r4, [r0, #64]	; 0x40
    if (READ_BIT(hadc->Instance->CR1, ADC_CR1_JAUTO) != RESET)
 8002334:	686b      	ldr	r3, [r5, #4]
 8002336:	055c      	lsls	r4, r3, #21
 8002338:	d505      	bpl.n	8002346 <HAL_ADC_Start_DMA+0x72>
      ADC_STATE_CLR_SET(hadc->State, HAL_ADC_STATE_INJ_EOC, HAL_ADC_STATE_INJ_BUSY);  
 800233a:	6c03      	ldr	r3, [r0, #64]	; 0x40
 800233c:	f423 5340 	bic.w	r3, r3, #12288	; 0x3000
 8002340:	f443 5380 	orr.w	r3, r3, #4096	; 0x1000
 8002344:	6403      	str	r3, [r0, #64]	; 0x40
    if (HAL_IS_BIT_SET(hadc->State, HAL_ADC_STATE_INJ_BUSY))
 8002346:	6c03      	ldr	r3, [r0, #64]	; 0x40
    hadc->DMA_Handle->XferCpltCallback = ADC_DMAConvCplt;
 8002348:	4e2d      	ldr	r6, [pc, #180]	; (8002400 <HAL_ADC_Start_DMA+0x12c>)
    if (HAL_IS_BIT_SET(hadc->State, HAL_ADC_STATE_INJ_BUSY))
 800234a:	f413 5380 	ands.w	r3, r3, #4096	; 0x1000
      CLEAR_BIT(hadc->ErrorCode, (HAL_ADC_ERROR_OVR | HAL_ADC_ERROR_DMA));         
 800234e:	bf1c      	itt	ne
 8002350:	6c43      	ldrne	r3, [r0, #68]	; 0x44
 8002352:	f023 0306 	bicne.w	r3, r3, #6
      ADC_CLEAR_ERRORCODE(hadc);
 8002356:	6443      	str	r3, [r0, #68]	; 0x44
 8002358:	4604      	mov	r4, r0
    hadc->DMA_Handle->XferCpltCallback = ADC_DMAConvCplt;
 800235a:	6b80      	ldr	r0, [r0, #56]	; 0x38
 800235c:	4613      	mov	r3, r2
    __HAL_UNLOCK(hadc);   
 800235e:	2700      	movs	r7, #0
    hadc->DMA_Handle->XferHalfCpltCallback = ADC_DMAHalfConvCplt;
 8002360:	4a28      	ldr	r2, [pc, #160]	; (8002404 <HAL_ADC_Start_DMA+0x130>)
    __HAL_UNLOCK(hadc);   
 8002362:	f884 703c 	strb.w	r7, [r4, #60]	; 0x3c
    hadc->DMA_Handle->XferCpltCallback = ADC_DMAConvCplt;
 8002366:	63c6      	str	r6, [r0, #60]	; 0x3c
    hadc->DMA_Handle->XferHalfCpltCallback = ADC_DMAHalfConvCplt;
 8002368:	6402      	str	r2, [r0, #64]	; 0x40
    hadc->DMA_Handle->XferErrorCallback = ADC_DMAError;
 800236a:	4e27      	ldr	r6, [pc, #156]	; (8002408 <HAL_ADC_Start_DMA+0x134>)
 800236c:	64c6      	str	r6, [r0, #76]	; 0x4c
    __HAL_ADC_CLEAR_FLAG(hadc, ADC_FLAG_EOC | ADC_FLAG_OVR);
 800236e:	f06f 0222 	mvn.w	r2, #34	; 0x22
 8002372:	602a      	str	r2, [r5, #0]
    __HAL_ADC_ENABLE_IT(hadc, ADC_IT_OVR);
 8002374:	686e      	ldr	r6, [r5, #4]
 8002376:	f046 6680 	orr.w	r6, r6, #67108864	; 0x4000000
 800237a:	606e      	str	r6, [r5, #4]
    hadc->Instance->CR2 |= ADC_CR2_DMA;
 800237c:	68ae      	ldr	r6, [r5, #8]
 800237e:	f446 7680 	orr.w	r6, r6, #256	; 0x100
    HAL_DMA_Start_IT(hadc->DMA_Handle, (uint32_t)&hadc->Instance->DR, (uint32_t)pData, Length);
 8002382:	460a      	mov	r2, r1
    hadc->Instance->CR2 |= ADC_CR2_DMA;
 8002384:	60ae      	str	r6, [r5, #8]
    HAL_DMA_Start_IT(hadc->DMA_Handle, (uint32_t)&hadc->Instance->DR, (uint32_t)pData, Length);
 8002386:	f105 014c 	add.w	r1, r5, #76	; 0x4c
 800238a:	f000 fa45 	bl	8002818 <HAL_DMA_Start_IT>
    if(HAL_IS_BIT_CLR(tmpADC_Common->CCR, ADC_CCR_MULTI))
 800238e:	4b1f      	ldr	r3, [pc, #124]	; (800240c <HAL_ADC_Start_DMA+0x138>)
 8002390:	685a      	ldr	r2, [r3, #4]
 8002392:	06d2      	lsls	r2, r2, #27
 8002394:	d10d      	bne.n	80023b2 <HAL_ADC_Start_DMA+0xde>
      if((hadc->Instance == ADC1) || ((hadc->Instance == ADC2) && ((ADC->CCR & ADC_CCR_MULTI_Msk) < ADC_CCR_MULTI_0)) \
 8002396:	6822      	ldr	r2, [r4, #0]
 8002398:	491d      	ldr	r1, [pc, #116]	; (8002410 <HAL_ADC_Start_DMA+0x13c>)
 800239a:	428a      	cmp	r2, r1
 800239c:	d01b      	beq.n	80023d6 <HAL_ADC_Start_DMA+0x102>
 800239e:	f501 7180 	add.w	r1, r1, #256	; 0x100
 80023a2:	428a      	cmp	r2, r1
 80023a4:	d023      	beq.n	80023ee <HAL_ADC_Start_DMA+0x11a>
                                  || ((hadc->Instance == ADC3) && ((ADC->CCR & ADC_CCR_MULTI_Msk) < ADC_CCR_MULTI_4)))
 80023a6:	491b      	ldr	r1, [pc, #108]	; (8002414 <HAL_ADC_Start_DMA+0x140>)
 80023a8:	428a      	cmp	r2, r1
 80023aa:	d00f      	beq.n	80023cc <HAL_ADC_Start_DMA+0xf8>
  return HAL_OK;
 80023ac:	2000      	movs	r0, #0
}
 80023ae:	b003      	add	sp, #12
 80023b0:	bdf0      	pop	{r4, r5, r6, r7, pc}
      if((hadc->Instance == ADC1) && ((hadc->Instance->CR2 & ADC_CR2_EXTEN) == RESET))
 80023b2:	6823      	ldr	r3, [r4, #0]
 80023b4:	4a16      	ldr	r2, [pc, #88]	; (8002410 <HAL_ADC_Start_DMA+0x13c>)
 80023b6:	4293      	cmp	r3, r2
 80023b8:	d1f8      	bne.n	80023ac <HAL_ADC_Start_DMA+0xd8>
 80023ba:	6898      	ldr	r0, [r3, #8]
 80023bc:	f010 5040 	ands.w	r0, r0, #805306368	; 0x30000000
 80023c0:	d1f4      	bne.n	80023ac <HAL_ADC_Start_DMA+0xd8>
          hadc->Instance->CR2 |= (uint32_t)ADC_CR2_SWSTART;
 80023c2:	689a      	ldr	r2, [r3, #8]
 80023c4:	f042 4280 	orr.w	r2, r2, #1073741824	; 0x40000000
 80023c8:	609a      	str	r2, [r3, #8]
 80023ca:	e7f0      	b.n	80023ae <HAL_ADC_Start_DMA+0xda>
                                  || ((hadc->Instance == ADC3) && ((ADC->CCR & ADC_CCR_MULTI_Msk) < ADC_CCR_MULTI_4)))
 80023cc:	685b      	ldr	r3, [r3, #4]
 80023ce:	f003 031f 	and.w	r3, r3, #31
 80023d2:	2b0f      	cmp	r3, #15
 80023d4:	d8ea      	bhi.n	80023ac <HAL_ADC_Start_DMA+0xd8>
        if((hadc->Instance->CR2 & ADC_CR2_EXTEN) == RESET) 
 80023d6:	6890      	ldr	r0, [r2, #8]
 80023d8:	f010 5040 	ands.w	r0, r0, #805306368	; 0x30000000
 80023dc:	d1e6      	bne.n	80023ac <HAL_ADC_Start_DMA+0xd8>
          hadc->Instance->CR2 |= (uint32_t)ADC_CR2_SWSTART;
 80023de:	6893      	ldr	r3, [r2, #8]
 80023e0:	f043 4380 	orr.w	r3, r3, #1073741824	; 0x40000000
 80023e4:	6093      	str	r3, [r2, #8]
 80023e6:	e7e2      	b.n	80023ae <HAL_ADC_Start_DMA+0xda>
  __HAL_LOCK(hadc);
 80023e8:	2002      	movs	r0, #2
}
 80023ea:	b003      	add	sp, #12
 80023ec:	bdf0      	pop	{r4, r5, r6, r7, pc}
      if((hadc->Instance == ADC1) || ((hadc->Instance == ADC2) && ((ADC->CCR & ADC_CCR_MULTI_Msk) < ADC_CCR_MULTI_0)) \
 80023ee:	685b      	ldr	r3, [r3, #4]
 80023f0:	06db      	lsls	r3, r3, #27
 80023f2:	d0f0      	beq.n	80023d6 <HAL_ADC_Start_DMA+0x102>
 80023f4:	e7da      	b.n	80023ac <HAL_ADC_Start_DMA+0xd8>
 80023f6:	bf00      	nop
 80023f8:	20000008 	.word	0x20000008
 80023fc:	431bde83 	.word	0x431bde83
 8002400:	08002449 	.word	0x08002449
 8002404:	08002421 	.word	0x08002421
 8002408:	08002431 	.word	0x08002431
 800240c:	40012300 	.word	0x40012300
 8002410:	40012000 	.word	0x40012000
 8002414:	40012200 	.word	0x40012200

08002418 <HAL_ADC_ConvCpltCallback>:
 8002418:	4770      	bx	lr
 800241a:	bf00      	nop

0800241c <HAL_ADC_ConvHalfCpltCallback>:
 800241c:	4770      	bx	lr
 800241e:	bf00      	nop

08002420 <ADC_DMAHalfConvCplt>:
  * @param  hdma pointer to a DMA_HandleTypeDef structure that contains
  *                the configuration information for the specified DMA module.
  * @retval None
  */
static void ADC_DMAHalfConvCplt(DMA_HandleTypeDef *hdma)   
{
 8002420:	b508      	push	{r3, lr}
  ADC_HandleTypeDef* hadc = ( ADC_HandleTypeDef* )((DMA_HandleTypeDef* )hdma)->Parent;
   /* Half conversion callback */
#if (USE_HAL_ADC_REGISTER_CALLBACKS == 1)
  hadc->ConvHalfCpltCallback(hadc);
#else
  HAL_ADC_ConvHalfCpltCallback(hadc);
 8002422:	6b80      	ldr	r0, [r0, #56]	; 0x38
 8002424:	f7ff fffa 	bl	800241c <HAL_ADC_ConvHalfCpltCallback>
#endif /* USE_HAL_ADC_REGISTER_CALLBACKS */
}
 8002428:	bd08      	pop	{r3, pc}
 800242a:	bf00      	nop

0800242c <HAL_ADC_ErrorCallback>:
 800242c:	4770      	bx	lr
 800242e:	bf00      	nop

08002430 <ADC_DMAError>:
  *                the configuration information for the specified DMA module.
  * @retval None
  */
static void ADC_DMAError(DMA_HandleTypeDef *hdma)   
{
  ADC_HandleTypeDef* hadc = ( ADC_HandleTypeDef* )((DMA_HandleTypeDef* )hdma)->Parent;
 8002430:	6b80      	ldr	r0, [r0, #56]	; 0x38
{
 8002432:	b508      	push	{r3, lr}
  hadc->State= HAL_ADC_STATE_ERROR_DMA;
 8002434:	2340      	movs	r3, #64	; 0x40
 8002436:	6403      	str	r3, [r0, #64]	; 0x40
  /* Set ADC error code to DMA error */
  hadc->ErrorCode |= HAL_ADC_ERROR_DMA;
 8002438:	6c43      	ldr	r3, [r0, #68]	; 0x44
 800243a:	f043 0304 	orr.w	r3, r3, #4
 800243e:	6443      	str	r3, [r0, #68]	; 0x44
   /* Error callback */
#if (USE_HAL_ADC_REGISTER_CALLBACKS == 1)
  hadc->ErrorCallback(hadc);
#else
  HAL_ADC_ErrorCallback(hadc);
 8002440:	f7ff fff4 	bl	800242c <HAL_ADC_ErrorCallback>
#endif /* USE_HAL_ADC_REGISTER_CALLBACKS */
}
 8002444:	bd08      	pop	{r3, pc}
 8002446:	bf00      	nop

08002448 <ADC_DMAConvCplt>:
  ADC_HandleTypeDef* hadc = ( ADC_HandleTypeDef* )((DMA_HandleTypeDef* )hdma)->Parent;
 8002448:	6b83      	ldr	r3, [r0, #56]	; 0x38
  if (HAL_IS_BIT_CLR(hadc->State, HAL_ADC_STATE_ERROR_INTERNAL | HAL_ADC_STATE_ERROR_DMA))
 800244a:	6c1a      	ldr	r2, [r3, #64]	; 0x40
 800244c:	f012 0f50 	tst.w	r2, #80	; 0x50
{
 8002450:	b510      	push	{r4, lr}
    SET_BIT(hadc->State, HAL_ADC_STATE_REG_EOC);
 8002452:	6c1a      	ldr	r2, [r3, #64]	; 0x40
  if (HAL_IS_BIT_CLR(hadc->State, HAL_ADC_STATE_ERROR_INTERNAL | HAL_ADC_STATE_ERROR_DMA))
 8002454:	d123      	bne.n	800249e <ADC_DMAConvCplt+0x56>
    SET_BIT(hadc->State, HAL_ADC_STATE_REG_EOC);
 8002456:	f442 7200 	orr.w	r2, r2, #512	; 0x200
    if(ADC_IS_SOFTWARE_START_REGULAR(hadc)                   &&
 800245a:	6819      	ldr	r1, [r3, #0]
    SET_BIT(hadc->State, HAL_ADC_STATE_REG_EOC);
 800245c:	641a      	str	r2, [r3, #64]	; 0x40
    if(ADC_IS_SOFTWARE_START_REGULAR(hadc)                   &&
 800245e:	688a      	ldr	r2, [r1, #8]
 8002460:	f012 5f40 	tst.w	r2, #805306368	; 0x30000000
 8002464:	d117      	bne.n	8002496 <ADC_DMAConvCplt+0x4e>
 8002466:	7e1a      	ldrb	r2, [r3, #24]
 8002468:	b9aa      	cbnz	r2, 8002496 <ADC_DMAConvCplt+0x4e>
       (HAL_IS_BIT_CLR(hadc->Instance->SQR1, ADC_SQR1_L) || 
 800246a:	6aca      	ldr	r2, [r1, #44]	; 0x2c
       (hadc->Init.ContinuousConvMode == DISABLE)            &&
 800246c:	f412 0f70 	tst.w	r2, #15728640	; 0xf00000
 8002470:	d002      	beq.n	8002478 <ADC_DMAConvCplt+0x30>
        HAL_IS_BIT_CLR(hadc->Instance->CR2, ADC_CR2_EOCS)  )   )
 8002472:	688a      	ldr	r2, [r1, #8]
       (HAL_IS_BIT_CLR(hadc->Instance->SQR1, ADC_SQR1_L) || 
 8002474:	0550      	lsls	r0, r2, #21
 8002476:	d40e      	bmi.n	8002496 <ADC_DMAConvCplt+0x4e>
      __HAL_ADC_DISABLE_IT(hadc, ADC_IT_EOC);
 8002478:	684a      	ldr	r2, [r1, #4]
 800247a:	f022 0220 	bic.w	r2, r2, #32
 800247e:	604a      	str	r2, [r1, #4]
      CLEAR_BIT(hadc->State, HAL_ADC_STATE_REG_BUSY);   
 8002480:	6c1a      	ldr	r2, [r3, #64]	; 0x40
 8002482:	f422 7280 	bic.w	r2, r2, #256	; 0x100
 8002486:	641a      	str	r2, [r3, #64]	; 0x40
      if (HAL_IS_BIT_CLR(hadc->State, HAL_ADC_STATE_INJ_BUSY))
 8002488:	6c1a      	ldr	r2, [r3, #64]	; 0x40
 800248a:	04d1      	lsls	r1, r2, #19
 800248c:	d403      	bmi.n	8002496 <ADC_DMAConvCplt+0x4e>
        SET_BIT(hadc->State, HAL_ADC_STATE_READY);
 800248e:	6c1a      	ldr	r2, [r3, #64]	; 0x40
 8002490:	f042 0201 	orr.w	r2, r2, #1
 8002494:	641a      	str	r2, [r3, #64]	; 0x40
    HAL_ADC_ConvCpltCallback(hadc);
 8002496:	4618      	mov	r0, r3
 8002498:	f7ff ffbe 	bl	8002418 <HAL_ADC_ConvCpltCallback>
}
 800249c:	bd10      	pop	{r4, pc}
    if ((hadc->State & HAL_ADC_STATE_ERROR_INTERNAL) != 0UL)
 800249e:	06d2      	lsls	r2, r2, #27
 80024a0:	d404      	bmi.n	80024ac <ADC_DMAConvCplt+0x64>
      hadc->DMA_Handle->XferErrorCallback(hdma);
 80024a2:	6b9b      	ldr	r3, [r3, #56]	; 0x38
}
 80024a4:	e8bd 4010 	ldmia.w	sp!, {r4, lr}
      hadc->DMA_Handle->XferErrorCallback(hdma);
 80024a8:	6cdb      	ldr	r3, [r3, #76]	; 0x4c
 80024aa:	4718      	bx	r3
      HAL_ADC_ErrorCallback(hadc);
 80024ac:	4618      	mov	r0, r3
 80024ae:	f7ff ffbd 	bl	800242c <HAL_ADC_ErrorCallback>
}
 80024b2:	bd10      	pop	{r4, pc}

080024b4 <HAL_ADC_ConfigChannel>:
{
 80024b4:	b4f0      	push	{r4, r5, r6, r7}
  __HAL_LOCK(hadc);
 80024b6:	f890 303c 	ldrb.w	r3, [r0, #60]	; 0x3c
{
 80024ba:	b082      	sub	sp, #8
  __IO uint32_t counter = 0U;
 80024bc:	2200      	movs	r2, #0
  __HAL_LOCK(hadc);
 80024be:	2b01      	cmp	r3, #1
  __IO uint32_t counter = 0U;
 80024c0:	9201      	str	r2, [sp, #4]
  __HAL_LOCK(hadc);
 80024c2:	f000 8095 	beq.w	80025f0 <HAL_ADC_ConfigChannel+0x13c>
  if (sConfig->Channel > ADC_CHANNEL_9)
 80024c6:	680d      	ldr	r5, [r1, #0]
 80024c8:	688a      	ldr	r2, [r1, #8]
 80024ca:	6803      	ldr	r3, [r0, #0]
  __HAL_LOCK(hadc);
 80024cc:	2401      	movs	r4, #1
  if (sConfig->Channel > ADC_CHANNEL_9)
 80024ce:	2d09      	cmp	r5, #9
 80024d0:	b2af      	uxth	r7, r5
  __HAL_LOCK(hadc);
 80024d2:	f880 403c 	strb.w	r4, [r0, #60]	; 0x3c
  if (sConfig->Channel > ADC_CHANNEL_9)
 80024d6:	d829      	bhi.n	800252c <HAL_ADC_ConfigChannel+0x78>
    hadc->Instance->SMPR2 &= ~ADC_SMPR2(ADC_SMPR2_SMP0, sConfig->Channel);
 80024d8:	691c      	ldr	r4, [r3, #16]
 80024da:	eb05 0645 	add.w	r6, r5, r5, lsl #1
 80024de:	f04f 0c07 	mov.w	ip, #7
 80024e2:	fa0c fc06 	lsl.w	ip, ip, r6
 80024e6:	ea24 040c 	bic.w	r4, r4, ip
 80024ea:	611c      	str	r4, [r3, #16]
    hadc->Instance->SMPR2 |= ADC_SMPR2(sConfig->SamplingTime, sConfig->Channel);
 80024ec:	691c      	ldr	r4, [r3, #16]
 80024ee:	fa02 f606 	lsl.w	r6, r2, r6
 80024f2:	4326      	orrs	r6, r4
 80024f4:	611e      	str	r6, [r3, #16]
  if (sConfig->Rank < 7U)
 80024f6:	684e      	ldr	r6, [r1, #4]
 80024f8:	2e06      	cmp	r6, #6
 80024fa:	eb06 0286 	add.w	r2, r6, r6, lsl #2
 80024fe:	d82a      	bhi.n	8002556 <HAL_ADC_ConfigChannel+0xa2>
    hadc->Instance->SQR3 &= ~ADC_SQR3_RK(ADC_SQR3_SQ1, sConfig->Rank);
 8002500:	6b59      	ldr	r1, [r3, #52]	; 0x34
 8002502:	3a05      	subs	r2, #5
 8002504:	241f      	movs	r4, #31
 8002506:	4094      	lsls	r4, r2
 8002508:	ea21 0104 	bic.w	r1, r1, r4
 800250c:	6359      	str	r1, [r3, #52]	; 0x34
    hadc->Instance->SQR3 |= ADC_SQR3_RK(sConfig->Channel, sConfig->Rank);
 800250e:	6b59      	ldr	r1, [r3, #52]	; 0x34
 8002510:	fa07 f202 	lsl.w	r2, r7, r2
 8002514:	430a      	orrs	r2, r1
 8002516:	635a      	str	r2, [r3, #52]	; 0x34
  if ((hadc->Instance == ADC1) && (sConfig->Channel == ADC_CHANNEL_VBAT))
 8002518:	4a37      	ldr	r2, [pc, #220]	; (80025f8 <HAL_ADC_ConfigChannel+0x144>)
 800251a:	4293      	cmp	r3, r2
 800251c:	d02d      	beq.n	800257a <HAL_ADC_ConfigChannel+0xc6>
  __HAL_UNLOCK(hadc);
 800251e:	2300      	movs	r3, #0
 8002520:	f880 303c 	strb.w	r3, [r0, #60]	; 0x3c
  return HAL_OK;
 8002524:	4618      	mov	r0, r3
}
 8002526:	b002      	add	sp, #8
 8002528:	bcf0      	pop	{r4, r5, r6, r7}
 800252a:	4770      	bx	lr
    hadc->Instance->SMPR1 &= ~ADC_SMPR1(ADC_SMPR1_SMP10, sConfig->Channel);
 800252c:	eb07 0647 	add.w	r6, r7, r7, lsl #1
 8002530:	68dc      	ldr	r4, [r3, #12]
 8002532:	3e1e      	subs	r6, #30
 8002534:	f04f 0c07 	mov.w	ip, #7
 8002538:	fa0c fc06 	lsl.w	ip, ip, r6
 800253c:	ea24 040c 	bic.w	r4, r4, ip
 8002540:	60dc      	str	r4, [r3, #12]
    hadc->Instance->SMPR1 |= ADC_SMPR1(sConfig->SamplingTime, sConfig->Channel);
 8002542:	68dc      	ldr	r4, [r3, #12]
 8002544:	fa02 f606 	lsl.w	r6, r2, r6
 8002548:	4326      	orrs	r6, r4
 800254a:	60de      	str	r6, [r3, #12]
  if (sConfig->Rank < 7U)
 800254c:	684e      	ldr	r6, [r1, #4]
 800254e:	2e06      	cmp	r6, #6
 8002550:	eb06 0286 	add.w	r2, r6, r6, lsl #2
 8002554:	d9d4      	bls.n	8002500 <HAL_ADC_ConfigChannel+0x4c>
  else if (sConfig->Rank < 13U)
 8002556:	2e0c      	cmp	r6, #12
 8002558:	d835      	bhi.n	80025c6 <HAL_ADC_ConfigChannel+0x112>
    hadc->Instance->SQR2 &= ~ADC_SQR2_RK(ADC_SQR2_SQ7, sConfig->Rank);
 800255a:	f1a2 0423 	sub.w	r4, r2, #35	; 0x23
 800255e:	211f      	movs	r1, #31
 8002560:	6b1a      	ldr	r2, [r3, #48]	; 0x30
 8002562:	40a1      	lsls	r1, r4
 8002564:	ea22 0201 	bic.w	r2, r2, r1
 8002568:	631a      	str	r2, [r3, #48]	; 0x30
    hadc->Instance->SQR2 |= ADC_SQR2_RK(sConfig->Channel, sConfig->Rank);
 800256a:	6b19      	ldr	r1, [r3, #48]	; 0x30
 800256c:	fa07 f204 	lsl.w	r2, r7, r4
 8002570:	430a      	orrs	r2, r1
 8002572:	631a      	str	r2, [r3, #48]	; 0x30
  if ((hadc->Instance == ADC1) && (sConfig->Channel == ADC_CHANNEL_VBAT))
 8002574:	4a20      	ldr	r2, [pc, #128]	; (80025f8 <HAL_ADC_ConfigChannel+0x144>)
 8002576:	4293      	cmp	r3, r2
 8002578:	d1d1      	bne.n	800251e <HAL_ADC_ConfigChannel+0x6a>
 800257a:	2d12      	cmp	r5, #18
 800257c:	d031      	beq.n	80025e2 <HAL_ADC_ConfigChannel+0x12e>
  if ((hadc->Instance == ADC1) && ((sConfig->Channel == ADC_CHANNEL_TEMPSENSOR) || (sConfig->Channel == ADC_CHANNEL_VREFINT)))
 800257e:	f1a5 0310 	sub.w	r3, r5, #16
 8002582:	2b01      	cmp	r3, #1
 8002584:	d8cb      	bhi.n	800251e <HAL_ADC_ConfigChannel+0x6a>
    tmpADC_Common->CCR |= ADC_CCR_TSVREFE;
 8002586:	4a1d      	ldr	r2, [pc, #116]	; (80025fc <HAL_ADC_ConfigChannel+0x148>)
 8002588:	6853      	ldr	r3, [r2, #4]
    if((sConfig->Channel == ADC_CHANNEL_TEMPSENSOR))
 800258a:	2d10      	cmp	r5, #16
    tmpADC_Common->CCR |= ADC_CCR_TSVREFE;
 800258c:	f443 0300 	orr.w	r3, r3, #8388608	; 0x800000
 8002590:	6053      	str	r3, [r2, #4]
    if((sConfig->Channel == ADC_CHANNEL_TEMPSENSOR))
 8002592:	d1c4      	bne.n	800251e <HAL_ADC_ConfigChannel+0x6a>
      counter = (ADC_TEMPSENSOR_DELAY_US * (SystemCoreClock / 1000000U));
 8002594:	4b1a      	ldr	r3, [pc, #104]	; (8002600 <HAL_ADC_ConfigChannel+0x14c>)
 8002596:	f102 7246 	add.w	r2, r2, #51904512	; 0x3180000
 800259a:	f502 322e 	add.w	r2, r2, #178176	; 0x2b800
 800259e:	681b      	ldr	r3, [r3, #0]
 80025a0:	f202 3283 	addw	r2, r2, #899	; 0x383
 80025a4:	fba2 2303 	umull	r2, r3, r2, r3
 80025a8:	0c9b      	lsrs	r3, r3, #18
 80025aa:	eb03 0383 	add.w	r3, r3, r3, lsl #2
 80025ae:	005b      	lsls	r3, r3, #1
 80025b0:	9301      	str	r3, [sp, #4]
      while(counter != 0U)
 80025b2:	9b01      	ldr	r3, [sp, #4]
 80025b4:	2b00      	cmp	r3, #0
 80025b6:	d0b2      	beq.n	800251e <HAL_ADC_ConfigChannel+0x6a>
        counter--;
 80025b8:	9b01      	ldr	r3, [sp, #4]
 80025ba:	3b01      	subs	r3, #1
 80025bc:	9301      	str	r3, [sp, #4]
      while(counter != 0U)
 80025be:	9b01      	ldr	r3, [sp, #4]
 80025c0:	2b00      	cmp	r3, #0
 80025c2:	d1f9      	bne.n	80025b8 <HAL_ADC_ConfigChannel+0x104>
 80025c4:	e7ab      	b.n	800251e <HAL_ADC_ConfigChannel+0x6a>
    hadc->Instance->SQR1 &= ~ADC_SQR1_RK(ADC_SQR1_SQ13, sConfig->Rank);
 80025c6:	f1a2 0141 	sub.w	r1, r2, #65	; 0x41
 80025ca:	241f      	movs	r4, #31
 80025cc:	6ada      	ldr	r2, [r3, #44]	; 0x2c
 80025ce:	408c      	lsls	r4, r1
 80025d0:	ea22 0204 	bic.w	r2, r2, r4
 80025d4:	62da      	str	r2, [r3, #44]	; 0x2c
    hadc->Instance->SQR1 |= ADC_SQR1_RK(sConfig->Channel, sConfig->Rank);
 80025d6:	6adc      	ldr	r4, [r3, #44]	; 0x2c
 80025d8:	fa07 f201 	lsl.w	r2, r7, r1
 80025dc:	4322      	orrs	r2, r4
 80025de:	62da      	str	r2, [r3, #44]	; 0x2c
 80025e0:	e79a      	b.n	8002518 <HAL_ADC_ConfigChannel+0x64>
    tmpADC_Common->CCR |= ADC_CCR_VBATE;
 80025e2:	f8d2 3304 	ldr.w	r3, [r2, #772]	; 0x304
 80025e6:	f443 0380 	orr.w	r3, r3, #4194304	; 0x400000
 80025ea:	f8c2 3304 	str.w	r3, [r2, #772]	; 0x304
 80025ee:	e796      	b.n	800251e <HAL_ADC_ConfigChannel+0x6a>
  __HAL_LOCK(hadc);
 80025f0:	2002      	movs	r0, #2
}
 80025f2:	b002      	add	sp, #8
 80025f4:	bcf0      	pop	{r4, r5, r6, r7}
 80025f6:	4770      	bx	lr
 80025f8:	40012000 	.word	0x40012000
 80025fc:	40012300 	.word	0x40012300
 8002600:	20000008 	.word	0x20000008

08002604 <HAL_NVIC_SetPriorityGrouping>:
__STATIC_INLINE void __NVIC_SetPriorityGrouping(uint32_t PriorityGroup)
{
  uint32_t reg_value;
  uint32_t PriorityGroupTmp = (PriorityGroup & (uint32_t)0x07UL);             /* only values 0..7 are used          */

  reg_value  =  SCB->AIRCR;                                                   /* read old register configuration    */
 8002604:	4a07      	ldr	r2, [pc, #28]	; (8002624 <HAL_NVIC_SetPriorityGrouping+0x20>)
 8002606:	68d3      	ldr	r3, [r2, #12]
  reg_value &= ~((uint32_t)(SCB_AIRCR_VECTKEY_Msk | SCB_AIRCR_PRIGROUP_Msk)); /* clear bits to change               */
 8002608:	f64f 01ff 	movw	r1, #63743	; 0xf8ff
 800260c:	400b      	ands	r3, r1
  reg_value  =  (reg_value                                   |
                ((uint32_t)0x5FAUL << SCB_AIRCR_VECTKEY_Pos) |
                (PriorityGroupTmp << SCB_AIRCR_PRIGROUP_Pos)  );              /* Insert write key and priority group */
 800260e:	0200      	lsls	r0, r0, #8
 8002610:	f043 63bf 	orr.w	r3, r3, #100139008	; 0x5f80000
 8002614:	f400 60e0 	and.w	r0, r0, #1792	; 0x700
 8002618:	f443 3300 	orr.w	r3, r3, #131072	; 0x20000
  reg_value  =  (reg_value                                   |
 800261c:	4303      	orrs	r3, r0
  SCB->AIRCR =  reg_value;
 800261e:	60d3      	str	r3, [r2, #12]
  /* Check the parameters */
  assert_param(IS_NVIC_PRIORITY_GROUP(PriorityGroup));
  
  /* Set the PRIGROUP[10:8] bits according to the PriorityGroup parameter value */
  NVIC_SetPriorityGrouping(PriorityGroup);
}
 8002620:	4770      	bx	lr
 8002622:	bf00      	nop
 8002624:	e000ed00 	.word	0xe000ed00

08002628 <HAL_NVIC_SetPriority>:
  \details Reads the priority grouping field from the NVIC Interrupt Controller.
  \return                Priority grouping field (SCB->AIRCR [10:8] PRIGROUP field).
 */
__STATIC_INLINE uint32_t __NVIC_GetPriorityGrouping(void)
{
  return ((uint32_t)((SCB->AIRCR & SCB_AIRCR_PRIGROUP_Msk) >> SCB_AIRCR_PRIGROUP_Pos));
 8002628:	4b18      	ldr	r3, [pc, #96]	; (800268c <HAL_NVIC_SetPriority+0x64>)
 800262a:	68db      	ldr	r3, [r3, #12]
 800262c:	f3c3 2302 	ubfx	r3, r3, #8, #3
  *         This parameter can be a value between 0 and 15
  *         A lower priority value indicates a higher priority.          
  * @retval None
  */
void HAL_NVIC_SetPriority(IRQn_Type IRQn, uint32_t PreemptPriority, uint32_t SubPriority)
{ 
 8002630:	b430      	push	{r4, r5}
{
  uint32_t PriorityGroupTmp = (PriorityGroup & (uint32_t)0x07UL);   /* only values 0..7 are used          */
  uint32_t PreemptPriorityBits;
  uint32_t SubPriorityBits;

  PreemptPriorityBits = ((7UL - PriorityGroupTmp) > (uint32_t)(__NVIC_PRIO_BITS)) ? (uint32_t)(__NVIC_PRIO_BITS) : (uint32_t)(7UL - PriorityGroupTmp);
 8002632:	f1c3 0507 	rsb	r5, r3, #7
 8002636:	2d04      	cmp	r5, #4
  SubPriorityBits     = ((PriorityGroupTmp + (uint32_t)(__NVIC_PRIO_BITS)) < (uint32_t)7UL) ? (uint32_t)0UL : (uint32_t)((PriorityGroupTmp - 7UL) + (uint32_t)(__NVIC_PRIO_BITS));
 8002638:	f103 0404 	add.w	r4, r3, #4
  PreemptPriorityBits = ((7UL - PriorityGroupTmp) > (uint32_t)(__NVIC_PRIO_BITS)) ? (uint32_t)(__NVIC_PRIO_BITS) : (uint32_t)(7UL - PriorityGroupTmp);
 800263c:	bf28      	it	cs
 800263e:	2504      	movcs	r5, #4
  SubPriorityBits     = ((PriorityGroupTmp + (uint32_t)(__NVIC_PRIO_BITS)) < (uint32_t)7UL) ? (uint32_t)0UL : (uint32_t)((PriorityGroupTmp - 7UL) + (uint32_t)(__NVIC_PRIO_BITS));
 8002640:	2c06      	cmp	r4, #6
 8002642:	d919      	bls.n	8002678 <HAL_NVIC_SetPriority+0x50>
 8002644:	3b03      	subs	r3, #3
 8002646:	f04f 34ff 	mov.w	r4, #4294967295
 800264a:	409c      	lsls	r4, r3
 800264c:	ea22 0404 	bic.w	r4, r2, r4

  return (
           ((PreemptPriority & (uint32_t)((1UL << (PreemptPriorityBits)) - 1UL)) << SubPriorityBits) |
 8002650:	f04f 32ff 	mov.w	r2, #4294967295
 8002654:	40aa      	lsls	r2, r5
 8002656:	ea21 0102 	bic.w	r1, r1, r2
 800265a:	fa01 f203 	lsl.w	r2, r1, r3
 800265e:	4322      	orrs	r2, r4
 8002660:	0112      	lsls	r2, r2, #4
  if ((int32_t)(IRQn) >= 0)
 8002662:	2800      	cmp	r0, #0
 8002664:	b2d2      	uxtb	r2, r2
 8002666:	db0a      	blt.n	800267e <HAL_NVIC_SetPriority+0x56>
    NVIC->IP[((uint32_t)IRQn)]               = (uint8_t)((priority << (8U - __NVIC_PRIO_BITS)) & (uint32_t)0xFFUL);
 8002668:	f100 4060 	add.w	r0, r0, #3758096384	; 0xe0000000
 800266c:	f500 4061 	add.w	r0, r0, #57600	; 0xe100
 8002670:	f880 2300 	strb.w	r2, [r0, #768]	; 0x300
  assert_param(IS_NVIC_PREEMPTION_PRIORITY(PreemptPriority));
  
  prioritygroup = NVIC_GetPriorityGrouping();
  
  NVIC_SetPriority(IRQn, NVIC_EncodePriority(prioritygroup, PreemptPriority, SubPriority));
}
 8002674:	bc30      	pop	{r4, r5}
 8002676:	4770      	bx	lr
  SubPriorityBits     = ((PriorityGroupTmp + (uint32_t)(__NVIC_PRIO_BITS)) < (uint32_t)7UL) ? (uint32_t)0UL : (uint32_t)((PriorityGroupTmp - 7UL) + (uint32_t)(__NVIC_PRIO_BITS));
 8002678:	2400      	movs	r4, #0
 800267a:	4623      	mov	r3, r4
 800267c:	e7e8      	b.n	8002650 <HAL_NVIC_SetPriority+0x28>
    SCB->SHP[(((uint32_t)IRQn) & 0xFUL)-4UL] = (uint8_t)((priority << (8U - __NVIC_PRIO_BITS)) & (uint32_t)0xFFUL);
 800267e:	4b04      	ldr	r3, [pc, #16]	; (8002690 <HAL_NVIC_SetPriority+0x68>)
 8002680:	f000 000f 	and.w	r0, r0, #15
 8002684:	4403      	add	r3, r0
 8002686:	761a      	strb	r2, [r3, #24]
 8002688:	bc30      	pop	{r4, r5}
 800268a:	4770      	bx	lr
 800268c:	e000ed00 	.word	0xe000ed00
 8002690:	e000ecfc 	.word	0xe000ecfc

08002694 <HAL_NVIC_EnableIRQ>:
  if ((int32_t)(IRQn) >= 0)
 8002694:	2800      	cmp	r0, #0
 8002696:	db07      	blt.n	80026a8 <HAL_NVIC_EnableIRQ+0x14>
    NVIC->ISER[(((uint32_t)IRQn) >> 5UL)] = (uint32_t)(1UL << (((uint32_t)IRQn) & 0x1FUL));
 8002698:	f000 011f 	and.w	r1, r0, #31
 800269c:	2301      	movs	r3, #1
 800269e:	0940      	lsrs	r0, r0, #5
 80026a0:	4a02      	ldr	r2, [pc, #8]	; (80026ac <HAL_NVIC_EnableIRQ+0x18>)
 80026a2:	408b      	lsls	r3, r1
 80026a4:	f842 3020 	str.w	r3, [r2, r0, lsl #2]
  /* Check the parameters */
  assert_param(IS_NVIC_DEVICE_IRQ(IRQn));
  
  /* Enable interrupt */
  NVIC_EnableIRQ(IRQn);
}
 80026a8:	4770      	bx	lr
 80026aa:	bf00      	nop
 80026ac:	e000e100 	.word	0xe000e100

080026b0 <HAL_SYSTICK_Config>:
           function <b>SysTick_Config</b> is not included. In this case, the file <b><i>device</i>.h</b>
           must contain a vendor-specific implementation of this function.
 */
__STATIC_INLINE uint32_t SysTick_Config(uint32_t ticks)
{
  if ((ticks - 1UL) > SysTick_LOAD_RELOAD_Msk)
 80026b0:	3801      	subs	r0, #1
 80026b2:	f1b0 7f80 	cmp.w	r0, #16777216	; 0x1000000
 80026b6:	d20e      	bcs.n	80026d6 <HAL_SYSTICK_Config+0x26>
  {
    return (1UL);                                                   /* Reload value impossible */
  }

  SysTick->LOAD  = (uint32_t)(ticks - 1UL);                         /* set reload register */
 80026b8:	4b08      	ldr	r3, [pc, #32]	; (80026dc <HAL_SYSTICK_Config+0x2c>)
  * @param  TicksNumb Specifies the ticks Number of ticks between two interrupts.
  * @retval status:  - 0  Function succeeded.
  *                  - 1  Function failed.
  */
uint32_t HAL_SYSTICK_Config(uint32_t TicksNumb)
{
 80026ba:	b410      	push	{r4}
    SCB->SHP[(((uint32_t)IRQn) & 0xFUL)-4UL] = (uint8_t)((priority << (8U - __NVIC_PRIO_BITS)) & (uint32_t)0xFFUL);
 80026bc:	4c08      	ldr	r4, [pc, #32]	; (80026e0 <HAL_SYSTICK_Config+0x30>)
  SysTick->LOAD  = (uint32_t)(ticks - 1UL);                         /* set reload register */
 80026be:	6058      	str	r0, [r3, #4]
    SCB->SHP[(((uint32_t)IRQn) & 0xFUL)-4UL] = (uint8_t)((priority << (8U - __NVIC_PRIO_BITS)) & (uint32_t)0xFFUL);
 80026c0:	20f0      	movs	r0, #240	; 0xf0
 80026c2:	f884 0023 	strb.w	r0, [r4, #35]	; 0x23
  NVIC_SetPriority (SysTick_IRQn, (1UL << __NVIC_PRIO_BITS) - 1UL); /* set Priority for Systick Interrupt */
  SysTick->VAL   = 0UL;                                             /* Load the SysTick Counter Value */
 80026c6:	2200      	movs	r2, #0
  SysTick->CTRL  = SysTick_CTRL_CLKSOURCE_Msk |
 80026c8:	2107      	movs	r1, #7
                   SysTick_CTRL_TICKINT_Msk   |
                   SysTick_CTRL_ENABLE_Msk;                         /* Enable SysTick IRQ and SysTick Timer */
  return (0UL);                                                     /* Function successful */
 80026ca:	4610      	mov	r0, r2
  SysTick->VAL   = 0UL;                                             /* Load the SysTick Counter Value */
 80026cc:	609a      	str	r2, [r3, #8]
  SysTick->CTRL  = SysTick_CTRL_CLKSOURCE_Msk |
 80026ce:	6019      	str	r1, [r3, #0]
   return SysTick_Config(TicksNumb);
}
 80026d0:	f85d 4b04 	ldr.w	r4, [sp], #4
 80026d4:	4770      	bx	lr
    return (1UL);                                                   /* Reload value impossible */
 80026d6:	2001      	movs	r0, #1
 80026d8:	4770      	bx	lr
 80026da:	bf00      	nop
 80026dc:	e000e010 	.word	0xe000e010
 80026e0:	e000ed00 	.word	0xe000ed00

080026e4 <HAL_DMA_Init>:
  * @param  hdma Pointer to a DMA_HandleTypeDef structure that contains
  *               the configuration information for the specified DMA Stream.  
  * @retval HAL status
  */
HAL_StatusTypeDef HAL_DMA_Init(DMA_HandleTypeDef *hdma)
{
 80026e4:	b5f8      	push	{r3, r4, r5, r6, r7, lr}
 80026e6:	4604      	mov	r4, r0
  uint32_t tmp = 0U;
  uint32_t tickstart = HAL_GetTick();
 80026e8:	f7ff fd2a 	bl	8002140 <HAL_GetTick>
  DMA_Base_Registers *regs;

  /* Check the DMA peripheral state */
  if(hdma == NULL)
 80026ec:	2c00      	cmp	r4, #0
 80026ee:	d054      	beq.n	800279a <HAL_DMA_Init+0xb6>
  
  /* Allocate lock resource */
  __HAL_UNLOCK(hdma);

  /* Change DMA peripheral state */
  hdma->State = HAL_DMA_STATE_BUSY;
 80026f0:	2202      	movs	r2, #2
  
  /* Disable the peripheral */
  __HAL_DMA_DISABLE(hdma);
 80026f2:	6823      	ldr	r3, [r4, #0]
  hdma->State = HAL_DMA_STATE_BUSY;
 80026f4:	f884 2035 	strb.w	r2, [r4, #53]	; 0x35
  __HAL_DMA_DISABLE(hdma);
 80026f8:	681a      	ldr	r2, [r3, #0]
  __HAL_UNLOCK(hdma);
 80026fa:	2100      	movs	r1, #0
  __HAL_DMA_DISABLE(hdma);
 80026fc:	f022 0201 	bic.w	r2, r2, #1
  __HAL_UNLOCK(hdma);
 8002700:	f884 1034 	strb.w	r1, [r4, #52]	; 0x34
 8002704:	4605      	mov	r5, r0
  __HAL_DMA_DISABLE(hdma);
 8002706:	601a      	str	r2, [r3, #0]
  
  /* Check if the DMA Stream is effectively disabled */
  while((hdma->Instance->CR & DMA_SxCR_EN) != RESET)
 8002708:	e005      	b.n	8002716 <HAL_DMA_Init+0x32>
  {
    /* Check for the Timeout */
    if((HAL_GetTick() - tickstart ) > HAL_TIMEOUT_DMA_ABORT)
 800270a:	f7ff fd19 	bl	8002140 <HAL_GetTick>
 800270e:	1b40      	subs	r0, r0, r5
 8002710:	2805      	cmp	r0, #5
 8002712:	d83b      	bhi.n	800278c <HAL_DMA_Init+0xa8>
 8002714:	6823      	ldr	r3, [r4, #0]
  while((hdma->Instance->CR & DMA_SxCR_EN) != RESET)
 8002716:	681a      	ldr	r2, [r3, #0]
 8002718:	07d1      	lsls	r1, r2, #31
 800271a:	d4f6      	bmi.n	800270a <HAL_DMA_Init+0x26>
                      DMA_SxCR_PL    | DMA_SxCR_MSIZE  | DMA_SxCR_PSIZE  | \
                      DMA_SxCR_MINC  | DMA_SxCR_PINC   | DMA_SxCR_CIRC   | \
                      DMA_SxCR_DIR   | DMA_SxCR_CT     | DMA_SxCR_DBM));

  /* Prepare the DMA Stream configuration */
  tmp |=  hdma->Init.Channel             | hdma->Init.Direction        |
 800271c:	e9d4 2601 	ldrd	r2, r6, [r4, #4]
          hdma->Init.PeriphInc           | hdma->Init.MemInc           |
 8002720:	e9d4 5103 	ldrd	r5, r1, [r4, #12]
  tmp |=  hdma->Init.Channel             | hdma->Init.Direction        |
 8002724:	4332      	orrs	r2, r6
          hdma->Init.PeriphInc           | hdma->Init.MemInc           |
 8002726:	6960      	ldr	r0, [r4, #20]
  tmp = hdma->Instance->CR;
 8002728:	681f      	ldr	r7, [r3, #0]
  tmp |=  hdma->Init.Channel             | hdma->Init.Direction        |
 800272a:	432a      	orrs	r2, r5
          hdma->Init.PeriphDataAlignment | hdma->Init.MemDataAlignment |
 800272c:	e9d4 6506 	ldrd	r6, r5, [r4, #24]
          hdma->Init.PeriphInc           | hdma->Init.MemInc           |
 8002730:	430a      	orrs	r2, r1
 8002732:	4302      	orrs	r2, r0
          hdma->Init.Mode                | hdma->Init.Priority;
 8002734:	6a21      	ldr	r1, [r4, #32]
  tmp &= ((uint32_t)~(DMA_SxCR_CHSEL | DMA_SxCR_MBURST | DMA_SxCR_PBURST | \
 8002736:	4835      	ldr	r0, [pc, #212]	; (800280c <HAL_DMA_Init+0x128>)
          hdma->Init.PeriphDataAlignment | hdma->Init.MemDataAlignment |
 8002738:	4332      	orrs	r2, r6
 800273a:	432a      	orrs	r2, r5
          hdma->Init.Mode                | hdma->Init.Priority;
 800273c:	430a      	orrs	r2, r1

  /* the Memory burst and peripheral burst are not used when the FIFO is disabled */
  if(hdma->Init.FIFOMode == DMA_FIFOMODE_ENABLE)
 800273e:	6a61      	ldr	r1, [r4, #36]	; 0x24
  tmp &= ((uint32_t)~(DMA_SxCR_CHSEL | DMA_SxCR_MBURST | DMA_SxCR_PBURST | \
 8002740:	4038      	ands	r0, r7
  if(hdma->Init.FIFOMode == DMA_FIFOMODE_ENABLE)
 8002742:	2904      	cmp	r1, #4
  tmp |=  hdma->Init.Channel             | hdma->Init.Direction        |
 8002744:	ea42 0200 	orr.w	r2, r2, r0
  if(hdma->Init.FIFOMode == DMA_FIFOMODE_ENABLE)
 8002748:	d029      	beq.n	800279e <HAL_DMA_Init+0xba>
    /* Get memory burst and peripheral burst */
    tmp |=  hdma->Init.MemBurst | hdma->Init.PeriphBurst;
  }
  
  /* Write to DMA Stream CR register */
  hdma->Instance->CR = tmp;  
 800274a:	601a      	str	r2, [r3, #0]

  /* Get the FCR register value */
  tmp = hdma->Instance->FCR;
 800274c:	695a      	ldr	r2, [r3, #20]

  /* Clear Direct mode and FIFO threshold bits */
  tmp &= (uint32_t)~(DMA_SxFCR_DMDIS | DMA_SxFCR_FTH);
 800274e:	f022 0207 	bic.w	r2, r2, #7

  /* Prepare the DMA Stream FIFO configuration */
  tmp |= hdma->Init.FIFOMode;
 8002752:	4311      	orrs	r1, r2
  *                     the configuration information for the specified DMA Stream. 
  * @retval Stream base address
  */
static uint32_t DMA_CalcBaseAndBitshift(DMA_HandleTypeDef *hdma)
{
  uint32_t stream_number = (((uint32_t)hdma->Instance & 0xFFU) - 16U) / 24U;
 8002754:	b2da      	uxtb	r2, r3
 8002756:	482e      	ldr	r0, [pc, #184]	; (8002810 <HAL_DMA_Init+0x12c>)
  hdma->Instance->FCR = tmp;
 8002758:	6159      	str	r1, [r3, #20]
  uint32_t stream_number = (((uint32_t)hdma->Instance & 0xFFU) - 16U) / 24U;
 800275a:	3a10      	subs	r2, #16
 800275c:	fba0 1202 	umull	r1, r2, r0, r2
 8002760:	0912      	lsrs	r2, r2, #4
  
  /* lookup table for necessary bitshift of flags within status registers */
  static const uint8_t flagBitshiftOffset[8U] = {0U, 6U, 16U, 22U, 0U, 6U, 16U, 22U};
  hdma->StreamIndex = flagBitshiftOffset[stream_number];
 8002762:	492c      	ldr	r1, [pc, #176]	; (8002814 <HAL_DMA_Init+0x130>)
 8002764:	f423 737f 	bic.w	r3, r3, #1020	; 0x3fc
 8002768:	5c89      	ldrb	r1, [r1, r2]
 800276a:	65e1      	str	r1, [r4, #92]	; 0x5c
 800276c:	f023 0303 	bic.w	r3, r3, #3
  
  if (stream_number > 3U)
 8002770:	2a03      	cmp	r2, #3
  {
    /* return pointer to HISR and HIFCR */
    hdma->StreamBaseAddress = (((uint32_t)hdma->Instance & (uint32_t)(~0x3FFU)) + 4U);
 8002772:	bf88      	it	hi
 8002774:	3304      	addhi	r3, #4
  regs->IFCR = 0x3FU << hdma->StreamIndex;
 8002776:	223f      	movs	r2, #63	; 0x3f
 8002778:	408a      	lsls	r2, r1
  hdma->State = HAL_DMA_STATE_READY;
 800277a:	2501      	movs	r5, #1
  hdma->ErrorCode = HAL_DMA_ERROR_NONE;
 800277c:	2100      	movs	r1, #0
  }
  else
  {
    /* return pointer to LISR and LIFCR */
    hdma->StreamBaseAddress = ((uint32_t)hdma->Instance & (uint32_t)(~0x3FFU));
 800277e:	65a3      	str	r3, [r4, #88]	; 0x58
  return HAL_OK;
 8002780:	4608      	mov	r0, r1
  regs->IFCR = 0x3FU << hdma->StreamIndex;
 8002782:	609a      	str	r2, [r3, #8]
  hdma->ErrorCode = HAL_DMA_ERROR_NONE;
 8002784:	6561      	str	r1, [r4, #84]	; 0x54
  hdma->State = HAL_DMA_STATE_READY;
 8002786:	f884 5035 	strb.w	r5, [r4, #53]	; 0x35
}
 800278a:	bdf8      	pop	{r3, r4, r5, r6, r7, pc}
      hdma->State = HAL_DMA_STATE_TIMEOUT;
 800278c:	2303      	movs	r3, #3
      hdma->ErrorCode = HAL_DMA_ERROR_TIMEOUT;
 800278e:	2220      	movs	r2, #32
 8002790:	6562      	str	r2, [r4, #84]	; 0x54
      return HAL_TIMEOUT;
 8002792:	4618      	mov	r0, r3
      hdma->State = HAL_DMA_STATE_TIMEOUT;
 8002794:	f884 3035 	strb.w	r3, [r4, #53]	; 0x35
}
 8002798:	bdf8      	pop	{r3, r4, r5, r6, r7, pc}
    return HAL_ERROR;
 800279a:	2001      	movs	r0, #1
}
 800279c:	bdf8      	pop	{r3, r4, r5, r6, r7, pc}
    tmp |=  hdma->Init.MemBurst | hdma->Init.PeriphBurst;
 800279e:	e9d4 010b 	ldrd	r0, r1, [r4, #44]	; 0x2c
 80027a2:	4301      	orrs	r1, r0
 80027a4:	430a      	orrs	r2, r1
    tmp |= hdma->Init.FIFOThreshold;
 80027a6:	6aa5      	ldr	r5, [r4, #40]	; 0x28
  hdma->Instance->CR = tmp;  
 80027a8:	601a      	str	r2, [r3, #0]
  tmp = hdma->Instance->FCR;
 80027aa:	695a      	ldr	r2, [r3, #20]
    tmp |= hdma->Init.FIFOThreshold;
 80027ac:	f045 0104 	orr.w	r1, r5, #4
  tmp &= (uint32_t)~(DMA_SxFCR_DMDIS | DMA_SxFCR_FTH);
 80027b0:	f022 0207 	bic.w	r2, r2, #7
    tmp |= hdma->Init.FIFOThreshold;
 80027b4:	4311      	orrs	r1, r2
    if (hdma->Init.MemBurst != DMA_MBURST_SINGLE)
 80027b6:	2800      	cmp	r0, #0
 80027b8:	d0cc      	beq.n	8002754 <HAL_DMA_Init+0x70>
{
  HAL_StatusTypeDef status = HAL_OK;
  uint32_t tmp = hdma->Init.FIFOThreshold;
  
  /* Memory Data size equal to Byte */
  if(hdma->Init.MemDataAlignment == DMA_MDATAALIGN_BYTE)
 80027ba:	b17e      	cbz	r6, 80027dc <HAL_DMA_Init+0xf8>
      break;
    }
  }
  
  /* Memory Data size equal to Half-Word */
  else if (hdma->Init.MemDataAlignment == DMA_MDATAALIGN_HALFWORD)
 80027bc:	f5b6 5f00 	cmp.w	r6, #8192	; 0x2000
 80027c0:	d016      	beq.n	80027f0 <HAL_DMA_Init+0x10c>
  }
  
  /* Memory Data size equal to Word */
  else
  {
    switch (tmp)
 80027c2:	2d02      	cmp	r5, #2
 80027c4:	d903      	bls.n	80027ce <HAL_DMA_Init+0xea>
 80027c6:	2d03      	cmp	r5, #3
 80027c8:	d1c4      	bne.n	8002754 <HAL_DMA_Init+0x70>
    case DMA_FIFO_THRESHOLD_HALFFULL:
    case DMA_FIFO_THRESHOLD_3QUARTERSFULL:
      status = HAL_ERROR;
      break;
    case DMA_FIFO_THRESHOLD_FULL:
      if ((hdma->Init.MemBurst & DMA_SxCR_MBURST_1) == DMA_SxCR_MBURST_1)
 80027ca:	01c2      	lsls	r2, r0, #7
 80027cc:	d5c2      	bpl.n	8002754 <HAL_DMA_Init+0x70>
        hdma->State = HAL_DMA_STATE_READY;
 80027ce:	2301      	movs	r3, #1
        hdma->ErrorCode = HAL_DMA_ERROR_PARAM;
 80027d0:	2240      	movs	r2, #64	; 0x40
 80027d2:	6562      	str	r2, [r4, #84]	; 0x54
        return HAL_ERROR; 
 80027d4:	4618      	mov	r0, r3
        hdma->State = HAL_DMA_STATE_READY;
 80027d6:	f884 3035 	strb.w	r3, [r4, #53]	; 0x35
}
 80027da:	bdf8      	pop	{r3, r4, r5, r6, r7, pc}
    switch (tmp)
 80027dc:	2d01      	cmp	r5, #1
 80027de:	d003      	beq.n	80027e8 <HAL_DMA_Init+0x104>
 80027e0:	d3f3      	bcc.n	80027ca <HAL_DMA_Init+0xe6>
 80027e2:	2d02      	cmp	r5, #2
 80027e4:	d1b6      	bne.n	8002754 <HAL_DMA_Init+0x70>
 80027e6:	e7f0      	b.n	80027ca <HAL_DMA_Init+0xe6>
      if (hdma->Init.MemBurst == DMA_MBURST_INC16)
 80027e8:	f1b0 7fc0 	cmp.w	r0, #25165824	; 0x1800000
 80027ec:	d1b2      	bne.n	8002754 <HAL_DMA_Init+0x70>
 80027ee:	e7ee      	b.n	80027ce <HAL_DMA_Init+0xea>
    switch (tmp)
 80027f0:	2d03      	cmp	r5, #3
 80027f2:	d8af      	bhi.n	8002754 <HAL_DMA_Init+0x70>
 80027f4:	a201      	add	r2, pc, #4	; (adr r2, 80027fc <HAL_DMA_Init+0x118>)
 80027f6:	f852 f025 	ldr.w	pc, [r2, r5, lsl #2]
 80027fa:	bf00      	nop
 80027fc:	080027cf 	.word	0x080027cf
 8002800:	080027cb 	.word	0x080027cb
 8002804:	080027cf 	.word	0x080027cf
 8002808:	080027e9 	.word	0x080027e9
 800280c:	f010803f 	.word	0xf010803f
 8002810:	aaaaaaab 	.word	0xaaaaaaab
 8002814:	0800b388 	.word	0x0800b388

08002818 <HAL_DMA_Start_IT>:
{
 8002818:	b4f0      	push	{r4, r5, r6, r7}
  __HAL_LOCK(hdma);
 800281a:	f890 4034 	ldrb.w	r4, [r0, #52]	; 0x34
 800281e:	2c01      	cmp	r4, #1
 8002820:	d035      	beq.n	800288e <HAL_DMA_Start_IT+0x76>
  if(HAL_DMA_STATE_READY == hdma->State)
 8002822:	f890 4035 	ldrb.w	r4, [r0, #53]	; 0x35
  DMA_Base_Registers *regs = (DMA_Base_Registers *)hdma->StreamBaseAddress;
 8002826:	6d86      	ldr	r6, [r0, #88]	; 0x58
  __HAL_LOCK(hdma);
 8002828:	2501      	movs	r5, #1
  if(HAL_DMA_STATE_READY == hdma->State)
 800282a:	42ac      	cmp	r4, r5
  __HAL_LOCK(hdma);
 800282c:	f880 5034 	strb.w	r5, [r0, #52]	; 0x34
  if(HAL_DMA_STATE_READY == hdma->State)
 8002830:	d127      	bne.n	8002882 <HAL_DMA_Start_IT+0x6a>
  hdma->Instance->CR &= (uint32_t)(~DMA_SxCR_DBM);
 8002832:	6804      	ldr	r4, [r0, #0]
    hdma->State = HAL_DMA_STATE_BUSY;
 8002834:	2702      	movs	r7, #2
    hdma->ErrorCode = HAL_DMA_ERROR_NONE;
 8002836:	2500      	movs	r5, #0
    hdma->State = HAL_DMA_STATE_BUSY;
 8002838:	f880 7035 	strb.w	r7, [r0, #53]	; 0x35
    hdma->ErrorCode = HAL_DMA_ERROR_NONE;
 800283c:	6545      	str	r5, [r0, #84]	; 0x54
  hdma->Instance->CR &= (uint32_t)(~DMA_SxCR_DBM);
 800283e:	6825      	ldr	r5, [r4, #0]
  if((hdma->Init.Direction) == DMA_MEMORY_TO_PERIPH)
 8002840:	6887      	ldr	r7, [r0, #8]
  hdma->Instance->CR &= (uint32_t)(~DMA_SxCR_DBM);
 8002842:	f425 2580 	bic.w	r5, r5, #262144	; 0x40000
  if((hdma->Init.Direction) == DMA_MEMORY_TO_PERIPH)
 8002846:	2f40      	cmp	r7, #64	; 0x40
  hdma->Instance->CR &= (uint32_t)(~DMA_SxCR_DBM);
 8002848:	6025      	str	r5, [r4, #0]
  hdma->Instance->NDTR = DataLength;
 800284a:	6063      	str	r3, [r4, #4]
    hdma->Instance->PAR = DstAddress;
 800284c:	bf0a      	itet	eq
 800284e:	60a2      	streq	r2, [r4, #8]
    hdma->Instance->PAR = SrcAddress;
 8002850:	60a1      	strne	r1, [r4, #8]
    hdma->Instance->M0AR = SrcAddress;
 8002852:	60e1      	streq	r1, [r4, #12]
    regs->IFCR = 0x3FU << hdma->StreamIndex;
 8002854:	6dc1      	ldr	r1, [r0, #92]	; 0x5c
    hdma->Instance->M0AR = DstAddress;
 8002856:	bf18      	it	ne
 8002858:	60e2      	strne	r2, [r4, #12]
    regs->IFCR = 0x3FU << hdma->StreamIndex;
 800285a:	233f      	movs	r3, #63	; 0x3f
 800285c:	408b      	lsls	r3, r1
    if(hdma->XferHalfCpltCallback != NULL)
 800285e:	6c02      	ldr	r2, [r0, #64]	; 0x40
    regs->IFCR = 0x3FU << hdma->StreamIndex;
 8002860:	60b3      	str	r3, [r6, #8]
    hdma->Instance->CR  |= DMA_IT_TC | DMA_IT_TE | DMA_IT_DME;
 8002862:	6823      	ldr	r3, [r4, #0]
 8002864:	f043 0316 	orr.w	r3, r3, #22
 8002868:	6023      	str	r3, [r4, #0]
    if(hdma->XferHalfCpltCallback != NULL)
 800286a:	b11a      	cbz	r2, 8002874 <HAL_DMA_Start_IT+0x5c>
      hdma->Instance->CR  |= DMA_IT_HT;
 800286c:	6823      	ldr	r3, [r4, #0]
 800286e:	f043 0308 	orr.w	r3, r3, #8
 8002872:	6023      	str	r3, [r4, #0]
    __HAL_DMA_ENABLE(hdma);
 8002874:	6823      	ldr	r3, [r4, #0]
 8002876:	f043 0301 	orr.w	r3, r3, #1
 800287a:	6023      	str	r3, [r4, #0]
  HAL_StatusTypeDef status = HAL_OK;
 800287c:	2000      	movs	r0, #0
}
 800287e:	bcf0      	pop	{r4, r5, r6, r7}
 8002880:	4770      	bx	lr
    __HAL_UNLOCK(hdma);	  
 8002882:	2300      	movs	r3, #0
 8002884:	f880 3034 	strb.w	r3, [r0, #52]	; 0x34
}
 8002888:	bcf0      	pop	{r4, r5, r6, r7}
    status = HAL_BUSY;
 800288a:	2002      	movs	r0, #2
}
 800288c:	4770      	bx	lr
  __HAL_LOCK(hdma);
 800288e:	2002      	movs	r0, #2
}
 8002890:	bcf0      	pop	{r4, r5, r6, r7}
 8002892:	4770      	bx	lr

08002894 <HAL_DMA_Abort_IT>:
  if(hdma->State != HAL_DMA_STATE_BUSY)
 8002894:	f890 3035 	ldrb.w	r3, [r0, #53]	; 0x35
 8002898:	2b02      	cmp	r3, #2
 800289a:	d003      	beq.n	80028a4 <HAL_DMA_Abort_IT+0x10>
    hdma->ErrorCode = HAL_DMA_ERROR_NO_XFER;
 800289c:	2380      	movs	r3, #128	; 0x80
 800289e:	6543      	str	r3, [r0, #84]	; 0x54
    return HAL_ERROR;
 80028a0:	2001      	movs	r0, #1
 80028a2:	4770      	bx	lr
    __HAL_DMA_DISABLE(hdma);
 80028a4:	6802      	ldr	r2, [r0, #0]
    hdma->State = HAL_DMA_STATE_ABORT;
 80028a6:	2305      	movs	r3, #5
 80028a8:	f880 3035 	strb.w	r3, [r0, #53]	; 0x35
    __HAL_DMA_DISABLE(hdma);
 80028ac:	6813      	ldr	r3, [r2, #0]
 80028ae:	f023 0301 	bic.w	r3, r3, #1
 80028b2:	6013      	str	r3, [r2, #0]
  return HAL_OK;
 80028b4:	2000      	movs	r0, #0
}
 80028b6:	4770      	bx	lr

080028b8 <HAL_DMA_IRQHandler>:
{
 80028b8:	b5f0      	push	{r4, r5, r6, r7, lr}
 80028ba:	b083      	sub	sp, #12
  __IO uint32_t count = 0U;
 80028bc:	2300      	movs	r3, #0
  DMA_Base_Registers *regs = (DMA_Base_Registers *)hdma->StreamBaseAddress;
 80028be:	6d87      	ldr	r7, [r0, #88]	; 0x58
  __IO uint32_t count = 0U;
 80028c0:	9301      	str	r3, [sp, #4]
  if ((tmpisr & (DMA_FLAG_TEIF0_4 << hdma->StreamIndex)) != RESET)
 80028c2:	6dc3      	ldr	r3, [r0, #92]	; 0x5c
  tmpisr = regs->ISR;
 80028c4:	683d      	ldr	r5, [r7, #0]
  uint32_t timeout = SystemCoreClock / 9600U;
 80028c6:	4965      	ldr	r1, [pc, #404]	; (8002a5c <HAL_DMA_IRQHandler+0x1a4>)
  if ((tmpisr & (DMA_FLAG_TEIF0_4 << hdma->StreamIndex)) != RESET)
 80028c8:	2208      	movs	r2, #8
 80028ca:	409a      	lsls	r2, r3
 80028cc:	422a      	tst	r2, r5
{
 80028ce:	4604      	mov	r4, r0
  uint32_t timeout = SystemCoreClock / 9600U;
 80028d0:	680e      	ldr	r6, [r1, #0]
  if ((tmpisr & (DMA_FLAG_TEIF0_4 << hdma->StreamIndex)) != RESET)
 80028d2:	d003      	beq.n	80028dc <HAL_DMA_IRQHandler+0x24>
    if(__HAL_DMA_GET_IT_SOURCE(hdma, DMA_IT_TE) != RESET)
 80028d4:	6801      	ldr	r1, [r0, #0]
 80028d6:	6808      	ldr	r0, [r1, #0]
 80028d8:	0740      	lsls	r0, r0, #29
 80028da:	d459      	bmi.n	8002990 <HAL_DMA_IRQHandler+0xd8>
  if ((tmpisr & (DMA_FLAG_FEIF0_4 << hdma->StreamIndex)) != RESET)
 80028dc:	2201      	movs	r2, #1
 80028de:	409a      	lsls	r2, r3
 80028e0:	422a      	tst	r2, r5
 80028e2:	d003      	beq.n	80028ec <HAL_DMA_IRQHandler+0x34>
    if(__HAL_DMA_GET_IT_SOURCE(hdma, DMA_IT_FE) != RESET)
 80028e4:	6821      	ldr	r1, [r4, #0]
 80028e6:	6949      	ldr	r1, [r1, #20]
 80028e8:	0608      	lsls	r0, r1, #24
 80028ea:	d474      	bmi.n	80029d6 <HAL_DMA_IRQHandler+0x11e>
  if ((tmpisr & (DMA_FLAG_DMEIF0_4 << hdma->StreamIndex)) != RESET)
 80028ec:	2204      	movs	r2, #4
 80028ee:	409a      	lsls	r2, r3
 80028f0:	422a      	tst	r2, r5
 80028f2:	d003      	beq.n	80028fc <HAL_DMA_IRQHandler+0x44>
    if(__HAL_DMA_GET_IT_SOURCE(hdma, DMA_IT_DME) != RESET)
 80028f4:	6821      	ldr	r1, [r4, #0]
 80028f6:	6809      	ldr	r1, [r1, #0]
 80028f8:	0789      	lsls	r1, r1, #30
 80028fa:	d466      	bmi.n	80029ca <HAL_DMA_IRQHandler+0x112>
  if ((tmpisr & (DMA_FLAG_HTIF0_4 << hdma->StreamIndex)) != RESET)
 80028fc:	2210      	movs	r2, #16
 80028fe:	409a      	lsls	r2, r3
 8002900:	422a      	tst	r2, r5
 8002902:	d003      	beq.n	800290c <HAL_DMA_IRQHandler+0x54>
    if(__HAL_DMA_GET_IT_SOURCE(hdma, DMA_IT_HT) != RESET)
 8002904:	6821      	ldr	r1, [r4, #0]
 8002906:	6808      	ldr	r0, [r1, #0]
 8002908:	0700      	lsls	r0, r0, #28
 800290a:	d44b      	bmi.n	80029a4 <HAL_DMA_IRQHandler+0xec>
  if ((tmpisr & (DMA_FLAG_TCIF0_4 << hdma->StreamIndex)) != RESET)
 800290c:	2220      	movs	r2, #32
 800290e:	409a      	lsls	r2, r3
 8002910:	422a      	tst	r2, r5
 8002912:	d014      	beq.n	800293e <HAL_DMA_IRQHandler+0x86>
    if(__HAL_DMA_GET_IT_SOURCE(hdma, DMA_IT_TC) != RESET)
 8002914:	6821      	ldr	r1, [r4, #0]
 8002916:	6808      	ldr	r0, [r1, #0]
 8002918:	06c0      	lsls	r0, r0, #27
 800291a:	d510      	bpl.n	800293e <HAL_DMA_IRQHandler+0x86>
      regs->IFCR = DMA_FLAG_TCIF0_4 << hdma->StreamIndex;
 800291c:	60ba      	str	r2, [r7, #8]
      if(HAL_DMA_STATE_ABORT == hdma->State)
 800291e:	f894 2035 	ldrb.w	r2, [r4, #53]	; 0x35
 8002922:	2a05      	cmp	r2, #5
 8002924:	d063      	beq.n	80029ee <HAL_DMA_IRQHandler+0x136>
      if(((hdma->Instance->CR) & (uint32_t)(DMA_SxCR_DBM)) != RESET)
 8002926:	680b      	ldr	r3, [r1, #0]
 8002928:	f413 2f80 	tst.w	r3, #262144	; 0x40000
        if((hdma->Instance->CR & DMA_SxCR_CT) == RESET)
 800292c:	680b      	ldr	r3, [r1, #0]
      if(((hdma->Instance->CR) & (uint32_t)(DMA_SxCR_DBM)) != RESET)
 800292e:	d07e      	beq.n	8002a2e <HAL_DMA_IRQHandler+0x176>
        if((hdma->Instance->CR & DMA_SxCR_CT) == RESET)
 8002930:	0319      	lsls	r1, r3, #12
 8002932:	f140 8089 	bpl.w	8002a48 <HAL_DMA_IRQHandler+0x190>
        if(hdma->XferCpltCallback != NULL)
 8002936:	6be3      	ldr	r3, [r4, #60]	; 0x3c
 8002938:	b10b      	cbz	r3, 800293e <HAL_DMA_IRQHandler+0x86>
          hdma->XferCpltCallback(hdma);
 800293a:	4620      	mov	r0, r4
 800293c:	4798      	blx	r3
  if(hdma->ErrorCode != HAL_DMA_ERROR_NONE)
 800293e:	6d63      	ldr	r3, [r4, #84]	; 0x54
 8002940:	b323      	cbz	r3, 800298c <HAL_DMA_IRQHandler+0xd4>
    if((hdma->ErrorCode & HAL_DMA_ERROR_TE) != RESET)
 8002942:	6d63      	ldr	r3, [r4, #84]	; 0x54
 8002944:	07da      	lsls	r2, r3, #31
 8002946:	d51a      	bpl.n	800297e <HAL_DMA_IRQHandler+0xc6>
      hdma->State = HAL_DMA_STATE_ABORT;
 8002948:	2305      	movs	r3, #5
      __HAL_DMA_DISABLE(hdma);
 800294a:	6822      	ldr	r2, [r4, #0]
      hdma->State = HAL_DMA_STATE_ABORT;
 800294c:	f884 3035 	strb.w	r3, [r4, #53]	; 0x35
      __HAL_DMA_DISABLE(hdma);
 8002950:	6813      	ldr	r3, [r2, #0]
  uint32_t timeout = SystemCoreClock / 9600U;
 8002952:	4943      	ldr	r1, [pc, #268]	; (8002a60 <HAL_DMA_IRQHandler+0x1a8>)
      __HAL_DMA_DISABLE(hdma);
 8002954:	f023 0301 	bic.w	r3, r3, #1
  uint32_t timeout = SystemCoreClock / 9600U;
 8002958:	fba1 1606 	umull	r1, r6, r1, r6
      __HAL_DMA_DISABLE(hdma);
 800295c:	6013      	str	r3, [r2, #0]
  uint32_t timeout = SystemCoreClock / 9600U;
 800295e:	0ab6      	lsrs	r6, r6, #10
 8002960:	e002      	b.n	8002968 <HAL_DMA_IRQHandler+0xb0>
      while((hdma->Instance->CR & DMA_SxCR_EN) != RESET);
 8002962:	6813      	ldr	r3, [r2, #0]
 8002964:	07db      	lsls	r3, r3, #31
 8002966:	d504      	bpl.n	8002972 <HAL_DMA_IRQHandler+0xba>
        if (++count > timeout)
 8002968:	9b01      	ldr	r3, [sp, #4]
 800296a:	3301      	adds	r3, #1
 800296c:	42b3      	cmp	r3, r6
 800296e:	9301      	str	r3, [sp, #4]
 8002970:	d9f7      	bls.n	8002962 <HAL_DMA_IRQHandler+0xaa>
      __HAL_UNLOCK(hdma);
 8002972:	2200      	movs	r2, #0
      hdma->State = HAL_DMA_STATE_READY;
 8002974:	2301      	movs	r3, #1
      __HAL_UNLOCK(hdma);
 8002976:	f884 2034 	strb.w	r2, [r4, #52]	; 0x34
      hdma->State = HAL_DMA_STATE_READY;
 800297a:	f884 3035 	strb.w	r3, [r4, #53]	; 0x35
    if(hdma->XferErrorCallback != NULL)
 800297e:	6ce3      	ldr	r3, [r4, #76]	; 0x4c
 8002980:	b123      	cbz	r3, 800298c <HAL_DMA_IRQHandler+0xd4>
      hdma->XferErrorCallback(hdma);
 8002982:	4620      	mov	r0, r4
}
 8002984:	b003      	add	sp, #12
 8002986:	e8bd 40f0 	ldmia.w	sp!, {r4, r5, r6, r7, lr}
      hdma->XferErrorCallback(hdma);
 800298a:	4718      	bx	r3
}
 800298c:	b003      	add	sp, #12
 800298e:	bdf0      	pop	{r4, r5, r6, r7, pc}
      hdma->Instance->CR  &= ~(DMA_IT_TE);
 8002990:	6808      	ldr	r0, [r1, #0]
 8002992:	f020 0004 	bic.w	r0, r0, #4
 8002996:	6008      	str	r0, [r1, #0]
      regs->IFCR = DMA_FLAG_TEIF0_4 << hdma->StreamIndex;
 8002998:	60ba      	str	r2, [r7, #8]
      hdma->ErrorCode |= HAL_DMA_ERROR_TE;
 800299a:	6d62      	ldr	r2, [r4, #84]	; 0x54
 800299c:	f042 0201 	orr.w	r2, r2, #1
 80029a0:	6562      	str	r2, [r4, #84]	; 0x54
 80029a2:	e79b      	b.n	80028dc <HAL_DMA_IRQHandler+0x24>
      regs->IFCR = DMA_FLAG_HTIF0_4 << hdma->StreamIndex;
 80029a4:	60ba      	str	r2, [r7, #8]
      if(((hdma->Instance->CR) & (uint32_t)(DMA_SxCR_DBM)) != RESET)
 80029a6:	680a      	ldr	r2, [r1, #0]
 80029a8:	f412 2f80 	tst.w	r2, #262144	; 0x40000
        if((hdma->Instance->CR & DMA_SxCR_CT) == RESET)
 80029ac:	680a      	ldr	r2, [r1, #0]
      if(((hdma->Instance->CR) & (uint32_t)(DMA_SxCR_DBM)) != RESET)
 80029ae:	d118      	bne.n	80029e2 <HAL_DMA_IRQHandler+0x12a>
        if((hdma->Instance->CR & DMA_SxCR_CIRC) == RESET)
 80029b0:	05d2      	lsls	r2, r2, #23
 80029b2:	d403      	bmi.n	80029bc <HAL_DMA_IRQHandler+0x104>
          hdma->Instance->CR  &= ~(DMA_IT_HT);
 80029b4:	680a      	ldr	r2, [r1, #0]
 80029b6:	f022 0208 	bic.w	r2, r2, #8
 80029ba:	600a      	str	r2, [r1, #0]
        if(hdma->XferHalfCpltCallback != NULL)
 80029bc:	6c22      	ldr	r2, [r4, #64]	; 0x40
 80029be:	2a00      	cmp	r2, #0
 80029c0:	d0a4      	beq.n	800290c <HAL_DMA_IRQHandler+0x54>
          hdma->XferHalfCpltCallback(hdma);
 80029c2:	4620      	mov	r0, r4
 80029c4:	4790      	blx	r2
 80029c6:	6de3      	ldr	r3, [r4, #92]	; 0x5c
 80029c8:	e7a0      	b.n	800290c <HAL_DMA_IRQHandler+0x54>
      regs->IFCR = DMA_FLAG_DMEIF0_4 << hdma->StreamIndex;
 80029ca:	60ba      	str	r2, [r7, #8]
      hdma->ErrorCode |= HAL_DMA_ERROR_DME;
 80029cc:	6d62      	ldr	r2, [r4, #84]	; 0x54
 80029ce:	f042 0204 	orr.w	r2, r2, #4
 80029d2:	6562      	str	r2, [r4, #84]	; 0x54
 80029d4:	e792      	b.n	80028fc <HAL_DMA_IRQHandler+0x44>
      regs->IFCR = DMA_FLAG_FEIF0_4 << hdma->StreamIndex;
 80029d6:	60ba      	str	r2, [r7, #8]
      hdma->ErrorCode |= HAL_DMA_ERROR_FE;
 80029d8:	6d62      	ldr	r2, [r4, #84]	; 0x54
 80029da:	f042 0202 	orr.w	r2, r2, #2
 80029de:	6562      	str	r2, [r4, #84]	; 0x54
 80029e0:	e784      	b.n	80028ec <HAL_DMA_IRQHandler+0x34>
        if((hdma->Instance->CR & DMA_SxCR_CT) == RESET)
 80029e2:	0311      	lsls	r1, r2, #12
 80029e4:	d5ea      	bpl.n	80029bc <HAL_DMA_IRQHandler+0x104>
          if(hdma->XferM1HalfCpltCallback != NULL)
 80029e6:	6ca2      	ldr	r2, [r4, #72]	; 0x48
 80029e8:	2a00      	cmp	r2, #0
 80029ea:	d1ea      	bne.n	80029c2 <HAL_DMA_IRQHandler+0x10a>
 80029ec:	e78e      	b.n	800290c <HAL_DMA_IRQHandler+0x54>
        hdma->Instance->CR  &= ~(DMA_IT_TC | DMA_IT_TE | DMA_IT_DME);
 80029ee:	680a      	ldr	r2, [r1, #0]
        if((hdma->XferHalfCpltCallback != NULL) || (hdma->XferM1HalfCpltCallback != NULL))
 80029f0:	6c20      	ldr	r0, [r4, #64]	; 0x40
        hdma->Instance->CR  &= ~(DMA_IT_TC | DMA_IT_TE | DMA_IT_DME);
 80029f2:	f022 0216 	bic.w	r2, r2, #22
 80029f6:	600a      	str	r2, [r1, #0]
        hdma->Instance->FCR &= ~(DMA_IT_FE);
 80029f8:	694a      	ldr	r2, [r1, #20]
 80029fa:	f022 0280 	bic.w	r2, r2, #128	; 0x80
 80029fe:	614a      	str	r2, [r1, #20]
        if((hdma->XferHalfCpltCallback != NULL) || (hdma->XferM1HalfCpltCallback != NULL))
 8002a00:	b338      	cbz	r0, 8002a52 <HAL_DMA_IRQHandler+0x19a>
          hdma->Instance->CR  &= ~(DMA_IT_HT);
 8002a02:	680a      	ldr	r2, [r1, #0]
 8002a04:	f022 0208 	bic.w	r2, r2, #8
 8002a08:	600a      	str	r2, [r1, #0]
        regs->IFCR = 0x3FU << hdma->StreamIndex;
 8002a0a:	223f      	movs	r2, #63	; 0x3f
        if(hdma->XferAbortCallback != NULL)
 8002a0c:	6d21      	ldr	r1, [r4, #80]	; 0x50
        regs->IFCR = 0x3FU << hdma->StreamIndex;
 8002a0e:	fa02 f303 	lsl.w	r3, r2, r3
        __HAL_UNLOCK(hdma);
 8002a12:	2000      	movs	r0, #0
        hdma->State = HAL_DMA_STATE_READY;
 8002a14:	2201      	movs	r2, #1
        regs->IFCR = 0x3FU << hdma->StreamIndex;
 8002a16:	60bb      	str	r3, [r7, #8]
        __HAL_UNLOCK(hdma);
 8002a18:	f884 0034 	strb.w	r0, [r4, #52]	; 0x34
        hdma->State = HAL_DMA_STATE_READY;
 8002a1c:	f884 2035 	strb.w	r2, [r4, #53]	; 0x35
        if(hdma->XferAbortCallback != NULL)
 8002a20:	2900      	cmp	r1, #0
 8002a22:	d0b3      	beq.n	800298c <HAL_DMA_IRQHandler+0xd4>
          hdma->XferAbortCallback(hdma);
 8002a24:	4620      	mov	r0, r4
}
 8002a26:	b003      	add	sp, #12
 8002a28:	e8bd 40f0 	ldmia.w	sp!, {r4, r5, r6, r7, lr}
          hdma->XferAbortCallback(hdma);
 8002a2c:	4708      	bx	r1
        if((hdma->Instance->CR & DMA_SxCR_CIRC) == RESET)
 8002a2e:	f413 7380 	ands.w	r3, r3, #256	; 0x100
 8002a32:	d180      	bne.n	8002936 <HAL_DMA_IRQHandler+0x7e>
          hdma->Instance->CR  &= ~(DMA_IT_TC);
 8002a34:	680a      	ldr	r2, [r1, #0]
          hdma->State = HAL_DMA_STATE_READY;
 8002a36:	2001      	movs	r0, #1
          hdma->Instance->CR  &= ~(DMA_IT_TC);
 8002a38:	f022 0210 	bic.w	r2, r2, #16
 8002a3c:	600a      	str	r2, [r1, #0]
          __HAL_UNLOCK(hdma);
 8002a3e:	f884 3034 	strb.w	r3, [r4, #52]	; 0x34
          hdma->State = HAL_DMA_STATE_READY;
 8002a42:	f884 0035 	strb.w	r0, [r4, #53]	; 0x35
 8002a46:	e776      	b.n	8002936 <HAL_DMA_IRQHandler+0x7e>
          if(hdma->XferM1CpltCallback != NULL)
 8002a48:	6c63      	ldr	r3, [r4, #68]	; 0x44
 8002a4a:	2b00      	cmp	r3, #0
 8002a4c:	f47f af75 	bne.w	800293a <HAL_DMA_IRQHandler+0x82>
 8002a50:	e775      	b.n	800293e <HAL_DMA_IRQHandler+0x86>
        if((hdma->XferHalfCpltCallback != NULL) || (hdma->XferM1HalfCpltCallback != NULL))
 8002a52:	6ca2      	ldr	r2, [r4, #72]	; 0x48
 8002a54:	2a00      	cmp	r2, #0
 8002a56:	d1d4      	bne.n	8002a02 <HAL_DMA_IRQHandler+0x14a>
 8002a58:	e7d7      	b.n	8002a0a <HAL_DMA_IRQHandler+0x152>
 8002a5a:	bf00      	nop
 8002a5c:	20000008 	.word	0x20000008
 8002a60:	1b4e81b5 	.word	0x1b4e81b5

08002a64 <HAL_GPIO_Init>:
  * @param  GPIO_Init pointer to a GPIO_InitTypeDef structure that contains
  *         the configuration information for the specified GPIO peripheral.
  * @retval None
  */
void HAL_GPIO_Init(GPIO_TypeDef  *GPIOx, GPIO_InitTypeDef *GPIO_Init)
{
 8002a64:	e92d 4ff0 	stmdb	sp!, {r4, r5, r6, r7, r8, r9, sl, fp, lr}
  for(position = 0U; position < GPIO_NUMBER; position++)
  {
    /* Get the IO position */
    ioposition = 0x01U << position;
    /* Get the current IO position */
    iocurrent = (uint32_t)(GPIO_Init->Pin) & ioposition;
 8002a68:	f8d1 8000 	ldr.w	r8, [r1]
        temp &= ~(0x0FU << (4U * (position & 0x03U)));
        temp |= ((uint32_t)(GPIO_GET_INDEX(GPIOx)) << (4U * (position & 0x03U)));
        SYSCFG->EXTICR[position >> 2U] = temp;

        /* Clear EXTI line configuration */
        temp = EXTI->IMR;
 8002a6c:	f8df e1f4 	ldr.w	lr, [pc, #500]	; 8002c64 <HAL_GPIO_Init+0x200>
{
 8002a70:	b083      	sub	sp, #12
  for(position = 0U; position < GPIO_NUMBER; position++)
 8002a72:	2400      	movs	r4, #0
 8002a74:	e003      	b.n	8002a7e <HAL_GPIO_Init+0x1a>
 8002a76:	3401      	adds	r4, #1
 8002a78:	2c10      	cmp	r4, #16
 8002a7a:	f000 808c 	beq.w	8002b96 <HAL_GPIO_Init+0x132>
    ioposition = 0x01U << position;
 8002a7e:	2301      	movs	r3, #1
 8002a80:	40a3      	lsls	r3, r4
    iocurrent = (uint32_t)(GPIO_Init->Pin) & ioposition;
 8002a82:	ea08 0203 	and.w	r2, r8, r3
    if(iocurrent == ioposition)
 8002a86:	4293      	cmp	r3, r2
 8002a88:	d1f5      	bne.n	8002a76 <HAL_GPIO_Init+0x12>
 8002a8a:	e9d1 6501 	ldrd	r6, r5, [r1, #4]
      if((GPIO_Init->Mode == GPIO_MODE_OUTPUT_PP) || (GPIO_Init->Mode == GPIO_MODE_AF_PP) ||
 8002a8e:	f026 0910 	bic.w	r9, r6, #16
 8002a92:	ea4f 0c44 	mov.w	ip, r4, lsl #1
 8002a96:	2303      	movs	r3, #3
 8002a98:	f109 37ff 	add.w	r7, r9, #4294967295
 8002a9c:	fa03 f30c 	lsl.w	r3, r3, ip
 8002aa0:	2f01      	cmp	r7, #1
 8002aa2:	ea6f 0303 	mvn.w	r3, r3
 8002aa6:	fa05 f50c 	lsl.w	r5, r5, ip
 8002aaa:	d977      	bls.n	8002b9c <HAL_GPIO_Init+0x138>
      temp = GPIOx->PUPDR;
 8002aac:	68c7      	ldr	r7, [r0, #12]
      temp &= ~(GPIO_PUPDR_PUPDR0 << (position * 2U));
 8002aae:	401f      	ands	r7, r3
      temp |= ((GPIO_Init->Pull) << (position * 2U));
 8002ab0:	433d      	orrs	r5, r7
      GPIOx->PUPDR = temp;
 8002ab2:	60c5      	str	r5, [r0, #12]
      temp = GPIOx->MODER;
 8002ab4:	6807      	ldr	r7, [r0, #0]
      temp |= ((GPIO_Init->Mode & GPIO_MODE) << (position * 2U));
 8002ab6:	f006 0503 	and.w	r5, r6, #3
      temp &= ~(GPIO_MODER_MODER0 << (position * 2U));
 8002aba:	401f      	ands	r7, r3
      temp |= ((GPIO_Init->Mode & GPIO_MODE) << (position * 2U));
 8002abc:	fa05 f30c 	lsl.w	r3, r5, ip
 8002ac0:	433b      	orrs	r3, r7
      GPIOx->MODER = temp;
 8002ac2:	6003      	str	r3, [r0, #0]
      if((GPIO_Init->Mode & EXTI_MODE) == EXTI_MODE)
 8002ac4:	00f3      	lsls	r3, r6, #3
 8002ac6:	d5d6      	bpl.n	8002a76 <HAL_GPIO_Init+0x12>
        __HAL_RCC_SYSCFG_CLK_ENABLE();
 8002ac8:	4d5f      	ldr	r5, [pc, #380]	; (8002c48 <HAL_GPIO_Init+0x1e4>)
 8002aca:	2300      	movs	r3, #0
 8002acc:	9301      	str	r3, [sp, #4]
 8002ace:	6c6b      	ldr	r3, [r5, #68]	; 0x44
 8002ad0:	f443 4380 	orr.w	r3, r3, #16384	; 0x4000
 8002ad4:	646b      	str	r3, [r5, #68]	; 0x44
 8002ad6:	6c6d      	ldr	r5, [r5, #68]	; 0x44
 8002ad8:	f024 0303 	bic.w	r3, r4, #3
 8002adc:	f405 4580 	and.w	r5, r5, #16384	; 0x4000
 8002ae0:	f103 4380 	add.w	r3, r3, #1073741824	; 0x40000000
 8002ae4:	9501      	str	r5, [sp, #4]
 8002ae6:	f503 339c 	add.w	r3, r3, #79872	; 0x13800
        temp &= ~(0x0FU << (4U * (position & 0x03U)));
 8002aea:	f004 0503 	and.w	r5, r4, #3
 8002aee:	ea4f 0985 	mov.w	r9, r5, lsl #2
        temp |= ((uint32_t)(GPIO_GET_INDEX(GPIOx)) << (4U * (position & 0x03U)));
 8002af2:	4d56      	ldr	r5, [pc, #344]	; (8002c4c <HAL_GPIO_Init+0x1e8>)
        __HAL_RCC_SYSCFG_CLK_ENABLE();
 8002af4:	9f01      	ldr	r7, [sp, #4]
        temp = SYSCFG->EXTICR[position >> 2U];
 8002af6:	f8d3 c008 	ldr.w	ip, [r3, #8]
        temp &= ~(0x0FU << (4U * (position & 0x03U)));
 8002afa:	270f      	movs	r7, #15
 8002afc:	fa07 f709 	lsl.w	r7, r7, r9
        temp |= ((uint32_t)(GPIO_GET_INDEX(GPIOx)) << (4U * (position & 0x03U)));
 8002b00:	42a8      	cmp	r0, r5
        temp &= ~(0x0FU << (4U * (position & 0x03U)));
 8002b02:	ea2c 0707 	bic.w	r7, ip, r7
        temp |= ((uint32_t)(GPIO_GET_INDEX(GPIOx)) << (4U * (position & 0x03U)));
 8002b06:	d01f      	beq.n	8002b48 <HAL_GPIO_Init+0xe4>
 8002b08:	f505 6580 	add.w	r5, r5, #1024	; 0x400
 8002b0c:	42a8      	cmp	r0, r5
 8002b0e:	d076      	beq.n	8002bfe <HAL_GPIO_Init+0x19a>
 8002b10:	4d4f      	ldr	r5, [pc, #316]	; (8002c50 <HAL_GPIO_Init+0x1ec>)
 8002b12:	42a8      	cmp	r0, r5
 8002b14:	d079      	beq.n	8002c0a <HAL_GPIO_Init+0x1a6>
 8002b16:	4d4f      	ldr	r5, [pc, #316]	; (8002c54 <HAL_GPIO_Init+0x1f0>)
 8002b18:	42a8      	cmp	r0, r5
 8002b1a:	d07c      	beq.n	8002c16 <HAL_GPIO_Init+0x1b2>
 8002b1c:	4d4e      	ldr	r5, [pc, #312]	; (8002c58 <HAL_GPIO_Init+0x1f4>)
 8002b1e:	42a8      	cmp	r0, r5
 8002b20:	d07f      	beq.n	8002c22 <HAL_GPIO_Init+0x1be>
 8002b22:	4d4e      	ldr	r5, [pc, #312]	; (8002c5c <HAL_GPIO_Init+0x1f8>)
 8002b24:	42a8      	cmp	r0, r5
 8002b26:	f000 8082 	beq.w	8002c2e <HAL_GPIO_Init+0x1ca>
 8002b2a:	4d4d      	ldr	r5, [pc, #308]	; (8002c60 <HAL_GPIO_Init+0x1fc>)
 8002b2c:	42a8      	cmp	r0, r5
 8002b2e:	f000 8084 	beq.w	8002c3a <HAL_GPIO_Init+0x1d6>
 8002b32:	f8df c134 	ldr.w	ip, [pc, #308]	; 8002c68 <HAL_GPIO_Init+0x204>
 8002b36:	4560      	cmp	r0, ip
 8002b38:	bf0c      	ite	eq
 8002b3a:	f04f 0c07 	moveq.w	ip, #7
 8002b3e:	f04f 0c08 	movne.w	ip, #8
 8002b42:	fa0c f509 	lsl.w	r5, ip, r9
 8002b46:	432f      	orrs	r7, r5
        SYSCFG->EXTICR[position >> 2U] = temp;
 8002b48:	609f      	str	r7, [r3, #8]
        temp = EXTI->IMR;
 8002b4a:	f8de 3000 	ldr.w	r3, [lr]
        temp &= ~((uint32_t)iocurrent);
 8002b4e:	43d5      	mvns	r5, r2
        if((GPIO_Init->Mode & GPIO_MODE_IT) == GPIO_MODE_IT)
 8002b50:	03f7      	lsls	r7, r6, #15
        temp &= ~((uint32_t)iocurrent);
 8002b52:	bf54      	ite	pl
 8002b54:	402b      	andpl	r3, r5
        {
          temp |= iocurrent;
 8002b56:	4313      	orrmi	r3, r2
        }
        EXTI->IMR = temp;
 8002b58:	f8ce 3000 	str.w	r3, [lr]

        temp = EXTI->EMR;
 8002b5c:	f8de 3004 	ldr.w	r3, [lr, #4]
        temp &= ~((uint32_t)iocurrent);
        if((GPIO_Init->Mode & GPIO_MODE_EVT) == GPIO_MODE_EVT)
 8002b60:	03b7      	lsls	r7, r6, #14
        temp &= ~((uint32_t)iocurrent);
 8002b62:	bf54      	ite	pl
 8002b64:	402b      	andpl	r3, r5
        {
          temp |= iocurrent;
 8002b66:	4313      	orrmi	r3, r2
        }
        EXTI->EMR = temp;
 8002b68:	f8ce 3004 	str.w	r3, [lr, #4]

        /* Clear Rising Falling edge configuration */
        temp = EXTI->RTSR;
 8002b6c:	f8de 3008 	ldr.w	r3, [lr, #8]
        temp &= ~((uint32_t)iocurrent);
        if((GPIO_Init->Mode & RISING_EDGE) == RISING_EDGE)
 8002b70:	02f7      	lsls	r7, r6, #11
        temp &= ~((uint32_t)iocurrent);
 8002b72:	bf54      	ite	pl
 8002b74:	402b      	andpl	r3, r5
        {
          temp |= iocurrent;
 8002b76:	4313      	orrmi	r3, r2
        }
        EXTI->RTSR = temp;
 8002b78:	f8ce 3008 	str.w	r3, [lr, #8]

        temp = EXTI->FTSR;
 8002b7c:	f8de 300c 	ldr.w	r3, [lr, #12]
        temp &= ~((uint32_t)iocurrent);
        if((GPIO_Init->Mode & FALLING_EDGE) == FALLING_EDGE)
 8002b80:	02b6      	lsls	r6, r6, #10
  for(position = 0U; position < GPIO_NUMBER; position++)
 8002b82:	f104 0401 	add.w	r4, r4, #1
        temp &= ~((uint32_t)iocurrent);
 8002b86:	bf54      	ite	pl
 8002b88:	402b      	andpl	r3, r5
        {
          temp |= iocurrent;
 8002b8a:	4313      	orrmi	r3, r2
  for(position = 0U; position < GPIO_NUMBER; position++)
 8002b8c:	2c10      	cmp	r4, #16
        }
        EXTI->FTSR = temp;
 8002b8e:	f8ce 300c 	str.w	r3, [lr, #12]
  for(position = 0U; position < GPIO_NUMBER; position++)
 8002b92:	f47f af74 	bne.w	8002a7e <HAL_GPIO_Init+0x1a>
      }
    }
  }
}
 8002b96:	b003      	add	sp, #12
 8002b98:	e8bd 8ff0 	ldmia.w	sp!, {r4, r5, r6, r7, r8, r9, sl, fp, pc}
        temp = GPIOx->OSPEEDR; 
 8002b9c:	6887      	ldr	r7, [r0, #8]
        temp &= ~(GPIO_OSPEEDER_OSPEEDR0 << (position * 2U));
 8002b9e:	ea07 0a03 	and.w	sl, r7, r3
        temp |= (GPIO_Init->Speed << (position * 2U));
 8002ba2:	68cf      	ldr	r7, [r1, #12]
 8002ba4:	fa07 f70c 	lsl.w	r7, r7, ip
 8002ba8:	ea47 070a 	orr.w	r7, r7, sl
        GPIOx->OSPEEDR = temp;
 8002bac:	6087      	str	r7, [r0, #8]
        temp = GPIOx->OTYPER;
 8002bae:	f8d0 a004 	ldr.w	sl, [r0, #4]
        temp |= (((GPIO_Init->Mode & GPIO_OUTPUT_TYPE) >> 4U) << position);
 8002bb2:	f3c6 1700 	ubfx	r7, r6, #4, #1
        temp &= ~(GPIO_OTYPER_OT_0 << position) ;
 8002bb6:	ea2a 0a02 	bic.w	sl, sl, r2
        temp |= (((GPIO_Init->Mode & GPIO_OUTPUT_TYPE) >> 4U) << position);
 8002bba:	40a7      	lsls	r7, r4
 8002bbc:	ea47 070a 	orr.w	r7, r7, sl
        GPIOx->OTYPER = temp;
 8002bc0:	6047      	str	r7, [r0, #4]
      temp = GPIOx->PUPDR;
 8002bc2:	68c7      	ldr	r7, [r0, #12]
      temp &= ~(GPIO_PUPDR_PUPDR0 << (position * 2U));
 8002bc4:	401f      	ands	r7, r3
      temp |= ((GPIO_Init->Pull) << (position * 2U));
 8002bc6:	433d      	orrs	r5, r7
      if((GPIO_Init->Mode == GPIO_MODE_AF_PP) || (GPIO_Init->Mode == GPIO_MODE_AF_OD))
 8002bc8:	f1b9 0f02 	cmp.w	r9, #2
      GPIOx->PUPDR = temp;
 8002bcc:	60c5      	str	r5, [r0, #12]
      if((GPIO_Init->Mode == GPIO_MODE_AF_PP) || (GPIO_Init->Mode == GPIO_MODE_AF_OD))
 8002bce:	f47f af71 	bne.w	8002ab4 <HAL_GPIO_Init+0x50>
        temp = GPIOx->AFR[position >> 3U];
 8002bd2:	ea4f 09d4 	mov.w	r9, r4, lsr #3
 8002bd6:	eb00 0989 	add.w	r9, r0, r9, lsl #2
        temp &= ~(0xFU << ((uint32_t)(position & 0x07U) * 4U)) ;
 8002bda:	f004 0707 	and.w	r7, r4, #7
        temp = GPIOx->AFR[position >> 3U];
 8002bde:	f8d9 5020 	ldr.w	r5, [r9, #32]
        temp &= ~(0xFU << ((uint32_t)(position & 0x07U) * 4U)) ;
 8002be2:	00bf      	lsls	r7, r7, #2
 8002be4:	f04f 0b0f 	mov.w	fp, #15
 8002be8:	fa0b fb07 	lsl.w	fp, fp, r7
 8002bec:	ea25 0a0b 	bic.w	sl, r5, fp
        temp |= ((uint32_t)(GPIO_Init->Alternate) << (((uint32_t)position & 0x07U) * 4U));
 8002bf0:	690d      	ldr	r5, [r1, #16]
 8002bf2:	40bd      	lsls	r5, r7
 8002bf4:	ea45 050a 	orr.w	r5, r5, sl
        GPIOx->AFR[position >> 3U] = temp;
 8002bf8:	f8c9 5020 	str.w	r5, [r9, #32]
 8002bfc:	e75a      	b.n	8002ab4 <HAL_GPIO_Init+0x50>
 8002bfe:	f04f 0c01 	mov.w	ip, #1
 8002c02:	fa0c f509 	lsl.w	r5, ip, r9
 8002c06:	432f      	orrs	r7, r5
 8002c08:	e79e      	b.n	8002b48 <HAL_GPIO_Init+0xe4>
 8002c0a:	f04f 0c02 	mov.w	ip, #2
 8002c0e:	fa0c f509 	lsl.w	r5, ip, r9
 8002c12:	432f      	orrs	r7, r5
 8002c14:	e798      	b.n	8002b48 <HAL_GPIO_Init+0xe4>
 8002c16:	f04f 0c03 	mov.w	ip, #3
 8002c1a:	fa0c f509 	lsl.w	r5, ip, r9
 8002c1e:	432f      	orrs	r7, r5
 8002c20:	e792      	b.n	8002b48 <HAL_GPIO_Init+0xe4>
 8002c22:	f04f 0c04 	mov.w	ip, #4
 8002c26:	fa0c f509 	lsl.w	r5, ip, r9
 8002c2a:	432f      	orrs	r7, r5
 8002c2c:	e78c      	b.n	8002b48 <HAL_GPIO_Init+0xe4>
 8002c2e:	f04f 0c05 	mov.w	ip, #5
 8002c32:	fa0c f509 	lsl.w	r5, ip, r9
 8002c36:	432f      	orrs	r7, r5
 8002c38:	e786      	b.n	8002b48 <HAL_GPIO_Init+0xe4>
 8002c3a:	f04f 0c06 	mov.w	ip, #6
 8002c3e:	fa0c f509 	lsl.w	r5, ip, r9
 8002c42:	432f      	orrs	r7, r5
 8002c44:	e780      	b.n	8002b48 <HAL_GPIO_Init+0xe4>
 8002c46:	bf00      	nop
 8002c48:	40023800 	.word	0x40023800
 8002c4c:	40020000 	.word	0x40020000
 8002c50:	40020800 	.word	0x40020800
 8002c54:	40020c00 	.word	0x40020c00
 8002c58:	40021000 	.word	0x40021000
 8002c5c:	40021400 	.word	0x40021400
 8002c60:	40021800 	.word	0x40021800
 8002c64:	40013c00 	.word	0x40013c00
 8002c68:	40021c00 	.word	0x40021c00

08002c6c <HAL_GPIO_WritePin>:
{
  /* Check the parameters */
  assert_param(IS_GPIO_PIN(GPIO_Pin));
  assert_param(IS_GPIO_PIN_ACTION(PinState));

  if(PinState != GPIO_PIN_RESET)
 8002c6c:	b902      	cbnz	r2, 8002c70 <HAL_GPIO_WritePin+0x4>
  {
    GPIOx->BSRR = GPIO_Pin;
  }
  else
  {
    GPIOx->BSRR = (uint32_t)GPIO_Pin << 16U;
 8002c6e:	0409      	lsls	r1, r1, #16
 8002c70:	6181      	str	r1, [r0, #24]
  }
}
 8002c72:	4770      	bx	lr

08002c74 <HAL_HCD_HC_Init>:
                                  uint8_t epnum,
                                  uint8_t dev_address,
                                  uint8_t speed,
                                  uint8_t ep_type,
                                  uint16_t mps)
{
 8002c74:	e92d 47f0 	stmdb	sp!, {r4, r5, r6, r7, r8, r9, sl, lr}
  HAL_StatusTypeDef status;

  __HAL_LOCK(hhcd);
 8002c78:	f890 42b8 	ldrb.w	r4, [r0, #696]	; 0x2b8
{
 8002c7c:	b084      	sub	sp, #16
  __HAL_LOCK(hhcd);
 8002c7e:	2c01      	cmp	r4, #1
{
 8002c80:	f89d c030 	ldrb.w	ip, [sp, #48]	; 0x30
 8002c84:	f89d e034 	ldrb.w	lr, [sp, #52]	; 0x34
 8002c88:	f8bd 9038 	ldrh.w	r9, [sp, #56]	; 0x38
  __HAL_LOCK(hhcd);
 8002c8c:	d02b      	beq.n	8002ce6 <HAL_HCD_HC_Init+0x72>
 8002c8e:	4605      	mov	r5, r0
  hhcd->hc[ch_num].do_ping = 0U;
 8002c90:	eb01 0481 	add.w	r4, r1, r1, lsl #2
 8002c94:	eb00 04c4 	add.w	r4, r0, r4, lsl #3
 8002c98:	f04f 0800 	mov.w	r8, #0
  __HAL_LOCK(hhcd);
 8002c9c:	2001      	movs	r0, #1
  hhcd->hc[ch_num].ep_type = ep_type;
  hhcd->hc[ch_num].ep_num = epnum & 0x7FU;

  if ((epnum & 0x80U) == 0x80U)
  {
    hhcd->hc[ch_num].ep_is_in = 1U;
 8002c9e:	f012 0f80 	tst.w	r2, #128	; 0x80
  __HAL_LOCK(hhcd);
 8002ca2:	f885 02b8 	strb.w	r0, [r5, #696]	; 0x2b8
  hhcd->hc[ch_num].ep_num = epnum & 0x7FU;
 8002ca6:	f002 067f 	and.w	r6, r2, #127	; 0x7f
    hhcd->hc[ch_num].ep_is_in = 1U;
 8002caa:	bf08      	it	eq
 8002cac:	4640      	moveq	r0, r8
  hhcd->hc[ch_num].ep_num = epnum & 0x7FU;
 8002cae:	f884 603a 	strb.w	r6, [r4, #58]	; 0x3a
  hhcd->hc[ch_num].dev_addr = dev_address;
 8002cb2:	f884 3038 	strb.w	r3, [r4, #56]	; 0x38
  hhcd->hc[ch_num].ch_num = ch_num;
 8002cb6:	f884 1039 	strb.w	r1, [r4, #57]	; 0x39
  hhcd->hc[ch_num].ep_type = ep_type;
 8002cba:	f884 e03f 	strb.w	lr, [r4, #63]	; 0x3f
  else
  {
    hhcd->hc[ch_num].ep_is_in = 0U;
  }

  hhcd->hc[ch_num].speed = speed;
 8002cbe:	f884 c03c 	strb.w	ip, [r4, #60]	; 0x3c
    hhcd->hc[ch_num].ep_is_in = 1U;
 8002cc2:	f884 003b 	strb.w	r0, [r4, #59]	; 0x3b
  hhcd->hc[ch_num].do_ping = 0U;
 8002cc6:	f884 803d 	strb.w	r8, [r4, #61]	; 0x3d

  status =  USB_HC_Init(hhcd->Instance,
 8002cca:	6828      	ldr	r0, [r5, #0]
  hhcd->hc[ch_num].max_packet = mps;
 8002ccc:	f8a4 9040 	strh.w	r9, [r4, #64]	; 0x40
  status =  USB_HC_Init(hhcd->Instance,
 8002cd0:	e9cd e901 	strd	lr, r9, [sp, #4]
 8002cd4:	f8cd c000 	str.w	ip, [sp]
 8002cd8:	f002 fa86 	bl	80051e8 <USB_HC_Init>
                        epnum,
                        dev_address,
                        speed,
                        ep_type,
                        mps);
  __HAL_UNLOCK(hhcd);
 8002cdc:	f885 82b8 	strb.w	r8, [r5, #696]	; 0x2b8

  return status;
}
 8002ce0:	b004      	add	sp, #16
 8002ce2:	e8bd 87f0 	ldmia.w	sp!, {r4, r5, r6, r7, r8, r9, sl, pc}
  __HAL_LOCK(hhcd);
 8002ce6:	2002      	movs	r0, #2
}
 8002ce8:	b004      	add	sp, #16
 8002cea:	e8bd 87f0 	ldmia.w	sp!, {r4, r5, r6, r7, r8, r9, sl, pc}
 8002cee:	bf00      	nop

08002cf0 <HAL_HCD_HC_Halt>:
  */
HAL_StatusTypeDef HAL_HCD_HC_Halt(HCD_HandleTypeDef *hhcd, uint8_t ch_num)
{
  HAL_StatusTypeDef status = HAL_OK;

  __HAL_LOCK(hhcd);
 8002cf0:	f890 32b8 	ldrb.w	r3, [r0, #696]	; 0x2b8
 8002cf4:	2b01      	cmp	r3, #1
 8002cf6:	d00b      	beq.n	8002d10 <HAL_HCD_HC_Halt+0x20>
{
 8002cf8:	b510      	push	{r4, lr}
  __HAL_LOCK(hhcd);
 8002cfa:	2301      	movs	r3, #1
 8002cfc:	4604      	mov	r4, r0
 8002cfe:	f880 32b8 	strb.w	r3, [r0, #696]	; 0x2b8
  (void)USB_HC_Halt(hhcd->Instance, (uint8_t)ch_num);
 8002d02:	6800      	ldr	r0, [r0, #0]
 8002d04:	f002 fbf0 	bl	80054e8 <USB_HC_Halt>
  __HAL_UNLOCK(hhcd);
 8002d08:	2000      	movs	r0, #0
 8002d0a:	f884 02b8 	strb.w	r0, [r4, #696]	; 0x2b8

  return status;
}
 8002d0e:	bd10      	pop	{r4, pc}
  __HAL_LOCK(hhcd);
 8002d10:	2002      	movs	r0, #2
}
 8002d12:	4770      	bx	lr

08002d14 <HAL_HCD_Init>:
  if (hhcd == NULL)
 8002d14:	2800      	cmp	r0, #0
 8002d16:	d04a      	beq.n	8002dae <HAL_HCD_Init+0x9a>
{
 8002d18:	e92d 41f0 	stmdb	sp!, {r4, r5, r6, r7, r8, lr}
  if (hhcd->State == HAL_HCD_STATE_RESET)
 8002d1c:	f890 32b9 	ldrb.w	r3, [r0, #697]	; 0x2b9
  USBx = hhcd->Instance;
 8002d20:	6804      	ldr	r4, [r0, #0]
{
 8002d22:	b08a      	sub	sp, #40	; 0x28
 8002d24:	4607      	mov	r7, r0
  if (hhcd->State == HAL_HCD_STATE_RESET)
 8002d26:	f003 02ff 	and.w	r2, r3, #255	; 0xff
 8002d2a:	2b00      	cmp	r3, #0
 8002d2c:	d039      	beq.n	8002da2 <HAL_HCD_Init+0x8e>
 8002d2e:	4620      	mov	r0, r4
  hhcd->State = HAL_HCD_STATE_BUSY;
 8002d30:	2303      	movs	r3, #3
 8002d32:	f887 32b9 	strb.w	r3, [r7, #697]	; 0x2b9
  if ((USBx->CID & (0x1U << 8)) == 0U)
 8002d36:	6be3      	ldr	r3, [r4, #60]	; 0x3c
  (void)USB_CoreInit(hhcd->Instance, hhcd->Init);
 8002d38:	463c      	mov	r4, r7
  if ((USBx->CID & (0x1U << 8)) == 0U)
 8002d3a:	f413 7380 	ands.w	r3, r3, #256	; 0x100
    hhcd->Init.dma_enable = 0U;
 8002d3e:	bf08      	it	eq
 8002d40:	613b      	streq	r3, [r7, #16]
  __HAL_HCD_DISABLE(hhcd);
 8002d42:	f002 f91d 	bl	8004f80 <USB_DisableGlobalInt>
  (void)USB_CoreInit(hhcd->Instance, hhcd->Init);
 8002d46:	f854 6b10 	ldr.w	r6, [r4], #16
 8002d4a:	cc0f      	ldmia	r4!, {r0, r1, r2, r3}
 8002d4c:	466d      	mov	r5, sp
 8002d4e:	c50f      	stmia	r5!, {r0, r1, r2, r3}
 8002d50:	cc0f      	ldmia	r4!, {r0, r1, r2, r3}
 8002d52:	c50f      	stmia	r5!, {r0, r1, r2, r3}
 8002d54:	e894 0003 	ldmia.w	r4, {r0, r1}
 8002d58:	e885 0003 	stmia.w	r5, {r0, r1}
 8002d5c:	f107 0804 	add.w	r8, r7, #4
 8002d60:	e898 000e 	ldmia.w	r8, {r1, r2, r3}
 8002d64:	4630      	mov	r0, r6
  (void)USB_HostInit(hhcd->Instance, hhcd->Init);
 8002d66:	463e      	mov	r6, r7
  (void)USB_CoreInit(hhcd->Instance, hhcd->Init);
 8002d68:	f002 f8be 	bl	8004ee8 <USB_CoreInit>
  (void)USB_SetCurrentMode(hhcd->Instance, USB_HOST_MODE);
 8002d6c:	2101      	movs	r1, #1
 8002d6e:	6838      	ldr	r0, [r7, #0]
 8002d70:	f002 f90e 	bl	8004f90 <USB_SetCurrentMode>
  (void)USB_HostInit(hhcd->Instance, hhcd->Init);
 8002d74:	f856 cb10 	ldr.w	ip, [r6], #16
 8002d78:	ce0f      	ldmia	r6!, {r0, r1, r2, r3}
 8002d7a:	466d      	mov	r5, sp
 8002d7c:	c50f      	stmia	r5!, {r0, r1, r2, r3}
 8002d7e:	ce0f      	ldmia	r6!, {r0, r1, r2, r3}
 8002d80:	c50f      	stmia	r5!, {r0, r1, r2, r3}
 8002d82:	e894 0003 	ldmia.w	r4, {r0, r1}
 8002d86:	e885 0003 	stmia.w	r5, {r0, r1}
 8002d8a:	4660      	mov	r0, ip
 8002d8c:	e898 000e 	ldmia.w	r8, {r1, r2, r3}
 8002d90:	f002 f992 	bl	80050b8 <USB_HostInit>
  hhcd->State = HAL_HCD_STATE_READY;
 8002d94:	2301      	movs	r3, #1
  return HAL_OK;
 8002d96:	2000      	movs	r0, #0
  hhcd->State = HAL_HCD_STATE_READY;
 8002d98:	f887 32b9 	strb.w	r3, [r7, #697]	; 0x2b9
}
 8002d9c:	b00a      	add	sp, #40	; 0x28
 8002d9e:	e8bd 81f0 	ldmia.w	sp!, {r4, r5, r6, r7, r8, pc}
    hhcd->Lock = HAL_UNLOCKED;
 8002da2:	f880 22b8 	strb.w	r2, [r0, #696]	; 0x2b8
    HAL_HCD_MspInit(hhcd);
 8002da6:	f003 fbbd 	bl	8006524 <HAL_HCD_MspInit>
 8002daa:	6838      	ldr	r0, [r7, #0]
 8002dac:	e7c0      	b.n	8002d30 <HAL_HCD_Init+0x1c>
    return HAL_ERROR;
 8002dae:	2001      	movs	r0, #1
}
 8002db0:	4770      	bx	lr
 8002db2:	bf00      	nop

08002db4 <HAL_HCD_HC_SubmitRequest>:
                                           uint8_t ep_type,
                                           uint8_t token,
                                           uint8_t *pbuff,
                                           uint16_t length,
                                           uint8_t do_ping)
{
 8002db4:	b5f0      	push	{r4, r5, r6, r7, lr}
  UNUSED(do_ping);

  hhcd->hc[ch_num].ep_is_in = direction;
 8002db6:	008c      	lsls	r4, r1, #2
 8002db8:	1865      	adds	r5, r4, r1
 8002dba:	eb00 05c5 	add.w	r5, r0, r5, lsl #3
{
 8002dbe:	f89d c014 	ldrb.w	ip, [sp, #20]
 8002dc2:	9f06      	ldr	r7, [sp, #24]
 8002dc4:	f8bd 601c 	ldrh.w	r6, [sp, #28]
  hhcd->hc[ch_num].ep_is_in = direction;
 8002dc8:	f885 203b 	strb.w	r2, [r5, #59]	; 0x3b
  hhcd->hc[ch_num].ep_type  = ep_type;
 8002dcc:	f885 303f 	strb.w	r3, [r5, #63]	; 0x3f

  if (token == 0U)
 8002dd0:	f1bc 0f00 	cmp.w	ip, #0
 8002dd4:	d120      	bne.n	8002e18 <HAL_HCD_HC_SubmitRequest+0x64>
  {
    hhcd->hc[ch_num].data_pid = HC_PID_SETUP;
 8002dd6:	f04f 0c03 	mov.w	ip, #3
  {
    hhcd->hc[ch_num].data_pid = HC_PID_DATA1;
  }

  /* Manage Data Toggle */
  switch (ep_type)
 8002dda:	2b02      	cmp	r3, #2
    hhcd->hc[ch_num].data_pid = HC_PID_SETUP;
 8002ddc:	f885 c042 	strb.w	ip, [r5, #66]	; 0x42
  switch (ep_type)
 8002de0:	d024      	beq.n	8002e2c <HAL_HCD_HC_SubmitRequest+0x78>
 8002de2:	4563      	cmp	r3, ip
 8002de4:	d022      	beq.n	8002e2c <HAL_HCD_HC_SubmitRequest+0x78>
 8002de6:	2b01      	cmp	r3, #1
 8002de8:	d02b      	beq.n	8002e42 <HAL_HCD_HC_SubmitRequest+0x8e>

    default:
      break;
  }

  hhcd->hc[ch_num].xfer_buff = pbuff;
 8002dea:	1863      	adds	r3, r4, r1
 8002dec:	eb00 03c3 	add.w	r3, r0, r3, lsl #3
  hhcd->hc[ch_num].urb_state = URB_IDLE;
  hhcd->hc[ch_num].xfer_count = 0U;
  hhcd->hc[ch_num].ch_num = ch_num;
  hhcd->hc[ch_num].state = HC_IDLE;

  return USB_HC_StartXfer(hhcd->Instance, &hhcd->hc[ch_num], (uint8_t)hhcd->Init.dma_enable);
 8002df0:	2228      	movs	r2, #40	; 0x28
  hhcd->hc[ch_num].ch_num = ch_num;
 8002df2:	f883 1039 	strb.w	r1, [r3, #57]	; 0x39
  hhcd->hc[ch_num].urb_state = URB_IDLE;
 8002df6:	2400      	movs	r4, #0
  return USB_HC_StartXfer(hhcd->Instance, &hhcd->hc[ch_num], (uint8_t)hhcd->Init.dma_enable);
 8002df8:	fb02 0101 	mla	r1, r2, r1, r0
  hhcd->hc[ch_num].xfer_len  = length;
 8002dfc:	e9c3 7611 	strd	r7, r6, [r3, #68]	; 0x44
  return USB_HC_StartXfer(hhcd->Instance, &hhcd->hc[ch_num], (uint8_t)hhcd->Init.dma_enable);
 8002e00:	7c02      	ldrb	r2, [r0, #16]
 8002e02:	6800      	ldr	r0, [r0, #0]
  hhcd->hc[ch_num].urb_state = URB_IDLE;
 8002e04:	f883 405c 	strb.w	r4, [r3, #92]	; 0x5c
  hhcd->hc[ch_num].xfer_count = 0U;
 8002e08:	64dc      	str	r4, [r3, #76]	; 0x4c
  hhcd->hc[ch_num].state = HC_IDLE;
 8002e0a:	f883 405d 	strb.w	r4, [r3, #93]	; 0x5d
  return USB_HC_StartXfer(hhcd->Instance, &hhcd->hc[ch_num], (uint8_t)hhcd->Init.dma_enable);
 8002e0e:	3138      	adds	r1, #56	; 0x38
}
 8002e10:	e8bd 40f0 	ldmia.w	sp!, {r4, r5, r6, r7, lr}
  return USB_HC_StartXfer(hhcd->Instance, &hhcd->hc[ch_num], (uint8_t)hhcd->Init.dma_enable);
 8002e14:	f002 ba88 	b.w	8005328 <USB_HC_StartXfer>
    hhcd->hc[ch_num].data_pid = HC_PID_DATA1;
 8002e18:	f04f 0e02 	mov.w	lr, #2
 8002e1c:	f885 e042 	strb.w	lr, [r5, #66]	; 0x42
  switch (ep_type)
 8002e20:	2b03      	cmp	r3, #3
 8002e22:	d8e2      	bhi.n	8002dea <HAL_HCD_HC_SubmitRequest+0x36>
 8002e24:	e8df f003 	tbb	[pc, r3]
 8002e28:	02020d1c 	.word	0x02020d1c
        if (hhcd->hc[ch_num].toggle_out == 0U)
 8002e2c:	1863      	adds	r3, r4, r1
 8002e2e:	eb00 03c3 	add.w	r3, r0, r3, lsl #3
      if (direction == 0U)
 8002e32:	b96a      	cbnz	r2, 8002e50 <HAL_HCD_HC_SubmitRequest+0x9c>
        if (hhcd->hc[ch_num].toggle_out == 0U)
 8002e34:	f893 5051 	ldrb.w	r5, [r3, #81]	; 0x51
 8002e38:	b13d      	cbz	r5, 8002e4a <HAL_HCD_HC_SubmitRequest+0x96>
          hhcd->hc[ch_num].data_pid = HC_PID_DATA1;
 8002e3a:	2202      	movs	r2, #2
 8002e3c:	f883 2042 	strb.w	r2, [r3, #66]	; 0x42
 8002e40:	e7d3      	b.n	8002dea <HAL_HCD_HC_SubmitRequest+0x36>
      hhcd->hc[ch_num].data_pid = HC_PID_DATA0;
 8002e42:	1863      	adds	r3, r4, r1
 8002e44:	eb00 03c3 	add.w	r3, r0, r3, lsl #3
 8002e48:	2200      	movs	r2, #0
 8002e4a:	f883 2042 	strb.w	r2, [r3, #66]	; 0x42
      break;
 8002e4e:	e7cc      	b.n	8002dea <HAL_HCD_HC_SubmitRequest+0x36>
        if (hhcd->hc[ch_num].toggle_in == 0U)
 8002e50:	f893 2050 	ldrb.w	r2, [r3, #80]	; 0x50
 8002e54:	2a00      	cmp	r2, #0
 8002e56:	d0f8      	beq.n	8002e4a <HAL_HCD_HC_SubmitRequest+0x96>
          hhcd->hc[ch_num].data_pid = HC_PID_DATA1;
 8002e58:	2202      	movs	r2, #2
 8002e5a:	f883 2042 	strb.w	r2, [r3, #66]	; 0x42
 8002e5e:	e7c4      	b.n	8002dea <HAL_HCD_HC_SubmitRequest+0x36>
      if ((token == 1U) && (direction == 0U)) /*send data */
 8002e60:	f1bc 0f01 	cmp.w	ip, #1
 8002e64:	d1c1      	bne.n	8002dea <HAL_HCD_HC_SubmitRequest+0x36>
 8002e66:	2a00      	cmp	r2, #0
 8002e68:	d1bf      	bne.n	8002dea <HAL_HCD_HC_SubmitRequest+0x36>
          hhcd->hc[ch_num].toggle_out = 1U;
 8002e6a:	1863      	adds	r3, r4, r1
 8002e6c:	eb00 03c3 	add.w	r3, r0, r3, lsl #3
        if (length == 0U)
 8002e70:	b946      	cbnz	r6, 8002e84 <HAL_HCD_HC_SubmitRequest+0xd0>
          hhcd->hc[ch_num].toggle_out = 1U;
 8002e72:	f883 c051 	strb.w	ip, [r3, #81]	; 0x51
          hhcd->hc[ch_num].data_pid = HC_PID_DATA1;
 8002e76:	1863      	adds	r3, r4, r1
 8002e78:	eb00 03c3 	add.w	r3, r0, r3, lsl #3
 8002e7c:	2202      	movs	r2, #2
 8002e7e:	f883 2042 	strb.w	r2, [r3, #66]	; 0x42
 8002e82:	e7b2      	b.n	8002dea <HAL_HCD_HC_SubmitRequest+0x36>
        if (hhcd->hc[ch_num].toggle_out == 0U)
 8002e84:	f893 5051 	ldrb.w	r5, [r3, #81]	; 0x51
 8002e88:	2d00      	cmp	r5, #0
 8002e8a:	d0de      	beq.n	8002e4a <HAL_HCD_HC_SubmitRequest+0x96>
 8002e8c:	e7f3      	b.n	8002e76 <HAL_HCD_HC_SubmitRequest+0xc2>
 8002e8e:	bf00      	nop

08002e90 <HAL_HCD_IRQHandler>:
  * @brief  Handle HCD interrupt request.
  * @param  hhcd HCD handle
  * @retval None
  */
void HAL_HCD_IRQHandler(HCD_HandleTypeDef *hhcd)
{
 8002e90:	e92d 4ff0 	stmdb	sp!, {r4, r5, r6, r7, r8, r9, sl, fp, lr}
  USB_OTG_GlobalTypeDef *USBx = hhcd->Instance;
 8002e94:	6805      	ldr	r5, [r0, #0]
{
 8002e96:	b085      	sub	sp, #20
 8002e98:	4604      	mov	r4, r0
  uint32_t USBx_BASE = (uint32_t)USBx;
  uint32_t i, interrupt;

  /* Ensure that we are in device mode */
  if (USB_GetMode(hhcd->Instance) == USB_OTG_MODE_HOST)
 8002e9a:	4628      	mov	r0, r5
 8002e9c:	f002 f8a6 	bl	8004fec <USB_GetMode>
 8002ea0:	2801      	cmp	r0, #1
 8002ea2:	d002      	beq.n	8002eaa <HAL_HCD_IRQHandler+0x1a>
      HCD_RXQLVL_IRQHandler(hhcd);

      USB_UNMASK_INTERRUPT(hhcd->Instance, USB_OTG_GINTSTS_RXFLVL);
    }
  }
}
 8002ea4:	b005      	add	sp, #20
 8002ea6:	e8bd 8ff0 	ldmia.w	sp!, {r4, r5, r6, r7, r8, r9, sl, fp, pc}
    if (__HAL_HCD_IS_INVALID_INTERRUPT(hhcd))
 8002eaa:	6820      	ldr	r0, [r4, #0]
 8002eac:	f002 f89a 	bl	8004fe4 <USB_ReadInterrupts>
 8002eb0:	2800      	cmp	r0, #0
 8002eb2:	d0f7      	beq.n	8002ea4 <HAL_HCD_IRQHandler+0x14>
    if (__HAL_HCD_GET_FLAG(hhcd, USB_OTG_GINTSTS_PXFR_INCOMPISOOUT))
 8002eb4:	6820      	ldr	r0, [r4, #0]
 8002eb6:	f002 f895 	bl	8004fe4 <USB_ReadInterrupts>
 8002eba:	f410 1f00 	tst.w	r0, #2097152	; 0x200000
      __HAL_HCD_CLEAR_FLAG(hhcd, USB_OTG_GINTSTS_PXFR_INCOMPISOOUT);
 8002ebe:	6820      	ldr	r0, [r4, #0]
 8002ec0:	bf1c      	itt	ne
 8002ec2:	f44f 1300 	movne.w	r3, #2097152	; 0x200000
 8002ec6:	6143      	strne	r3, [r0, #20]
    if (__HAL_HCD_GET_FLAG(hhcd, USB_OTG_GINTSTS_IISOIXFR))
 8002ec8:	f002 f88c 	bl	8004fe4 <USB_ReadInterrupts>
 8002ecc:	f410 1f80 	tst.w	r0, #1048576	; 0x100000
      __HAL_HCD_CLEAR_FLAG(hhcd, USB_OTG_GINTSTS_IISOIXFR);
 8002ed0:	6820      	ldr	r0, [r4, #0]
 8002ed2:	bf1c      	itt	ne
 8002ed4:	f44f 1380 	movne.w	r3, #1048576	; 0x100000
 8002ed8:	6143      	strne	r3, [r0, #20]
    if (__HAL_HCD_GET_FLAG(hhcd, USB_OTG_GINTSTS_PTXFE))
 8002eda:	f002 f883 	bl	8004fe4 <USB_ReadInterrupts>
 8002ede:	f010 6f80 	tst.w	r0, #67108864	; 0x4000000
      __HAL_HCD_CLEAR_FLAG(hhcd, USB_OTG_GINTSTS_PTXFE);
 8002ee2:	6820      	ldr	r0, [r4, #0]
 8002ee4:	bf1c      	itt	ne
 8002ee6:	f04f 6380 	movne.w	r3, #67108864	; 0x4000000
 8002eea:	6143      	strne	r3, [r0, #20]
    if (__HAL_HCD_GET_FLAG(hhcd, USB_OTG_GINTSTS_MMIS))
 8002eec:	f002 f87a 	bl	8004fe4 <USB_ReadInterrupts>
 8002ef0:	f010 0f02 	tst.w	r0, #2
      __HAL_HCD_CLEAR_FLAG(hhcd, USB_OTG_GINTSTS_MMIS);
 8002ef4:	6820      	ldr	r0, [r4, #0]
 8002ef6:	bf1c      	itt	ne
 8002ef8:	2302      	movne	r3, #2
 8002efa:	6143      	strne	r3, [r0, #20]
    if (__HAL_HCD_GET_FLAG(hhcd, USB_OTG_GINTSTS_DISCINT))
 8002efc:	f002 f872 	bl	8004fe4 <USB_ReadInterrupts>
 8002f00:	0083      	lsls	r3, r0, #2
 8002f02:	f100 8113 	bmi.w	800312c <HAL_HCD_IRQHandler+0x29c>
 8002f06:	6820      	ldr	r0, [r4, #0]
    if (__HAL_HCD_GET_FLAG(hhcd, USB_OTG_GINTSTS_HPRTINT))
 8002f08:	f002 f86c 	bl	8004fe4 <USB_ReadInterrupts>
 8002f0c:	01c7      	lsls	r7, r0, #7
  * @param  hhcd HCD handle
  * @retval None
  */
static void HCD_Port_IRQHandler(HCD_HandleTypeDef *hhcd)
{
  USB_OTG_GlobalTypeDef *USBx = hhcd->Instance;
 8002f0e:	6826      	ldr	r6, [r4, #0]
    if (__HAL_HCD_GET_FLAG(hhcd, USB_OTG_GINTSTS_HPRTINT))
 8002f10:	f100 80ce 	bmi.w	80030b0 <HAL_HCD_IRQHandler+0x220>
    if (__HAL_HCD_GET_FLAG(hhcd, USB_OTG_GINTSTS_SOF))
 8002f14:	4630      	mov	r0, r6
 8002f16:	f002 f865 	bl	8004fe4 <USB_ReadInterrupts>
 8002f1a:	0701      	lsls	r1, r0, #28
 8002f1c:	f100 811c 	bmi.w	8003158 <HAL_HCD_IRQHandler+0x2c8>
 8002f20:	6820      	ldr	r0, [r4, #0]
    if (__HAL_HCD_GET_FLAG(hhcd, USB_OTG_GINTSTS_HCINT))
 8002f22:	f002 f85f 	bl	8004fe4 <USB_ReadInterrupts>
 8002f26:	f010 7f00 	tst.w	r0, #33554432	; 0x2000000
      interrupt = USB_HC_ReadInterrupt(hhcd->Instance);
 8002f2a:	6820      	ldr	r0, [r4, #0]
    if (__HAL_HCD_GET_FLAG(hhcd, USB_OTG_GINTSTS_HCINT))
 8002f2c:	d13e      	bne.n	8002fac <HAL_HCD_IRQHandler+0x11c>
    if ((__HAL_HCD_GET_FLAG(hhcd, USB_OTG_GINTSTS_RXFLVL)) != 0U)
 8002f2e:	f002 f859 	bl	8004fe4 <USB_ReadInterrupts>
 8002f32:	06c3      	lsls	r3, r0, #27
 8002f34:	d5b6      	bpl.n	8002ea4 <HAL_HCD_IRQHandler+0x14>
      USB_MASK_INTERRUPT(hhcd->Instance, USB_OTG_GINTSTS_RXFLVL);
 8002f36:	6825      	ldr	r5, [r4, #0]
 8002f38:	69ab      	ldr	r3, [r5, #24]
 8002f3a:	f023 0310 	bic.w	r3, r3, #16
 8002f3e:	61ab      	str	r3, [r5, #24]
  temp = hhcd->Instance->GRXSTSP;
 8002f40:	6a2e      	ldr	r6, [r5, #32]
  pktsts = (temp & USB_OTG_GRXSTSP_PKTSTS) >> 17;
 8002f42:	f3c6 4243 	ubfx	r2, r6, #17, #4
  switch (pktsts)
 8002f46:	2a02      	cmp	r2, #2
 8002f48:	d12b      	bne.n	8002fa2 <HAL_HCD_IRQHandler+0x112>
  pktcnt = (temp & USB_OTG_GRXSTSP_BCNT) >> 4;
 8002f4a:	f3c6 180a 	ubfx	r8, r6, #4, #11
      if ((pktcnt > 0U) && (hhcd->hc[ch_num].xfer_buff != (void *)0))
 8002f4e:	f1b8 0f00 	cmp.w	r8, #0
 8002f52:	d026      	beq.n	8002fa2 <HAL_HCD_IRQHandler+0x112>
  ch_num = temp & USB_OTG_GRXSTSP_EPNUM;
 8002f54:	f006 060f 	and.w	r6, r6, #15
      if ((pktcnt > 0U) && (hhcd->hc[ch_num].xfer_buff != (void *)0))
 8002f58:	eb06 0786 	add.w	r7, r6, r6, lsl #2
 8002f5c:	eb04 07c7 	add.w	r7, r4, r7, lsl #3
 8002f60:	6c79      	ldr	r1, [r7, #68]	; 0x44
 8002f62:	b1f1      	cbz	r1, 8002fa2 <HAL_HCD_IRQHandler+0x112>
        (void)USB_ReadPacket(hhcd->Instance, hhcd->hc[ch_num].xfer_buff, (uint16_t)pktcnt);
 8002f64:	4642      	mov	r2, r8
 8002f66:	4628      	mov	r0, r5
 8002f68:	f002 f82a 	bl	8004fc0 <USB_ReadPacket>
        if ((USBx_HC(ch_num)->HCTSIZ & USB_OTG_HCTSIZ_PKTCNT) > 0U)
 8002f6c:	f505 65a0 	add.w	r5, r5, #1280	; 0x500
 8002f70:	0173      	lsls	r3, r6, #5
 8002f72:	18e9      	adds	r1, r5, r3
        hhcd->hc[ch_num].xfer_buff += pktcnt;
 8002f74:	6c78      	ldr	r0, [r7, #68]	; 0x44
        if ((USBx_HC(ch_num)->HCTSIZ & USB_OTG_HCTSIZ_PKTCNT) > 0U)
 8002f76:	690e      	ldr	r6, [r1, #16]
 8002f78:	4abe      	ldr	r2, [pc, #760]	; (8003274 <HAL_HCD_IRQHandler+0x3e4>)
        hhcd->hc[ch_num].xfer_count  += pktcnt;
 8002f7a:	6cf9      	ldr	r1, [r7, #76]	; 0x4c
        hhcd->hc[ch_num].xfer_buff += pktcnt;
 8002f7c:	4440      	add	r0, r8
        hhcd->hc[ch_num].xfer_count  += pktcnt;
 8002f7e:	4441      	add	r1, r8
        if ((USBx_HC(ch_num)->HCTSIZ & USB_OTG_HCTSIZ_PKTCNT) > 0U)
 8002f80:	4032      	ands	r2, r6
        hhcd->hc[ch_num].xfer_buff += pktcnt;
 8002f82:	6478      	str	r0, [r7, #68]	; 0x44
        hhcd->hc[ch_num].xfer_count  += pktcnt;
 8002f84:	64f9      	str	r1, [r7, #76]	; 0x4c
        if ((USBx_HC(ch_num)->HCTSIZ & USB_OTG_HCTSIZ_PKTCNT) > 0U)
 8002f86:	b15a      	cbz	r2, 8002fa0 <HAL_HCD_IRQHandler+0x110>
          tmpreg = USBx_HC(ch_num)->HCCHAR;
 8002f88:	58ea      	ldr	r2, [r5, r3]
          tmpreg &= ~USB_OTG_HCCHAR_CHDIS;
 8002f8a:	f022 4280 	bic.w	r2, r2, #1073741824	; 0x40000000
          tmpreg |= USB_OTG_HCCHAR_CHENA;
 8002f8e:	f042 4200 	orr.w	r2, r2, #2147483648	; 0x80000000
          USBx_HC(ch_num)->HCCHAR = tmpreg;
 8002f92:	50ea      	str	r2, [r5, r3]
          hhcd->hc[ch_num].toggle_in ^= 1U;
 8002f94:	f897 3050 	ldrb.w	r3, [r7, #80]	; 0x50
 8002f98:	f083 0301 	eor.w	r3, r3, #1
 8002f9c:	f887 3050 	strb.w	r3, [r7, #80]	; 0x50
 8002fa0:	6825      	ldr	r5, [r4, #0]
      USB_UNMASK_INTERRUPT(hhcd->Instance, USB_OTG_GINTSTS_RXFLVL);
 8002fa2:	69ab      	ldr	r3, [r5, #24]
 8002fa4:	f043 0310 	orr.w	r3, r3, #16
 8002fa8:	61ab      	str	r3, [r5, #24]
 8002faa:	e77b      	b.n	8002ea4 <HAL_HCD_IRQHandler+0x14>
      interrupt = USB_HC_ReadInterrupt(hhcd->Instance);
 8002fac:	f002 fa96 	bl	80054dc <USB_HC_ReadInterrupt>
      for (i = 0U; i < hhcd->Init.Host_channels; i++)
 8002fb0:	68a1      	ldr	r1, [r4, #8]
      interrupt = USB_HC_ReadInterrupt(hhcd->Instance);
 8002fb2:	4680      	mov	r8, r0
 8002fb4:	6820      	ldr	r0, [r4, #0]
      for (i = 0U; i < hhcd->Init.Host_channels; i++)
 8002fb6:	2900      	cmp	r1, #0
 8002fb8:	f000 80ca 	beq.w	8003150 <HAL_HCD_IRQHandler+0x2c0>
 8002fbc:	f505 65a0 	add.w	r5, r5, #1280	; 0x500
 8002fc0:	2600      	movs	r6, #0
    __HAL_HCD_CLEAR_HC_INT(ch_num, USB_OTG_HCINT_CHH);
 8002fc2:	f04f 0902 	mov.w	r9, #2
 8002fc6:	e03a      	b.n	800303e <HAL_HCD_IRQHandler+0x1ae>
  if ((USBx_HC(ch_num)->HCINT & USB_OTG_HCINT_AHBERR) == USB_OTG_HCINT_AHBERR)
 8002fc8:	075b      	lsls	r3, r3, #29
 8002fca:	f140 80cc 	bpl.w	8003166 <HAL_HCD_IRQHandler+0x2d6>
    __HAL_HCD_CLEAR_HC_INT(ch_num, USB_OTG_HCINT_AHBERR);
 8002fce:	2304      	movs	r3, #4
 8002fd0:	60bb      	str	r3, [r7, #8]
    __HAL_HCD_UNMASK_HALT_HC_INT(ch_num);
 8002fd2:	68fb      	ldr	r3, [r7, #12]
 8002fd4:	f043 0302 	orr.w	r3, r3, #2
 8002fd8:	60fb      	str	r3, [r7, #12]
  if ((USBx_HC(ch_num)->HCINT & USB_OTG_HCINT_FRMOR) == USB_OTG_HCINT_FRMOR)
 8002fda:	68bb      	ldr	r3, [r7, #8]
 8002fdc:	059b      	lsls	r3, r3, #22
 8002fde:	f100 8100 	bmi.w	80031e2 <HAL_HCD_IRQHandler+0x352>
  else if ((USBx_HC(ch_num)->HCINT & USB_OTG_HCINT_XFRC) == USB_OTG_HCINT_XFRC)
 8002fe2:	68bb      	ldr	r3, [r7, #8]
 8002fe4:	07d8      	lsls	r0, r3, #31
 8002fe6:	f140 80cc 	bpl.w	8003182 <HAL_HCD_IRQHandler+0x2f2>
    if (hhcd->Init.dma_enable != 0U)
 8002fea:	6923      	ldr	r3, [r4, #16]
 8002fec:	2b00      	cmp	r3, #0
 8002fee:	f040 819a 	bne.w	8003326 <HAL_HCD_IRQHandler+0x496>
 8002ff2:	ea4f 038a 	mov.w	r3, sl, lsl #2
    hhcd->hc[ch_num].state = HC_XFRC;
 8002ff6:	eb03 010a 	add.w	r1, r3, sl
 8002ffa:	eb04 01c1 	add.w	r1, r4, r1, lsl #3
    hhcd->hc[ch_num].ErrCnt = 0U;
 8002ffe:	2000      	movs	r0, #0
    hhcd->hc[ch_num].state = HC_XFRC;
 8003000:	f04f 0c01 	mov.w	ip, #1
    hhcd->hc[ch_num].ErrCnt = 0U;
 8003004:	6588      	str	r0, [r1, #88]	; 0x58
    hhcd->hc[ch_num].state = HC_XFRC;
 8003006:	f881 c05d 	strb.w	ip, [r1, #93]	; 0x5d
    __HAL_HCD_CLEAR_HC_INT(ch_num, USB_OTG_HCINT_XFRC);
 800300a:	f8c7 c008 	str.w	ip, [r7, #8]
    if ((hhcd->hc[ch_num].ep_type == EP_TYPE_CTRL) ||
 800300e:	f891 003f 	ldrb.w	r0, [r1, #63]	; 0x3f
 8003012:	f010 0ffd 	tst.w	r0, #253	; 0xfd
 8003016:	f000 814d 	beq.w	80032b4 <HAL_HCD_IRQHandler+0x424>
    else if (hhcd->hc[ch_num].ep_type == EP_TYPE_INTR)
 800301a:	2803      	cmp	r0, #3
 800301c:	f000 8237 	beq.w	800348e <HAL_HCD_IRQHandler+0x5fe>
    hhcd->hc[ch_num].toggle_in ^= 1U;
 8003020:	4453      	add	r3, sl
 8003022:	eb04 03c3 	add.w	r3, r4, r3, lsl #3
 8003026:	f893 2050 	ldrb.w	r2, [r3, #80]	; 0x50
 800302a:	f082 0201 	eor.w	r2, r2, #1
 800302e:	f883 2050 	strb.w	r2, [r3, #80]	; 0x50
 8003032:	6820      	ldr	r0, [r4, #0]
 8003034:	68a1      	ldr	r1, [r4, #8]
      for (i = 0U; i < hhcd->Init.Host_channels; i++)
 8003036:	3601      	adds	r6, #1
 8003038:	42b1      	cmp	r1, r6
 800303a:	f240 8089 	bls.w	8003150 <HAL_HCD_IRQHandler+0x2c0>
        if ((interrupt & (1UL << (i & 0xFU))) != 0U)
 800303e:	f006 030f 	and.w	r3, r6, #15
 8003042:	fa28 f303 	lsr.w	r3, r8, r3
 8003046:	07da      	lsls	r2, r3, #31
 8003048:	d5f5      	bpl.n	8003036 <HAL_HCD_IRQHandler+0x1a6>
 800304a:	0173      	lsls	r3, r6, #5
 800304c:	fa5f fa86 	uxtb.w	sl, r6
          if ((USBx_HC(i)->HCCHAR & USB_OTG_HCCHAR_EPDIR) == USB_OTG_HCCHAR_EPDIR)
 8003050:	595b      	ldr	r3, [r3, r5]
 8003052:	ea4f 1b4a 	mov.w	fp, sl, lsl #5
 8003056:	f500 62a0 	add.w	r2, r0, #1280	; 0x500
 800305a:	eb02 070b 	add.w	r7, r2, fp
 800305e:	f413 4f00 	tst.w	r3, #32768	; 0x8000
  if ((USBx_HC(ch_num)->HCINT & USB_OTG_HCINT_AHBERR) == USB_OTG_HCINT_AHBERR)
 8003062:	68bb      	ldr	r3, [r7, #8]
          if ((USBx_HC(i)->HCCHAR & USB_OTG_HCCHAR_EPDIR) == USB_OTG_HCCHAR_EPDIR)
 8003064:	d1b0      	bne.n	8002fc8 <HAL_HCD_IRQHandler+0x138>
  if ((USBx_HC(ch_num)->HCINT & USB_OTG_HCINT_AHBERR) == USB_OTG_HCINT_AHBERR)
 8003066:	f013 0304 	ands.w	r3, r3, #4
 800306a:	f040 8083 	bne.w	8003174 <HAL_HCD_IRQHandler+0x2e4>
  else if ((USBx_HC(ch_num)->HCINT & USB_OTG_HCINT_ACK) == USB_OTG_HCINT_ACK)
 800306e:	f8d7 c008 	ldr.w	ip, [r7, #8]
 8003072:	f01c 0c20 	ands.w	ip, ip, #32
 8003076:	f000 80c2 	beq.w	80031fe <HAL_HCD_IRQHandler+0x36e>
    if (hhcd->hc[ch_num].do_ping == 1U)
 800307a:	eb0a 028a 	add.w	r2, sl, sl, lsl #2
    __HAL_HCD_CLEAR_HC_INT(ch_num, USB_OTG_HCINT_ACK);
 800307e:	f04f 0c20 	mov.w	ip, #32
    if (hhcd->hc[ch_num].do_ping == 1U)
 8003082:	eb04 02c2 	add.w	r2, r4, r2, lsl #3
    __HAL_HCD_CLEAR_HC_INT(ch_num, USB_OTG_HCINT_ACK);
 8003086:	f8c7 c008 	str.w	ip, [r7, #8]
    if (hhcd->hc[ch_num].do_ping == 1U)
 800308a:	f892 c03d 	ldrb.w	ip, [r2, #61]	; 0x3d
 800308e:	f1bc 0f01 	cmp.w	ip, #1
 8003092:	d1d0      	bne.n	8003036 <HAL_HCD_IRQHandler+0x1a6>
      hhcd->hc[ch_num].do_ping = 0U;
 8003094:	f882 303d 	strb.w	r3, [r2, #61]	; 0x3d
      __HAL_HCD_UNMASK_HALT_HC_INT(ch_num);
 8003098:	68fb      	ldr	r3, [r7, #12]
      hhcd->hc[ch_num].urb_state  = URB_NOTREADY;
 800309a:	f882 905c 	strb.w	r9, [r2, #92]	; 0x5c
      __HAL_HCD_UNMASK_HALT_HC_INT(ch_num);
 800309e:	f043 0302 	orr.w	r3, r3, #2
      (void)USB_HC_Halt(hhcd->Instance, (uint8_t)ch_num);
 80030a2:	4651      	mov	r1, sl
      __HAL_HCD_UNMASK_HALT_HC_INT(ch_num);
 80030a4:	60fb      	str	r3, [r7, #12]
      (void)USB_HC_Halt(hhcd->Instance, (uint8_t)ch_num);
 80030a6:	f002 fa1f 	bl	80054e8 <USB_HC_Halt>
 80030aa:	6820      	ldr	r0, [r4, #0]
 80030ac:	68a1      	ldr	r1, [r4, #8]
 80030ae:	e7c2      	b.n	8003036 <HAL_HCD_IRQHandler+0x1a6>
  uint32_t USBx_BASE = (uint32_t)USBx;
  __IO uint32_t hprt0, hprt0_dup;

  /* Handle Host Port Interrupts */
  hprt0 = USBx_HPRT0;
 80030b0:	f8d6 3440 	ldr.w	r3, [r6, #1088]	; 0x440
 80030b4:	9302      	str	r3, [sp, #8]
  hprt0_dup = USBx_HPRT0;
 80030b6:	f8d6 3440 	ldr.w	r3, [r6, #1088]	; 0x440
 80030ba:	9303      	str	r3, [sp, #12]

  hprt0_dup &= ~(USB_OTG_HPRT_PENA | USB_OTG_HPRT_PCDET | \
 80030bc:	9b03      	ldr	r3, [sp, #12]
 80030be:	f023 032e 	bic.w	r3, r3, #46	; 0x2e
 80030c2:	9303      	str	r3, [sp, #12]
                 USB_OTG_HPRT_PENCHNG | USB_OTG_HPRT_POCCHNG);

  /* Check whether Port Connect detected */
  if ((hprt0 & USB_OTG_HPRT_PCDET) == USB_OTG_HPRT_PCDET)
 80030c4:	9b02      	ldr	r3, [sp, #8]
 80030c6:	0798      	lsls	r0, r3, #30
  USB_OTG_GlobalTypeDef *USBx = hhcd->Instance;
 80030c8:	4637      	mov	r7, r6
  if ((hprt0 & USB_OTG_HPRT_PCDET) == USB_OTG_HPRT_PCDET)
 80030ca:	d507      	bpl.n	80030dc <HAL_HCD_IRQHandler+0x24c>
  {
    if ((hprt0 & USB_OTG_HPRT_PCSTS) == USB_OTG_HPRT_PCSTS)
 80030cc:	9b02      	ldr	r3, [sp, #8]
 80030ce:	07d9      	lsls	r1, r3, #31
 80030d0:	f100 8137 	bmi.w	8003342 <HAL_HCD_IRQHandler+0x4b2>
      hhcd->ConnectCallback(hhcd);
#else
      HAL_HCD_Connect_Callback(hhcd);
#endif /* USE_HAL_HCD_REGISTER_CALLBACKS */
    }
    hprt0_dup  |= USB_OTG_HPRT_PCDET;
 80030d4:	9b03      	ldr	r3, [sp, #12]
 80030d6:	f043 0302 	orr.w	r3, r3, #2
 80030da:	9303      	str	r3, [sp, #12]
  }

  /* Check whether Port Enable Changed */
  if ((hprt0 & USB_OTG_HPRT_PENCHNG) == USB_OTG_HPRT_PENCHNG)
 80030dc:	9b02      	ldr	r3, [sp, #8]
 80030de:	071a      	lsls	r2, r3, #28
 80030e0:	d518      	bpl.n	8003114 <HAL_HCD_IRQHandler+0x284>
  {
    hprt0_dup |= USB_OTG_HPRT_PENCHNG;
 80030e2:	9b03      	ldr	r3, [sp, #12]
 80030e4:	f043 0308 	orr.w	r3, r3, #8
 80030e8:	9303      	str	r3, [sp, #12]

    if ((hprt0 & USB_OTG_HPRT_PENA) == USB_OTG_HPRT_PENA)
 80030ea:	9b02      	ldr	r3, [sp, #8]
 80030ec:	075b      	lsls	r3, r3, #29
 80030ee:	f140 8130 	bpl.w	8003352 <HAL_HCD_IRQHandler+0x4c2>
    {
      if (hhcd->Init.phy_itface  == USB_OTG_EMBEDDED_PHY)
 80030f2:	69a1      	ldr	r1, [r4, #24]
 80030f4:	2902      	cmp	r1, #2
 80030f6:	f000 813e 	beq.w	8003376 <HAL_HCD_IRQHandler+0x4e6>
          (void)USB_InitFSLSPClkSel(hhcd->Instance, HCFG_48_MHZ);
        }
      }
      else
      {
        if (hhcd->Init.speed == HCD_SPEED_FULL)
 80030fa:	68e3      	ldr	r3, [r4, #12]
 80030fc:	2b01      	cmp	r3, #1
        {
          USBx_HOST->HFIR = 60000U;
 80030fe:	bf04      	itt	eq
 8003100:	f64e 2360 	movweq	r3, #60000	; 0xea60
 8003104:	f8c6 3404 	streq.w	r3, [r6, #1028]	; 0x404
      }
#if (USE_HAL_HCD_REGISTER_CALLBACKS == 1U)
      hhcd->PortEnabledCallback(hhcd);
      hhcd->ConnectCallback(hhcd);
#else
      HAL_HCD_PortEnabled_Callback(hhcd);
 8003108:	4620      	mov	r0, r4
 800310a:	f003 fa63 	bl	80065d4 <HAL_HCD_PortEnabled_Callback>
      HAL_HCD_Connect_Callback(hhcd);
 800310e:	4620      	mov	r0, r4
 8003110:	f003 fa56 	bl	80065c0 <HAL_HCD_Connect_Callback>
 8003114:	6826      	ldr	r6, [r4, #0]
      USB_UNMASK_INTERRUPT(hhcd->Instance, USB_OTG_GINTSTS_DISCINT);
    }
  }

  /* Check for an overcurrent */
  if ((hprt0 & USB_OTG_HPRT_POCCHNG) == USB_OTG_HPRT_POCCHNG)
 8003116:	9b02      	ldr	r3, [sp, #8]
 8003118:	0698      	lsls	r0, r3, #26
 800311a:	d503      	bpl.n	8003124 <HAL_HCD_IRQHandler+0x294>
  {
    hprt0_dup |= USB_OTG_HPRT_POCCHNG;
 800311c:	9b03      	ldr	r3, [sp, #12]
 800311e:	f043 0320 	orr.w	r3, r3, #32
 8003122:	9303      	str	r3, [sp, #12]
  }

  /* Clear Port Interrupts */
  USBx_HPRT0 = hprt0_dup;
 8003124:	9b03      	ldr	r3, [sp, #12]
 8003126:	f8c7 3440 	str.w	r3, [r7, #1088]	; 0x440
 800312a:	e6f3      	b.n	8002f14 <HAL_HCD_IRQHandler+0x84>
      USBx_HPRT0 &= ~(USB_OTG_HPRT_PENA | USB_OTG_HPRT_PCDET | \
 800312c:	f8d5 3440 	ldr.w	r3, [r5, #1088]	; 0x440
 8003130:	f023 032e 	bic.w	r3, r3, #46	; 0x2e
 8003134:	f8c5 3440 	str.w	r3, [r5, #1088]	; 0x440
      HAL_HCD_Disconnect_Callback(hhcd);
 8003138:	4620      	mov	r0, r4
 800313a:	f003 fa45 	bl	80065c8 <HAL_HCD_Disconnect_Callback>
      (void)USB_InitFSLSPClkSel(hhcd->Instance, HCFG_48_MHZ);
 800313e:	2101      	movs	r1, #1
 8003140:	6820      	ldr	r0, [r4, #0]
 8003142:	f001 ff57 	bl	8004ff4 <USB_InitFSLSPClkSel>
      __HAL_HCD_CLEAR_FLAG(hhcd, USB_OTG_GINTSTS_DISCINT);
 8003146:	6820      	ldr	r0, [r4, #0]
 8003148:	f04f 5300 	mov.w	r3, #536870912	; 0x20000000
 800314c:	6143      	str	r3, [r0, #20]
 800314e:	e6db      	b.n	8002f08 <HAL_HCD_IRQHandler+0x78>
      __HAL_HCD_CLEAR_FLAG(hhcd, USB_OTG_GINTSTS_HCINT);
 8003150:	f04f 7300 	mov.w	r3, #33554432	; 0x2000000
 8003154:	6143      	str	r3, [r0, #20]
 8003156:	e6ea      	b.n	8002f2e <HAL_HCD_IRQHandler+0x9e>
      HAL_HCD_SOF_Callback(hhcd);
 8003158:	4620      	mov	r0, r4
 800315a:	f003 fa2d 	bl	80065b8 <HAL_HCD_SOF_Callback>
      __HAL_HCD_CLEAR_FLAG(hhcd, USB_OTG_GINTSTS_SOF);
 800315e:	6820      	ldr	r0, [r4, #0]
 8003160:	2308      	movs	r3, #8
 8003162:	6143      	str	r3, [r0, #20]
 8003164:	e6dd      	b.n	8002f22 <HAL_HCD_IRQHandler+0x92>
  else if ((USBx_HC(ch_num)->HCINT & USB_OTG_HCINT_ACK) == USB_OTG_HCINT_ACK)
 8003166:	68bb      	ldr	r3, [r7, #8]
 8003168:	0699      	lsls	r1, r3, #26
 800316a:	f140 8085 	bpl.w	8003278 <HAL_HCD_IRQHandler+0x3e8>
    __HAL_HCD_CLEAR_HC_INT(ch_num, USB_OTG_HCINT_ACK);
 800316e:	2320      	movs	r3, #32
 8003170:	60bb      	str	r3, [r7, #8]
 8003172:	e732      	b.n	8002fda <HAL_HCD_IRQHandler+0x14a>
    __HAL_HCD_CLEAR_HC_INT(ch_num, USB_OTG_HCINT_AHBERR);
 8003174:	2304      	movs	r3, #4
 8003176:	60bb      	str	r3, [r7, #8]
    __HAL_HCD_UNMASK_HALT_HC_INT(ch_num);
 8003178:	68fb      	ldr	r3, [r7, #12]
 800317a:	f043 0302 	orr.w	r3, r3, #2
 800317e:	60fb      	str	r3, [r7, #12]
 8003180:	e759      	b.n	8003036 <HAL_HCD_IRQHandler+0x1a6>
  else if ((USBx_HC(ch_num)->HCINT & USB_OTG_HCINT_CHH) == USB_OTG_HCINT_CHH)
 8003182:	68bb      	ldr	r3, [r7, #8]
 8003184:	0799      	lsls	r1, r3, #30
 8003186:	f140 80a2 	bpl.w	80032ce <HAL_HCD_IRQHandler+0x43e>
    if (hhcd->hc[ch_num].state == HC_XFRC)
 800318a:	ea4f 038a 	mov.w	r3, sl, lsl #2
 800318e:	eb03 000a 	add.w	r0, r3, sl
 8003192:	eb04 00c0 	add.w	r0, r4, r0, lsl #3
    __HAL_HCD_MASK_HALT_HC_INT(ch_num);
 8003196:	f8d7 c00c 	ldr.w	ip, [r7, #12]
    if (hhcd->hc[ch_num].state == HC_XFRC)
 800319a:	f890 105d 	ldrb.w	r1, [r0, #93]	; 0x5d
    __HAL_HCD_MASK_HALT_HC_INT(ch_num);
 800319e:	f02c 0c02 	bic.w	ip, ip, #2
    if (hhcd->hc[ch_num].state == HC_XFRC)
 80031a2:	2901      	cmp	r1, #1
    __HAL_HCD_MASK_HALT_HC_INT(ch_num);
 80031a4:	f8c7 c00c 	str.w	ip, [r7, #12]
    if (hhcd->hc[ch_num].state == HC_XFRC)
 80031a8:	f000 80e2 	beq.w	8003370 <HAL_HCD_IRQHandler+0x4e0>
    else if (hhcd->hc[ch_num].state == HC_STALL)
 80031ac:	2905      	cmp	r1, #5
 80031ae:	f000 80df 	beq.w	8003370 <HAL_HCD_IRQHandler+0x4e0>
    else if ((hhcd->hc[ch_num].state == HC_XACTERR) ||
 80031b2:	2906      	cmp	r1, #6
 80031b4:	f000 8135 	beq.w	8003422 <HAL_HCD_IRQHandler+0x592>
 80031b8:	2908      	cmp	r1, #8
 80031ba:	f000 8132 	beq.w	8003422 <HAL_HCD_IRQHandler+0x592>
    else if (hhcd->hc[ch_num].state == HC_NAK)
 80031be:	2903      	cmp	r1, #3
 80031c0:	f000 81c0 	beq.w	8003544 <HAL_HCD_IRQHandler+0x6b4>
 80031c4:	2328      	movs	r3, #40	; 0x28
 80031c6:	fb03 430a 	mla	r3, r3, sl, r4
 80031ca:	f893 105c 	ldrb.w	r1, [r3, #92]	; 0x5c
    __HAL_HCD_CLEAR_HC_INT(ch_num, USB_OTG_HCINT_CHH);
 80031ce:	f8c7 9008 	str.w	r9, [r7, #8]
    HAL_HCD_HC_NotifyURBChange_Callback(hhcd, (uint8_t)ch_num, hhcd->hc[ch_num].urb_state);
 80031d2:	460a      	mov	r2, r1
    HAL_HCD_HC_NotifyURBChange_Callback(hhcd, (uint8_t)ch_num, hhcd->hc[ch_num].urb_state);
 80031d4:	4620      	mov	r0, r4
 80031d6:	4651      	mov	r1, sl
 80031d8:	f003 f9fa 	bl	80065d0 <HAL_HCD_HC_NotifyURBChange_Callback>
 80031dc:	6820      	ldr	r0, [r4, #0]
 80031de:	68a1      	ldr	r1, [r4, #8]
 80031e0:	e729      	b.n	8003036 <HAL_HCD_IRQHandler+0x1a6>
    __HAL_HCD_UNMASK_HALT_HC_INT(ch_num);
 80031e2:	68fb      	ldr	r3, [r7, #12]
    (void)USB_HC_Halt(hhcd->Instance, (uint8_t)ch_num);
 80031e4:	6820      	ldr	r0, [r4, #0]
    __HAL_HCD_UNMASK_HALT_HC_INT(ch_num);
 80031e6:	f043 0302 	orr.w	r3, r3, #2
    (void)USB_HC_Halt(hhcd->Instance, (uint8_t)ch_num);
 80031ea:	4651      	mov	r1, sl
    __HAL_HCD_UNMASK_HALT_HC_INT(ch_num);
 80031ec:	60fb      	str	r3, [r7, #12]
    (void)USB_HC_Halt(hhcd->Instance, (uint8_t)ch_num);
 80031ee:	f002 f97b 	bl	80054e8 <USB_HC_Halt>
    __HAL_HCD_CLEAR_HC_INT(ch_num, USB_OTG_HCINT_FRMOR);
 80031f2:	f44f 7300 	mov.w	r3, #512	; 0x200
 80031f6:	60bb      	str	r3, [r7, #8]
 80031f8:	6820      	ldr	r0, [r4, #0]
 80031fa:	68a1      	ldr	r1, [r4, #8]
 80031fc:	e71b      	b.n	8003036 <HAL_HCD_IRQHandler+0x1a6>
  else if ((USBx_HC(ch_num)->HCINT & USB_OTG_HCINT_NYET) == USB_OTG_HCINT_NYET)
 80031fe:	68bb      	ldr	r3, [r7, #8]
 8003200:	065b      	lsls	r3, r3, #25
 8003202:	f100 80db 	bmi.w	80033bc <HAL_HCD_IRQHandler+0x52c>
  else if ((USBx_HC(ch_num)->HCINT & USB_OTG_HCINT_FRMOR) == USB_OTG_HCINT_FRMOR)
 8003206:	68bb      	ldr	r3, [r7, #8]
 8003208:	f413 7300 	ands.w	r3, r3, #512	; 0x200
 800320c:	f040 80ef 	bne.w	80033ee <HAL_HCD_IRQHandler+0x55e>
  else if ((USBx_HC(ch_num)->HCINT & USB_OTG_HCINT_XFRC) == USB_OTG_HCINT_XFRC)
 8003210:	f8d7 c008 	ldr.w	ip, [r7, #8]
 8003214:	f01c 0f01 	tst.w	ip, #1
 8003218:	f040 8125 	bne.w	8003466 <HAL_HCD_IRQHandler+0x5d6>
  else if ((USBx_HC(ch_num)->HCINT & USB_OTG_HCINT_STALL) == USB_OTG_HCINT_STALL)
 800321c:	68bb      	ldr	r3, [r7, #8]
 800321e:	f013 0308 	ands.w	r3, r3, #8
 8003222:	f040 816c 	bne.w	80034fe <HAL_HCD_IRQHandler+0x66e>
  else if ((USBx_HC(ch_num)->HCINT & USB_OTG_HCINT_NAK) == USB_OTG_HCINT_NAK)
 8003226:	f8d7 c008 	ldr.w	ip, [r7, #8]
 800322a:	f01c 0f10 	tst.w	ip, #16
 800322e:	f000 813e 	beq.w	80034ae <HAL_HCD_IRQHandler+0x61e>
    hhcd->hc[ch_num].ErrCnt = 0U;
 8003232:	eb0a 028a 	add.w	r2, sl, sl, lsl #2
 8003236:	eb04 02c2 	add.w	r2, r4, r2, lsl #3
    hhcd->hc[ch_num].state = HC_NAK;
 800323a:	2103      	movs	r1, #3
    hhcd->hc[ch_num].ErrCnt = 0U;
 800323c:	6593      	str	r3, [r2, #88]	; 0x58
    if (hhcd->hc[ch_num].do_ping == 0U)
 800323e:	f892 303d 	ldrb.w	r3, [r2, #61]	; 0x3d
    hhcd->hc[ch_num].state = HC_NAK;
 8003242:	f882 105d 	strb.w	r1, [r2, #93]	; 0x5d
    if (hhcd->hc[ch_num].do_ping == 0U)
 8003246:	b943      	cbnz	r3, 800325a <HAL_HCD_IRQHandler+0x3ca>
      if (hhcd->hc[ch_num].speed == HCD_SPEED_HIGH)
 8003248:	2328      	movs	r3, #40	; 0x28
 800324a:	fb03 430a 	mla	r3, r3, sl, r4
 800324e:	f893 203c 	ldrb.w	r2, [r3, #60]	; 0x3c
 8003252:	b912      	cbnz	r2, 800325a <HAL_HCD_IRQHandler+0x3ca>
        hhcd->hc[ch_num].do_ping = 1U;
 8003254:	2201      	movs	r2, #1
 8003256:	f883 203d 	strb.w	r2, [r3, #61]	; 0x3d
    __HAL_HCD_UNMASK_HALT_HC_INT(ch_num);
 800325a:	68fb      	ldr	r3, [r7, #12]
 800325c:	f043 0302 	orr.w	r3, r3, #2
    (void)USB_HC_Halt(hhcd->Instance, (uint8_t)ch_num);
 8003260:	4651      	mov	r1, sl
    __HAL_HCD_UNMASK_HALT_HC_INT(ch_num);
 8003262:	60fb      	str	r3, [r7, #12]
    (void)USB_HC_Halt(hhcd->Instance, (uint8_t)ch_num);
 8003264:	f002 f940 	bl	80054e8 <USB_HC_Halt>
    __HAL_HCD_CLEAR_HC_INT(ch_num, USB_OTG_HCINT_NAK);
 8003268:	2310      	movs	r3, #16
 800326a:	60bb      	str	r3, [r7, #8]
 800326c:	6820      	ldr	r0, [r4, #0]
 800326e:	68a1      	ldr	r1, [r4, #8]
 8003270:	e6e1      	b.n	8003036 <HAL_HCD_IRQHandler+0x1a6>
 8003272:	bf00      	nop
 8003274:	1ff80000 	.word	0x1ff80000
  else if ((USBx_HC(ch_num)->HCINT & USB_OTG_HCINT_STALL) == USB_OTG_HCINT_STALL)
 8003278:	68bb      	ldr	r3, [r7, #8]
 800327a:	071b      	lsls	r3, r3, #28
 800327c:	f100 8086 	bmi.w	800338c <HAL_HCD_IRQHandler+0x4fc>
  else if ((USBx_HC(ch_num)->HCINT & USB_OTG_HCINT_DTERR) == USB_OTG_HCINT_DTERR)
 8003280:	68bb      	ldr	r3, [r7, #8]
 8003282:	0559      	lsls	r1, r3, #21
 8003284:	f57f aea9 	bpl.w	8002fda <HAL_HCD_IRQHandler+0x14a>
    __HAL_HCD_UNMASK_HALT_HC_INT(ch_num);
 8003288:	68fb      	ldr	r3, [r7, #12]
 800328a:	9201      	str	r2, [sp, #4]
 800328c:	f043 0302 	orr.w	r3, r3, #2
 8003290:	60fb      	str	r3, [r7, #12]
    (void)USB_HC_Halt(hhcd->Instance, (uint8_t)ch_num);
 8003292:	4651      	mov	r1, sl
 8003294:	f002 f928 	bl	80054e8 <USB_HC_Halt>
    hhcd->hc[ch_num].state = HC_DATATGLERR;
 8003298:	eb0a 038a 	add.w	r3, sl, sl, lsl #2
    __HAL_HCD_CLEAR_HC_INT(ch_num, USB_OTG_HCINT_NAK);
 800329c:	2110      	movs	r1, #16
    hhcd->hc[ch_num].state = HC_DATATGLERR;
 800329e:	eb04 03c3 	add.w	r3, r4, r3, lsl #3
    __HAL_HCD_CLEAR_HC_INT(ch_num, USB_OTG_HCINT_NAK);
 80032a2:	60b9      	str	r1, [r7, #8]
    hhcd->hc[ch_num].state = HC_DATATGLERR;
 80032a4:	2008      	movs	r0, #8
    __HAL_HCD_CLEAR_HC_INT(ch_num, USB_OTG_HCINT_DTERR);
 80032a6:	f44f 6180 	mov.w	r1, #1024	; 0x400
    hhcd->hc[ch_num].state = HC_DATATGLERR;
 80032aa:	f883 005d 	strb.w	r0, [r3, #93]	; 0x5d
    __HAL_HCD_CLEAR_HC_INT(ch_num, USB_OTG_HCINT_DTERR);
 80032ae:	9a01      	ldr	r2, [sp, #4]
 80032b0:	60b9      	str	r1, [r7, #8]
 80032b2:	e692      	b.n	8002fda <HAL_HCD_IRQHandler+0x14a>
      __HAL_HCD_UNMASK_HALT_HC_INT(ch_num);
 80032b4:	68fa      	ldr	r2, [r7, #12]
      (void)USB_HC_Halt(hhcd->Instance, (uint8_t)ch_num);
 80032b6:	6820      	ldr	r0, [r4, #0]
 80032b8:	9301      	str	r3, [sp, #4]
      __HAL_HCD_UNMASK_HALT_HC_INT(ch_num);
 80032ba:	f042 0202 	orr.w	r2, r2, #2
 80032be:	60fa      	str	r2, [r7, #12]
      (void)USB_HC_Halt(hhcd->Instance, (uint8_t)ch_num);
 80032c0:	4651      	mov	r1, sl
 80032c2:	f002 f911 	bl	80054e8 <USB_HC_Halt>
      __HAL_HCD_CLEAR_HC_INT(ch_num, USB_OTG_HCINT_NAK);
 80032c6:	2210      	movs	r2, #16
 80032c8:	60ba      	str	r2, [r7, #8]
 80032ca:	9b01      	ldr	r3, [sp, #4]
 80032cc:	e6a8      	b.n	8003020 <HAL_HCD_IRQHandler+0x190>
  else if ((USBx_HC(ch_num)->HCINT & USB_OTG_HCINT_TXERR) == USB_OTG_HCINT_TXERR)
 80032ce:	68bb      	ldr	r3, [r7, #8]
 80032d0:	6820      	ldr	r0, [r4, #0]
 80032d2:	f013 0380 	ands.w	r3, r3, #128	; 0x80
 80032d6:	f040 808c 	bne.w	80033f2 <HAL_HCD_IRQHandler+0x562>
  else if ((USBx_HC(ch_num)->HCINT & USB_OTG_HCINT_NAK) == USB_OTG_HCINT_NAK)
 80032da:	68ba      	ldr	r2, [r7, #8]
 80032dc:	06d2      	lsls	r2, r2, #27
 80032de:	f57f af7e 	bpl.w	80031de <HAL_HCD_IRQHandler+0x34e>
    if (hhcd->hc[ch_num].ep_type == EP_TYPE_INTR)
 80032e2:	eb0a 018a 	add.w	r1, sl, sl, lsl #2
 80032e6:	eb04 01c1 	add.w	r1, r4, r1, lsl #3
 80032ea:	f891 203f 	ldrb.w	r2, [r1, #63]	; 0x3f
 80032ee:	2a03      	cmp	r2, #3
 80032f0:	f000 811b 	beq.w	800352a <HAL_HCD_IRQHandler+0x69a>
    else if ((hhcd->hc[ch_num].ep_type == EP_TYPE_CTRL) ||
 80032f4:	f012 02fd 	ands.w	r2, r2, #253	; 0xfd
 80032f8:	d111      	bne.n	800331e <HAL_HCD_IRQHandler+0x48e>
      if (hhcd->Init.dma_enable == 0U)
 80032fa:	6923      	ldr	r3, [r4, #16]
      hhcd->hc[ch_num].ErrCnt = 0U;
 80032fc:	658a      	str	r2, [r1, #88]	; 0x58
      if (hhcd->Init.dma_enable == 0U)
 80032fe:	b973      	cbnz	r3, 800331e <HAL_HCD_IRQHandler+0x48e>
        __HAL_HCD_UNMASK_HALT_HC_INT(ch_num);
 8003300:	68fb      	ldr	r3, [r7, #12]
        hhcd->hc[ch_num].state = HC_NAK;
 8003302:	2228      	movs	r2, #40	; 0x28
 8003304:	fb02 420a 	mla	r2, r2, sl, r4
 8003308:	f04f 0c03 	mov.w	ip, #3
        __HAL_HCD_UNMASK_HALT_HC_INT(ch_num);
 800330c:	f043 0302 	orr.w	r3, r3, #2
        hhcd->hc[ch_num].state = HC_NAK;
 8003310:	f882 c05d 	strb.w	ip, [r2, #93]	; 0x5d
        (void)USB_HC_Halt(hhcd->Instance, (uint8_t)ch_num);
 8003314:	4651      	mov	r1, sl
        __HAL_HCD_UNMASK_HALT_HC_INT(ch_num);
 8003316:	60fb      	str	r3, [r7, #12]
        (void)USB_HC_Halt(hhcd->Instance, (uint8_t)ch_num);
 8003318:	f002 f8e6 	bl	80054e8 <USB_HC_Halt>
 800331c:	6820      	ldr	r0, [r4, #0]
 800331e:	68a1      	ldr	r1, [r4, #8]
    __HAL_HCD_CLEAR_HC_INT(ch_num, USB_OTG_HCINT_NAK);
 8003320:	2310      	movs	r3, #16
 8003322:	60bb      	str	r3, [r7, #8]
 8003324:	e687      	b.n	8003036 <HAL_HCD_IRQHandler+0x1a6>
      hhcd->hc[ch_num].xfer_count = hhcd->hc[ch_num].xfer_len - \
 8003326:	ea4f 038a 	mov.w	r3, sl, lsl #2
 800332a:	eb03 010a 	add.w	r1, r3, sl
                                    (USBx_HC(ch_num)->HCTSIZ & USB_OTG_HCTSIZ_XFRSIZ);
 800332e:	6938      	ldr	r0, [r7, #16]
      hhcd->hc[ch_num].xfer_count = hhcd->hc[ch_num].xfer_len - \
 8003330:	eb04 01c1 	add.w	r1, r4, r1, lsl #3
                                    (USBx_HC(ch_num)->HCTSIZ & USB_OTG_HCTSIZ_XFRSIZ);
 8003334:	f3c0 0c12 	ubfx	ip, r0, #0, #19
      hhcd->hc[ch_num].xfer_count = hhcd->hc[ch_num].xfer_len - \
 8003338:	6c88      	ldr	r0, [r1, #72]	; 0x48
 800333a:	eba0 000c 	sub.w	r0, r0, ip
 800333e:	64c8      	str	r0, [r1, #76]	; 0x4c
 8003340:	e659      	b.n	8002ff6 <HAL_HCD_IRQHandler+0x166>
      USB_MASK_INTERRUPT(hhcd->Instance, USB_OTG_GINTSTS_DISCINT);
 8003342:	69b3      	ldr	r3, [r6, #24]
 8003344:	f023 5300 	bic.w	r3, r3, #536870912	; 0x20000000
 8003348:	61b3      	str	r3, [r6, #24]
      HAL_HCD_Connect_Callback(hhcd);
 800334a:	4620      	mov	r0, r4
 800334c:	f003 f938 	bl	80065c0 <HAL_HCD_Connect_Callback>
 8003350:	e6c0      	b.n	80030d4 <HAL_HCD_IRQHandler+0x244>
      HAL_HCD_PortDisabled_Callback(hhcd);
 8003352:	4620      	mov	r0, r4
 8003354:	f003 f942 	bl	80065dc <HAL_HCD_PortDisabled_Callback>
      USBx_HPRT0 &= ~(USB_OTG_HPRT_PENA | USB_OTG_HPRT_PCDET | \
 8003358:	f8d6 3440 	ldr.w	r3, [r6, #1088]	; 0x440
 800335c:	f023 032e 	bic.w	r3, r3, #46	; 0x2e
 8003360:	f8c6 3440 	str.w	r3, [r6, #1088]	; 0x440
      USB_UNMASK_INTERRUPT(hhcd->Instance, USB_OTG_GINTSTS_DISCINT);
 8003364:	6826      	ldr	r6, [r4, #0]
 8003366:	69b3      	ldr	r3, [r6, #24]
 8003368:	f043 5300 	orr.w	r3, r3, #536870912	; 0x20000000
 800336c:	61b3      	str	r3, [r6, #24]
 800336e:	e6d2      	b.n	8003116 <HAL_HCD_IRQHandler+0x286>
      hhcd->hc[ch_num].urb_state  = URB_STALL;
 8003370:	f880 105c 	strb.w	r1, [r0, #92]	; 0x5c
 8003374:	e72b      	b.n	80031ce <HAL_HCD_IRQHandler+0x33e>
        if ((hprt0 & USB_OTG_HPRT_PSPD) == (HPRT0_PRTSPD_LOW_SPEED << 17))
 8003376:	9b02      	ldr	r3, [sp, #8]
 8003378:	6820      	ldr	r0, [r4, #0]
 800337a:	f403 23c0 	and.w	r3, r3, #393216	; 0x60000
 800337e:	f5b3 2f80 	cmp.w	r3, #262144	; 0x40000
          (void)USB_InitFSLSPClkSel(hhcd->Instance, HCFG_48_MHZ);
 8003382:	bf18      	it	ne
 8003384:	2101      	movne	r1, #1
 8003386:	f001 fe35 	bl	8004ff4 <USB_InitFSLSPClkSel>
 800338a:	e6bd      	b.n	8003108 <HAL_HCD_IRQHandler+0x278>
    __HAL_HCD_UNMASK_HALT_HC_INT(ch_num);
 800338c:	68fb      	ldr	r3, [r7, #12]
 800338e:	9201      	str	r2, [sp, #4]
    hhcd->hc[ch_num].state = HC_STALL;
 8003390:	eb0a 018a 	add.w	r1, sl, sl, lsl #2
 8003394:	eb04 01c1 	add.w	r1, r4, r1, lsl #3
    __HAL_HCD_UNMASK_HALT_HC_INT(ch_num);
 8003398:	f043 0302 	orr.w	r3, r3, #2
 800339c:	60fb      	str	r3, [r7, #12]
    hhcd->hc[ch_num].state = HC_STALL;
 800339e:	f04f 0c05 	mov.w	ip, #5
    __HAL_HCD_CLEAR_HC_INT(ch_num, USB_OTG_HCINT_NAK);
 80033a2:	f04f 0e10 	mov.w	lr, #16
    __HAL_HCD_CLEAR_HC_INT(ch_num, USB_OTG_HCINT_STALL);
 80033a6:	2308      	movs	r3, #8
    hhcd->hc[ch_num].state = HC_STALL;
 80033a8:	f881 c05d 	strb.w	ip, [r1, #93]	; 0x5d
    __HAL_HCD_CLEAR_HC_INT(ch_num, USB_OTG_HCINT_NAK);
 80033ac:	f8c7 e008 	str.w	lr, [r7, #8]
    (void)USB_HC_Halt(hhcd->Instance, (uint8_t)ch_num);
 80033b0:	4651      	mov	r1, sl
    __HAL_HCD_CLEAR_HC_INT(ch_num, USB_OTG_HCINT_STALL);
 80033b2:	60bb      	str	r3, [r7, #8]
    (void)USB_HC_Halt(hhcd->Instance, (uint8_t)ch_num);
 80033b4:	f002 f898 	bl	80054e8 <USB_HC_Halt>
 80033b8:	9a01      	ldr	r2, [sp, #4]
 80033ba:	e60e      	b.n	8002fda <HAL_HCD_IRQHandler+0x14a>
    hhcd->hc[ch_num].state = HC_NYET;
 80033bc:	eb0a 038a 	add.w	r3, sl, sl, lsl #2
 80033c0:	eb04 03c3 	add.w	r3, r4, r3, lsl #3
    hhcd->hc[ch_num].do_ping = 1U;
 80033c4:	2201      	movs	r2, #1
 80033c6:	f883 203d 	strb.w	r2, [r3, #61]	; 0x3d
    __HAL_HCD_UNMASK_HALT_HC_INT(ch_num);
 80033ca:	68fa      	ldr	r2, [r7, #12]
    hhcd->hc[ch_num].ErrCnt = 0U;
 80033cc:	f8c3 c058 	str.w	ip, [r3, #88]	; 0x58
    __HAL_HCD_UNMASK_HALT_HC_INT(ch_num);
 80033d0:	f042 0202 	orr.w	r2, r2, #2
    hhcd->hc[ch_num].state = HC_NYET;
 80033d4:	f04f 0c04 	mov.w	ip, #4
 80033d8:	f883 c05d 	strb.w	ip, [r3, #93]	; 0x5d
    (void)USB_HC_Halt(hhcd->Instance, (uint8_t)ch_num);
 80033dc:	4651      	mov	r1, sl
    __HAL_HCD_UNMASK_HALT_HC_INT(ch_num);
 80033de:	60fa      	str	r2, [r7, #12]
    (void)USB_HC_Halt(hhcd->Instance, (uint8_t)ch_num);
 80033e0:	f002 f882 	bl	80054e8 <USB_HC_Halt>
    __HAL_HCD_CLEAR_HC_INT(ch_num, USB_OTG_HCINT_NYET);
 80033e4:	2340      	movs	r3, #64	; 0x40
 80033e6:	60bb      	str	r3, [r7, #8]
 80033e8:	6820      	ldr	r0, [r4, #0]
 80033ea:	68a1      	ldr	r1, [r4, #8]
 80033ec:	e623      	b.n	8003036 <HAL_HCD_IRQHandler+0x1a6>
    __HAL_HCD_UNMASK_HALT_HC_INT(ch_num);
 80033ee:	68fb      	ldr	r3, [r7, #12]
 80033f0:	e6f9      	b.n	80031e6 <HAL_HCD_IRQHandler+0x356>
    hhcd->hc[ch_num].ErrCnt++;
 80033f2:	eb0a 038a 	add.w	r3, sl, sl, lsl #2
 80033f6:	eb04 03c3 	add.w	r3, r4, r3, lsl #3
    __HAL_HCD_UNMASK_HALT_HC_INT(ch_num);
 80033fa:	68f9      	ldr	r1, [r7, #12]
    hhcd->hc[ch_num].ErrCnt++;
 80033fc:	6d9a      	ldr	r2, [r3, #88]	; 0x58
    __HAL_HCD_UNMASK_HALT_HC_INT(ch_num);
 80033fe:	f041 0c02 	orr.w	ip, r1, #2
    hhcd->hc[ch_num].ErrCnt++;
 8003402:	3201      	adds	r2, #1
    hhcd->hc[ch_num].state = HC_XACTERR;
 8003404:	f04f 0e06 	mov.w	lr, #6
    __HAL_HCD_UNMASK_HALT_HC_INT(ch_num);
 8003408:	f8c7 c00c 	str.w	ip, [r7, #12]
    (void)USB_HC_Halt(hhcd->Instance, (uint8_t)ch_num);
 800340c:	4651      	mov	r1, sl
    hhcd->hc[ch_num].ErrCnt++;
 800340e:	659a      	str	r2, [r3, #88]	; 0x58
    hhcd->hc[ch_num].state = HC_XACTERR;
 8003410:	f883 e05d 	strb.w	lr, [r3, #93]	; 0x5d
    (void)USB_HC_Halt(hhcd->Instance, (uint8_t)ch_num);
 8003414:	f002 f868 	bl	80054e8 <USB_HC_Halt>
    __HAL_HCD_CLEAR_HC_INT(ch_num, USB_OTG_HCINT_TXERR);
 8003418:	2380      	movs	r3, #128	; 0x80
 800341a:	60bb      	str	r3, [r7, #8]
 800341c:	6820      	ldr	r0, [r4, #0]
 800341e:	68a1      	ldr	r1, [r4, #8]
 8003420:	e609      	b.n	8003036 <HAL_HCD_IRQHandler+0x1a6>
      hhcd->hc[ch_num].ErrCnt++;
 8003422:	eb03 000a 	add.w	r0, r3, sl
 8003426:	eb04 00c0 	add.w	r0, r4, r0, lsl #3
 800342a:	6d81      	ldr	r1, [r0, #88]	; 0x58
 800342c:	3101      	adds	r1, #1
 800342e:	6581      	str	r1, [r0, #88]	; 0x58
      if (hhcd->hc[ch_num].ErrCnt > 3U)
 8003430:	2903      	cmp	r1, #3
        hhcd->hc[ch_num].ErrCnt = 0U;
 8003432:	f04f 0128 	mov.w	r1, #40	; 0x28
 8003436:	fb01 410a 	mla	r1, r1, sl, r4
      if (hhcd->hc[ch_num].ErrCnt > 3U)
 800343a:	d973      	bls.n	8003524 <HAL_HCD_IRQHandler+0x694>
        hhcd->hc[ch_num].ErrCnt = 0U;
 800343c:	f04f 0c00 	mov.w	ip, #0
        hhcd->hc[ch_num].urb_state = URB_ERROR;
 8003440:	2004      	movs	r0, #4
        hhcd->hc[ch_num].ErrCnt = 0U;
 8003442:	f8c1 c058 	str.w	ip, [r1, #88]	; 0x58
        hhcd->hc[ch_num].urb_state = URB_ERROR;
 8003446:	f881 005c 	strb.w	r0, [r1, #92]	; 0x5c
      tmpreg = USBx_HC(ch_num)->HCCHAR;
 800344a:	f852 000b 	ldr.w	r0, [r2, fp]
 800344e:	4453      	add	r3, sl
 8003450:	eb04 03c3 	add.w	r3, r4, r3, lsl #3
      tmpreg &= ~USB_OTG_HCCHAR_CHDIS;
 8003454:	f020 4080 	bic.w	r0, r0, #1073741824	; 0x40000000
      tmpreg |= USB_OTG_HCCHAR_CHENA;
 8003458:	f040 4000 	orr.w	r0, r0, #2147483648	; 0x80000000
 800345c:	f893 105c 	ldrb.w	r1, [r3, #92]	; 0x5c
      USBx_HC(ch_num)->HCCHAR = tmpreg;
 8003460:	f842 000b 	str.w	r0, [r2, fp]
 8003464:	e6b3      	b.n	80031ce <HAL_HCD_IRQHandler+0x33e>
    __HAL_HCD_UNMASK_HALT_HC_INT(ch_num);
 8003466:	68fa      	ldr	r2, [r7, #12]
    hhcd->hc[ch_num].ErrCnt = 0U;
 8003468:	eb0a 0b8a 	add.w	fp, sl, sl, lsl #2
 800346c:	eb04 0bcb 	add.w	fp, r4, fp, lsl #3
    __HAL_HCD_UNMASK_HALT_HC_INT(ch_num);
 8003470:	f042 0202 	orr.w	r2, r2, #2
    hhcd->hc[ch_num].ErrCnt = 0U;
 8003474:	f8cb 3058 	str.w	r3, [fp, #88]	; 0x58
    (void)USB_HC_Halt(hhcd->Instance, (uint8_t)ch_num);
 8003478:	4651      	mov	r1, sl
    __HAL_HCD_UNMASK_HALT_HC_INT(ch_num);
 800347a:	60fa      	str	r2, [r7, #12]
    (void)USB_HC_Halt(hhcd->Instance, (uint8_t)ch_num);
 800347c:	f002 f834 	bl	80054e8 <USB_HC_Halt>
    __HAL_HCD_CLEAR_HC_INT(ch_num, USB_OTG_HCINT_XFRC);
 8003480:	2301      	movs	r3, #1
 8003482:	60bb      	str	r3, [r7, #8]
 8003484:	6820      	ldr	r0, [r4, #0]
 8003486:	68a1      	ldr	r1, [r4, #8]
    hhcd->hc[ch_num].state = HC_XFRC;
 8003488:	f88b 305d 	strb.w	r3, [fp, #93]	; 0x5d
 800348c:	e5d3      	b.n	8003036 <HAL_HCD_IRQHandler+0x1a6>
      USBx_HC(ch_num)->HCCHAR |= USB_OTG_HCCHAR_ODDFRM;
 800348e:	f852 000b 	ldr.w	r0, [r2, fp]
 8003492:	9301      	str	r3, [sp, #4]
 8003494:	f040 5000 	orr.w	r0, r0, #536870912	; 0x20000000
 8003498:	f842 000b 	str.w	r0, [r2, fp]
      hhcd->hc[ch_num].urb_state = URB_DONE;
 800349c:	f881 c05c 	strb.w	ip, [r1, #92]	; 0x5c
      HAL_HCD_HC_NotifyURBChange_Callback(hhcd, (uint8_t)ch_num, hhcd->hc[ch_num].urb_state);
 80034a0:	4662      	mov	r2, ip
 80034a2:	4651      	mov	r1, sl
 80034a4:	4620      	mov	r0, r4
 80034a6:	f003 f893 	bl	80065d0 <HAL_HCD_HC_NotifyURBChange_Callback>
 80034aa:	9b01      	ldr	r3, [sp, #4]
 80034ac:	e5b8      	b.n	8003020 <HAL_HCD_IRQHandler+0x190>
  else if ((USBx_HC(ch_num)->HCINT & USB_OTG_HCINT_TXERR) == USB_OTG_HCINT_TXERR)
 80034ae:	68bb      	ldr	r3, [r7, #8]
 80034b0:	061b      	lsls	r3, r3, #24
 80034b2:	d456      	bmi.n	8003562 <HAL_HCD_IRQHandler+0x6d2>
  else if ((USBx_HC(ch_num)->HCINT & USB_OTG_HCINT_DTERR) == USB_OTG_HCINT_DTERR)
 80034b4:	68bb      	ldr	r3, [r7, #8]
 80034b6:	055b      	lsls	r3, r3, #21
 80034b8:	d465      	bmi.n	8003586 <HAL_HCD_IRQHandler+0x6f6>
  else if ((USBx_HC(ch_num)->HCINT & USB_OTG_HCINT_CHH) == USB_OTG_HCINT_CHH)
 80034ba:	68bb      	ldr	r3, [r7, #8]
 80034bc:	079b      	lsls	r3, r3, #30
 80034be:	f57f adba 	bpl.w	8003036 <HAL_HCD_IRQHandler+0x1a6>
    if (hhcd->hc[ch_num].state == HC_XFRC)
 80034c2:	2128      	movs	r1, #40	; 0x28
 80034c4:	fb01 410a 	mla	r1, r1, sl, r4
    __HAL_HCD_MASK_HALT_HC_INT(ch_num);
 80034c8:	68f8      	ldr	r0, [r7, #12]
    if (hhcd->hc[ch_num].state == HC_XFRC)
 80034ca:	f891 305d 	ldrb.w	r3, [r1, #93]	; 0x5d
    __HAL_HCD_MASK_HALT_HC_INT(ch_num);
 80034ce:	f020 0002 	bic.w	r0, r0, #2
    if (hhcd->hc[ch_num].state == HC_XFRC)
 80034d2:	2b01      	cmp	r3, #1
    __HAL_HCD_MASK_HALT_HC_INT(ch_num);
 80034d4:	60f8      	str	r0, [r7, #12]
    if (hhcd->hc[ch_num].state == HC_XFRC)
 80034d6:	d06e      	beq.n	80035b6 <HAL_HCD_IRQHandler+0x726>
    else if (hhcd->hc[ch_num].state == HC_NAK)
 80034d8:	2b03      	cmp	r3, #3
 80034da:	d069      	beq.n	80035b0 <HAL_HCD_IRQHandler+0x720>
    else if (hhcd->hc[ch_num].state == HC_NYET)
 80034dc:	2b04      	cmp	r3, #4
 80034de:	d067      	beq.n	80035b0 <HAL_HCD_IRQHandler+0x720>
    else if (hhcd->hc[ch_num].state == HC_STALL)
 80034e0:	2b05      	cmp	r3, #5
 80034e2:	f000 808c 	beq.w	80035fe <HAL_HCD_IRQHandler+0x76e>
    else if ((hhcd->hc[ch_num].state == HC_XACTERR) ||
 80034e6:	2b06      	cmp	r3, #6
 80034e8:	d073      	beq.n	80035d2 <HAL_HCD_IRQHandler+0x742>
 80034ea:	2b08      	cmp	r3, #8
 80034ec:	d071      	beq.n	80035d2 <HAL_HCD_IRQHandler+0x742>
    HAL_HCD_HC_NotifyURBChange_Callback(hhcd, (uint8_t)ch_num, hhcd->hc[ch_num].urb_state);
 80034ee:	2328      	movs	r3, #40	; 0x28
 80034f0:	fb03 430a 	mla	r3, r3, sl, r4
    __HAL_HCD_CLEAR_HC_INT(ch_num, USB_OTG_HCINT_CHH);
 80034f4:	f8c7 9008 	str.w	r9, [r7, #8]
    HAL_HCD_HC_NotifyURBChange_Callback(hhcd, (uint8_t)ch_num, hhcd->hc[ch_num].urb_state);
 80034f8:	f893 205c 	ldrb.w	r2, [r3, #92]	; 0x5c
 80034fc:	e66a      	b.n	80031d4 <HAL_HCD_IRQHandler+0x344>
    __HAL_HCD_CLEAR_HC_INT(ch_num, USB_OTG_HCINT_STALL);
 80034fe:	2308      	movs	r3, #8
 8003500:	60bb      	str	r3, [r7, #8]
    __HAL_HCD_UNMASK_HALT_HC_INT(ch_num);
 8003502:	68fb      	ldr	r3, [r7, #12]
 8003504:	f043 0302 	orr.w	r3, r3, #2
    (void)USB_HC_Halt(hhcd->Instance, (uint8_t)ch_num);
 8003508:	4651      	mov	r1, sl
    __HAL_HCD_UNMASK_HALT_HC_INT(ch_num);
 800350a:	60fb      	str	r3, [r7, #12]
    hhcd->hc[ch_num].state = HC_STALL;
 800350c:	eb0a 0a8a 	add.w	sl, sl, sl, lsl #2
    (void)USB_HC_Halt(hhcd->Instance, (uint8_t)ch_num);
 8003510:	f001 ffea 	bl	80054e8 <USB_HC_Halt>
    hhcd->hc[ch_num].state = HC_STALL;
 8003514:	eb04 03ca 	add.w	r3, r4, sl, lsl #3
 8003518:	2205      	movs	r2, #5
 800351a:	f883 205d 	strb.w	r2, [r3, #93]	; 0x5d
 800351e:	6820      	ldr	r0, [r4, #0]
 8003520:	68a1      	ldr	r1, [r4, #8]
 8003522:	e588      	b.n	8003036 <HAL_HCD_IRQHandler+0x1a6>
        hhcd->hc[ch_num].urb_state = URB_NOTREADY;
 8003524:	f881 905c 	strb.w	r9, [r1, #92]	; 0x5c
 8003528:	e78f      	b.n	800344a <HAL_HCD_IRQHandler+0x5ba>
      __HAL_HCD_UNMASK_HALT_HC_INT(ch_num);
 800352a:	68fa      	ldr	r2, [r7, #12]
      hhcd->hc[ch_num].ErrCnt = 0U;
 800352c:	2128      	movs	r1, #40	; 0x28
 800352e:	fb01 410a 	mla	r1, r1, sl, r4
      __HAL_HCD_UNMASK_HALT_HC_INT(ch_num);
 8003532:	f042 0202 	orr.w	r2, r2, #2
      hhcd->hc[ch_num].ErrCnt = 0U;
 8003536:	658b      	str	r3, [r1, #88]	; 0x58
      (void)USB_HC_Halt(hhcd->Instance, (uint8_t)ch_num);
 8003538:	4651      	mov	r1, sl
      __HAL_HCD_UNMASK_HALT_HC_INT(ch_num);
 800353a:	60fa      	str	r2, [r7, #12]
      (void)USB_HC_Halt(hhcd->Instance, (uint8_t)ch_num);
 800353c:	f001 ffd4 	bl	80054e8 <USB_HC_Halt>
 8003540:	6820      	ldr	r0, [r4, #0]
 8003542:	e6ec      	b.n	800331e <HAL_HCD_IRQHandler+0x48e>
      tmpreg = USBx_HC(ch_num)->HCCHAR;
 8003544:	f852 300b 	ldr.w	r3, [r2, fp]
      hhcd->hc[ch_num].urb_state  = URB_NOTREADY;
 8003548:	2128      	movs	r1, #40	; 0x28
 800354a:	fb01 410a 	mla	r1, r1, sl, r4
      tmpreg &= ~USB_OTG_HCCHAR_CHDIS;
 800354e:	f023 4380 	bic.w	r3, r3, #1073741824	; 0x40000000
      tmpreg |= USB_OTG_HCCHAR_CHENA;
 8003552:	f043 4300 	orr.w	r3, r3, #2147483648	; 0x80000000
      hhcd->hc[ch_num].urb_state  = URB_NOTREADY;
 8003556:	f881 905c 	strb.w	r9, [r1, #92]	; 0x5c
      USBx_HC(ch_num)->HCCHAR = tmpreg;
 800355a:	f842 300b 	str.w	r3, [r2, fp]
 800355e:	2102      	movs	r1, #2
 8003560:	e635      	b.n	80031ce <HAL_HCD_IRQHandler+0x33e>
    __HAL_HCD_UNMASK_HALT_HC_INT(ch_num);
 8003562:	68fb      	ldr	r3, [r7, #12]
 8003564:	f043 0302 	orr.w	r3, r3, #2
    (void)USB_HC_Halt(hhcd->Instance, (uint8_t)ch_num);
 8003568:	4651      	mov	r1, sl
    __HAL_HCD_UNMASK_HALT_HC_INT(ch_num);
 800356a:	60fb      	str	r3, [r7, #12]
    (void)USB_HC_Halt(hhcd->Instance, (uint8_t)ch_num);
 800356c:	f001 ffbc 	bl	80054e8 <USB_HC_Halt>
    hhcd->hc[ch_num].state = HC_XACTERR;
 8003570:	2328      	movs	r3, #40	; 0x28
 8003572:	fb03 4a0a 	mla	sl, r3, sl, r4
 8003576:	2206      	movs	r2, #6
    __HAL_HCD_CLEAR_HC_INT(ch_num, USB_OTG_HCINT_TXERR);
 8003578:	2380      	movs	r3, #128	; 0x80
    hhcd->hc[ch_num].state = HC_XACTERR;
 800357a:	f88a 205d 	strb.w	r2, [sl, #93]	; 0x5d
 800357e:	6820      	ldr	r0, [r4, #0]
 8003580:	68a1      	ldr	r1, [r4, #8]
    __HAL_HCD_CLEAR_HC_INT(ch_num, USB_OTG_HCINT_TXERR);
 8003582:	60bb      	str	r3, [r7, #8]
 8003584:	e557      	b.n	8003036 <HAL_HCD_IRQHandler+0x1a6>
    __HAL_HCD_UNMASK_HALT_HC_INT(ch_num);
 8003586:	68fb      	ldr	r3, [r7, #12]
 8003588:	f043 0302 	orr.w	r3, r3, #2
    (void)USB_HC_Halt(hhcd->Instance, (uint8_t)ch_num);
 800358c:	4651      	mov	r1, sl
    __HAL_HCD_UNMASK_HALT_HC_INT(ch_num);
 800358e:	60fb      	str	r3, [r7, #12]
    (void)USB_HC_Halt(hhcd->Instance, (uint8_t)ch_num);
 8003590:	f001 ffaa 	bl	80054e8 <USB_HC_Halt>
    hhcd->hc[ch_num].state = HC_DATATGLERR;
 8003594:	2328      	movs	r3, #40	; 0x28
 8003596:	fb03 4a0a 	mla	sl, r3, sl, r4
    __HAL_HCD_CLEAR_HC_INT(ch_num, USB_OTG_HCINT_NAK);
 800359a:	2110      	movs	r1, #16
    __HAL_HCD_CLEAR_HC_INT(ch_num, USB_OTG_HCINT_DTERR);
 800359c:	f44f 6280 	mov.w	r2, #1024	; 0x400
    hhcd->hc[ch_num].state = HC_DATATGLERR;
 80035a0:	2308      	movs	r3, #8
    __HAL_HCD_CLEAR_HC_INT(ch_num, USB_OTG_HCINT_NAK);
 80035a2:	60b9      	str	r1, [r7, #8]
 80035a4:	6820      	ldr	r0, [r4, #0]
    __HAL_HCD_CLEAR_HC_INT(ch_num, USB_OTG_HCINT_DTERR);
 80035a6:	60ba      	str	r2, [r7, #8]
 80035a8:	68a1      	ldr	r1, [r4, #8]
    hhcd->hc[ch_num].state = HC_DATATGLERR;
 80035aa:	f88a 305d 	strb.w	r3, [sl, #93]	; 0x5d
 80035ae:	e542      	b.n	8003036 <HAL_HCD_IRQHandler+0x1a6>
      hhcd->hc[ch_num].urb_state  = URB_NOTREADY;
 80035b0:	f881 905c 	strb.w	r9, [r1, #92]	; 0x5c
 80035b4:	e79b      	b.n	80034ee <HAL_HCD_IRQHandler+0x65e>
      if ((hhcd->hc[ch_num].ep_type == EP_TYPE_BULK) ||
 80035b6:	f891 203f 	ldrb.w	r2, [r1, #63]	; 0x3f
      hhcd->hc[ch_num].urb_state  = URB_DONE;
 80035ba:	f881 305c 	strb.w	r3, [r1, #92]	; 0x5c
      if ((hhcd->hc[ch_num].ep_type == EP_TYPE_BULK) ||
 80035be:	1e93      	subs	r3, r2, #2
 80035c0:	2b01      	cmp	r3, #1
 80035c2:	d894      	bhi.n	80034ee <HAL_HCD_IRQHandler+0x65e>
        hhcd->hc[ch_num].toggle_out ^= 1U;
 80035c4:	f891 3051 	ldrb.w	r3, [r1, #81]	; 0x51
 80035c8:	f083 0301 	eor.w	r3, r3, #1
 80035cc:	f881 3051 	strb.w	r3, [r1, #81]	; 0x51
 80035d0:	e78d      	b.n	80034ee <HAL_HCD_IRQHandler+0x65e>
      hhcd->hc[ch_num].ErrCnt++;
 80035d2:	2328      	movs	r3, #40	; 0x28
 80035d4:	fb03 430a 	mla	r3, r3, sl, r4
 80035d8:	6d99      	ldr	r1, [r3, #88]	; 0x58
 80035da:	3101      	adds	r1, #1
      if (hhcd->hc[ch_num].ErrCnt > 3U)
 80035dc:	2903      	cmp	r1, #3
      hhcd->hc[ch_num].ErrCnt++;
 80035de:	6599      	str	r1, [r3, #88]	; 0x58
      if (hhcd->hc[ch_num].ErrCnt > 3U)
 80035e0:	d910      	bls.n	8003604 <HAL_HCD_IRQHandler+0x774>
        hhcd->hc[ch_num].ErrCnt = 0U;
 80035e2:	2000      	movs	r0, #0
        hhcd->hc[ch_num].urb_state = URB_ERROR;
 80035e4:	2104      	movs	r1, #4
        hhcd->hc[ch_num].ErrCnt = 0U;
 80035e6:	6598      	str	r0, [r3, #88]	; 0x58
        hhcd->hc[ch_num].urb_state = URB_ERROR;
 80035e8:	f883 105c 	strb.w	r1, [r3, #92]	; 0x5c
      tmpreg = USBx_HC(ch_num)->HCCHAR;
 80035ec:	f852 300b 	ldr.w	r3, [r2, fp]
      tmpreg &= ~USB_OTG_HCCHAR_CHDIS;
 80035f0:	f023 4380 	bic.w	r3, r3, #1073741824	; 0x40000000
      tmpreg |= USB_OTG_HCCHAR_CHENA;
 80035f4:	f043 4300 	orr.w	r3, r3, #2147483648	; 0x80000000
      USBx_HC(ch_num)->HCCHAR = tmpreg;
 80035f8:	f842 300b 	str.w	r3, [r2, fp]
 80035fc:	e777      	b.n	80034ee <HAL_HCD_IRQHandler+0x65e>
      hhcd->hc[ch_num].urb_state  = URB_STALL;
 80035fe:	f881 305c 	strb.w	r3, [r1, #92]	; 0x5c
 8003602:	e774      	b.n	80034ee <HAL_HCD_IRQHandler+0x65e>
        hhcd->hc[ch_num].urb_state = URB_NOTREADY;
 8003604:	f883 905c 	strb.w	r9, [r3, #92]	; 0x5c
 8003608:	e7f0      	b.n	80035ec <HAL_HCD_IRQHandler+0x75c>
 800360a:	bf00      	nop

0800360c <HAL_HCD_Start>:
{
 800360c:	b538      	push	{r3, r4, r5, lr}
  __HAL_LOCK(hhcd);
 800360e:	f890 32b8 	ldrb.w	r3, [r0, #696]	; 0x2b8
 8003612:	2b01      	cmp	r3, #1
 8003614:	d00e      	beq.n	8003634 <HAL_HCD_Start+0x28>
 8003616:	4604      	mov	r4, r0
 8003618:	2501      	movs	r5, #1
 800361a:	f880 52b8 	strb.w	r5, [r0, #696]	; 0x2b8
  __HAL_HCD_ENABLE(hhcd);
 800361e:	6800      	ldr	r0, [r0, #0]
 8003620:	f001 fca6 	bl	8004f70 <USB_EnableGlobalInt>
  (void)USB_DriveVbus(hhcd->Instance, 1U);
 8003624:	4629      	mov	r1, r5
 8003626:	6820      	ldr	r0, [r4, #0]
 8003628:	f001 fd22 	bl	8005070 <USB_DriveVbus>
  __HAL_UNLOCK(hhcd);
 800362c:	2000      	movs	r0, #0
 800362e:	f884 02b8 	strb.w	r0, [r4, #696]	; 0x2b8
}
 8003632:	bd38      	pop	{r3, r4, r5, pc}
  __HAL_LOCK(hhcd);
 8003634:	2002      	movs	r0, #2
}
 8003636:	bd38      	pop	{r3, r4, r5, pc}

08003638 <HAL_HCD_Stop>:
  __HAL_LOCK(hhcd);
 8003638:	f890 32b8 	ldrb.w	r3, [r0, #696]	; 0x2b8
 800363c:	2b01      	cmp	r3, #1
 800363e:	d00b      	beq.n	8003658 <HAL_HCD_Stop+0x20>
{
 8003640:	b510      	push	{r4, lr}
  __HAL_LOCK(hhcd);
 8003642:	2301      	movs	r3, #1
 8003644:	4604      	mov	r4, r0
 8003646:	f880 32b8 	strb.w	r3, [r0, #696]	; 0x2b8
  (void)USB_StopHost(hhcd->Instance);
 800364a:	6800      	ldr	r0, [r0, #0]
 800364c:	f001 ffaa 	bl	80055a4 <USB_StopHost>
  __HAL_UNLOCK(hhcd);
 8003650:	2000      	movs	r0, #0
 8003652:	f884 02b8 	strb.w	r0, [r4, #696]	; 0x2b8
}
 8003656:	bd10      	pop	{r4, pc}
  __HAL_LOCK(hhcd);
 8003658:	2002      	movs	r0, #2
}
 800365a:	4770      	bx	lr

0800365c <HAL_HCD_ResetPort>:
  return (USB_ResetPort(hhcd->Instance));
 800365c:	6800      	ldr	r0, [r0, #0]
 800365e:	f001 bce7 	b.w	8005030 <USB_ResetPort>
 8003662:	bf00      	nop

08003664 <HAL_HCD_HC_GetURBState>:
  return hhcd->hc[chnum].urb_state;
 8003664:	eb01 0181 	add.w	r1, r1, r1, lsl #2
 8003668:	eb00 01c1 	add.w	r1, r0, r1, lsl #3
}
 800366c:	f891 005c 	ldrb.w	r0, [r1, #92]	; 0x5c
 8003670:	4770      	bx	lr
 8003672:	bf00      	nop

08003674 <HAL_HCD_HC_GetXferCount>:
  return hhcd->hc[chnum].xfer_count;
 8003674:	eb01 0181 	add.w	r1, r1, r1, lsl #2
 8003678:	eb00 01c1 	add.w	r1, r0, r1, lsl #3
}
 800367c:	6cc8      	ldr	r0, [r1, #76]	; 0x4c
 800367e:	4770      	bx	lr

08003680 <HAL_HCD_GetCurrentFrame>:
  return (USB_GetCurrentFrame(hhcd->Instance));
 8003680:	6800      	ldr	r0, [r0, #0]
 8003682:	f001 bdab 	b.w	80051dc <USB_GetCurrentFrame>
 8003686:	bf00      	nop

08003688 <HAL_HCD_GetCurrentSpeed>:
  return (USB_GetHostSpeed(hhcd->Instance));
 8003688:	6800      	ldr	r0, [r0, #0]
 800368a:	f001 bd9b 	b.w	80051c4 <USB_GetHostSpeed>
 800368e:	bf00      	nop

08003690 <HAL_I2C_Init>:
{
  uint32_t freqrange;
  uint32_t pclk1;

  /* Check the I2C handle allocation */
  if (hi2c == NULL)
 8003690:	2800      	cmp	r0, #0
 8003692:	f000 809f 	beq.w	80037d4 <HAL_I2C_Init+0x144>
{
 8003696:	b5f8      	push	{r3, r4, r5, r6, r7, lr}
  assert_param(IS_I2C_DUAL_ADDRESS(hi2c->Init.DualAddressMode));
  assert_param(IS_I2C_OWN_ADDRESS2(hi2c->Init.OwnAddress2));
  assert_param(IS_I2C_GENERAL_CALL(hi2c->Init.GeneralCallMode));
  assert_param(IS_I2C_NO_STRETCH(hi2c->Init.NoStretchMode));

  if (hi2c->State == HAL_I2C_STATE_RESET)
 8003698:	f890 303d 	ldrb.w	r3, [r0, #61]	; 0x3d
 800369c:	4604      	mov	r4, r0
 800369e:	f003 02ff 	and.w	r2, r3, #255	; 0xff
 80036a2:	2b00      	cmp	r3, #0
 80036a4:	f000 808f 	beq.w	80037c6 <HAL_I2C_Init+0x136>
  }

  hi2c->State = HAL_I2C_STATE_BUSY;

  /* Disable the selected I2C peripheral */
  __HAL_I2C_DISABLE(hi2c);
 80036a8:	6823      	ldr	r3, [r4, #0]
  hi2c->State = HAL_I2C_STATE_BUSY;
 80036aa:	2224      	movs	r2, #36	; 0x24
 80036ac:	f884 203d 	strb.w	r2, [r4, #61]	; 0x3d
  __HAL_I2C_DISABLE(hi2c);
 80036b0:	681a      	ldr	r2, [r3, #0]
 80036b2:	f022 0201 	bic.w	r2, r2, #1
 80036b6:	601a      	str	r2, [r3, #0]

  /*Reset I2C*/
  hi2c->Instance->CR1 |= I2C_CR1_SWRST;
 80036b8:	681a      	ldr	r2, [r3, #0]
 80036ba:	f442 4200 	orr.w	r2, r2, #32768	; 0x8000
 80036be:	601a      	str	r2, [r3, #0]
  hi2c->Instance->CR1 &= ~I2C_CR1_SWRST;
 80036c0:	681a      	ldr	r2, [r3, #0]
 80036c2:	f422 4200 	bic.w	r2, r2, #32768	; 0x8000
 80036c6:	601a      	str	r2, [r3, #0]

  /* Get PCLK1 frequency */
  pclk1 = HAL_RCC_GetPCLK1Freq();
 80036c8:	f000 fdb6 	bl	8004238 <HAL_RCC_GetPCLK1Freq>

  /* Check the minimum allowed PCLK1 frequency */
  if (I2C_MIN_PCLK_FREQ(pclk1, hi2c->Init.ClockSpeed) == 1U)
 80036cc:	6861      	ldr	r1, [r4, #4]
 80036ce:	4b4b      	ldr	r3, [pc, #300]	; (80037fc <HAL_I2C_Init+0x16c>)
 80036d0:	4299      	cmp	r1, r3
 80036d2:	d84b      	bhi.n	800376c <HAL_I2C_Init+0xdc>
 80036d4:	4b4a      	ldr	r3, [pc, #296]	; (8003800 <HAL_I2C_Init+0x170>)
 80036d6:	4298      	cmp	r0, r3
 80036d8:	d97a      	bls.n	80037d0 <HAL_I2C_Init+0x140>
  /* Calculate frequency range */
  freqrange = I2C_FREQRANGE(pclk1);

  /*---------------------------- I2Cx CR2 Configuration ----------------------*/
  /* Configure I2Cx: Frequency range */
  MODIFY_REG(hi2c->Instance->CR2, I2C_CR2_FREQ, freqrange);
 80036da:	6822      	ldr	r2, [r4, #0]
  freqrange = I2C_FREQRANGE(pclk1);
 80036dc:	4b49      	ldr	r3, [pc, #292]	; (8003804 <HAL_I2C_Init+0x174>)
  MODIFY_REG(hi2c->Instance->CR2, I2C_CR2_FREQ, freqrange);
 80036de:	6855      	ldr	r5, [r2, #4]
  freqrange = I2C_FREQRANGE(pclk1);
 80036e0:	fba3 6300 	umull	r6, r3, r3, r0
 80036e4:	0c9b      	lsrs	r3, r3, #18
  MODIFY_REG(hi2c->Instance->CR2, I2C_CR2_FREQ, freqrange);
 80036e6:	f025 053f 	bic.w	r5, r5, #63	; 0x3f
 80036ea:	431d      	orrs	r5, r3
 80036ec:	6055      	str	r5, [r2, #4]

  /*---------------------------- I2Cx TRISE Configuration --------------------*/
  /* Configure I2Cx: Rise Time */
  MODIFY_REG(hi2c->Instance->TRISE, I2C_TRISE_TRISE, I2C_RISE_TIME(freqrange, hi2c->Init.ClockSpeed));
 80036ee:	6a15      	ldr	r5, [r2, #32]
 80036f0:	3301      	adds	r3, #1
 80036f2:	f025 053f 	bic.w	r5, r5, #63	; 0x3f
 80036f6:	432b      	orrs	r3, r5
 80036f8:	6213      	str	r3, [r2, #32]

  /*---------------------------- I2Cx CCR Configuration ----------------------*/
  /* Configure I2Cx: Speed */
  MODIFY_REG(hi2c->Instance->CCR, (I2C_CCR_FS | I2C_CCR_DUTY | I2C_CCR_CCR), I2C_SPEED(pclk1, hi2c->Init.ClockSpeed, hi2c->Init.DutyCycle));
 80036fa:	69d5      	ldr	r5, [r2, #28]
 80036fc:	0049      	lsls	r1, r1, #1
 80036fe:	1e43      	subs	r3, r0, #1
 8003700:	fbb3 f3f1 	udiv	r3, r3, r1
 8003704:	3301      	adds	r3, #1
 8003706:	f3c3 030b 	ubfx	r3, r3, #0, #12
 800370a:	f425 454f 	bic.w	r5, r5, #52992	; 0xcf00
 800370e:	2b04      	cmp	r3, #4
 8003710:	bf38      	it	cc
 8003712:	2304      	movcc	r3, #4
 8003714:	f025 05ff 	bic.w	r5, r5, #255	; 0xff
 8003718:	432b      	orrs	r3, r5
 800371a:	61d3      	str	r3, [r2, #28]

  /*---------------------------- I2Cx CR1 Configuration ----------------------*/
  /* Configure I2Cx: Generalcall and NoStretch mode */
  MODIFY_REG(hi2c->Instance->CR1, (I2C_CR1_ENGC | I2C_CR1_NOSTRETCH), (hi2c->Init.GeneralCallMode | hi2c->Init.NoStretchMode));
 800371c:	e9d4 3507 	ldrd	r3, r5, [r4, #28]
 8003720:	6810      	ldr	r0, [r2, #0]

  /*---------------------------- I2Cx OAR1 Configuration ---------------------*/
  /* Configure I2Cx: Own Address1 and addressing mode */
  MODIFY_REG(hi2c->Instance->OAR1, (I2C_OAR1_ADDMODE | I2C_OAR1_ADD8_9 | I2C_OAR1_ADD1_7 | I2C_OAR1_ADD0), (hi2c->Init.AddressingMode | hi2c->Init.OwnAddress1));
 8003722:	6921      	ldr	r1, [r4, #16]
  MODIFY_REG(hi2c->Instance->CR1, (I2C_CR1_ENGC | I2C_CR1_NOSTRETCH), (hi2c->Init.GeneralCallMode | hi2c->Init.NoStretchMode));
 8003724:	f020 00c0 	bic.w	r0, r0, #192	; 0xc0
 8003728:	432b      	orrs	r3, r5
 800372a:	4303      	orrs	r3, r0
 800372c:	6013      	str	r3, [r2, #0]
  MODIFY_REG(hi2c->Instance->OAR1, (I2C_OAR1_ADDMODE | I2C_OAR1_ADD8_9 | I2C_OAR1_ADD1_7 | I2C_OAR1_ADD0), (hi2c->Init.AddressingMode | hi2c->Init.OwnAddress1));
 800372e:	6890      	ldr	r0, [r2, #8]
 8003730:	68e5      	ldr	r5, [r4, #12]

  /*---------------------------- I2Cx OAR2 Configuration ---------------------*/
  /* Configure I2Cx: Dual mode and Own Address2 */
  MODIFY_REG(hi2c->Instance->OAR2, (I2C_OAR2_ENDUAL | I2C_OAR2_ADD2), (hi2c->Init.DualAddressMode | hi2c->Init.OwnAddress2));
 8003732:	6963      	ldr	r3, [r4, #20]
  MODIFY_REG(hi2c->Instance->OAR1, (I2C_OAR1_ADDMODE | I2C_OAR1_ADD8_9 | I2C_OAR1_ADD1_7 | I2C_OAR1_ADD0), (hi2c->Init.AddressingMode | hi2c->Init.OwnAddress1));
 8003734:	f420 4003 	bic.w	r0, r0, #33536	; 0x8300
 8003738:	f020 00ff 	bic.w	r0, r0, #255	; 0xff
 800373c:	4329      	orrs	r1, r5
 800373e:	4301      	orrs	r1, r0
 8003740:	6091      	str	r1, [r2, #8]
  MODIFY_REG(hi2c->Instance->OAR2, (I2C_OAR2_ENDUAL | I2C_OAR2_ADD2), (hi2c->Init.DualAddressMode | hi2c->Init.OwnAddress2));
 8003742:	68d1      	ldr	r1, [r2, #12]
 8003744:	69a0      	ldr	r0, [r4, #24]
 8003746:	f021 01ff 	bic.w	r1, r1, #255	; 0xff
 800374a:	4303      	orrs	r3, r0
 800374c:	430b      	orrs	r3, r1
 800374e:	60d3      	str	r3, [r2, #12]

  /* Enable the selected I2C peripheral */
  __HAL_I2C_ENABLE(hi2c);
 8003750:	6811      	ldr	r1, [r2, #0]

  hi2c->ErrorCode = HAL_I2C_ERROR_NONE;
 8003752:	2300      	movs	r3, #0
  __HAL_I2C_ENABLE(hi2c);
 8003754:	f041 0101 	orr.w	r1, r1, #1
  hi2c->State = HAL_I2C_STATE_READY;
 8003758:	2520      	movs	r5, #32
  __HAL_I2C_ENABLE(hi2c);
 800375a:	6011      	str	r1, [r2, #0]
  hi2c->PreviousState = I2C_STATE_NONE;
  hi2c->Mode = HAL_I2C_MODE_NONE;

  return HAL_OK;
 800375c:	4618      	mov	r0, r3
  hi2c->ErrorCode = HAL_I2C_ERROR_NONE;
 800375e:	6423      	str	r3, [r4, #64]	; 0x40
  hi2c->State = HAL_I2C_STATE_READY;
 8003760:	f884 503d 	strb.w	r5, [r4, #61]	; 0x3d
  hi2c->PreviousState = I2C_STATE_NONE;
 8003764:	6323      	str	r3, [r4, #48]	; 0x30
  hi2c->Mode = HAL_I2C_MODE_NONE;
 8003766:	f884 303e 	strb.w	r3, [r4, #62]	; 0x3e
}
 800376a:	bdf8      	pop	{r3, r4, r5, r6, r7, pc}
  if (I2C_MIN_PCLK_FREQ(pclk1, hi2c->Init.ClockSpeed) == 1U)
 800376c:	4b26      	ldr	r3, [pc, #152]	; (8003808 <HAL_I2C_Init+0x178>)
 800376e:	4298      	cmp	r0, r3
 8003770:	d92e      	bls.n	80037d0 <HAL_I2C_Init+0x140>
  MODIFY_REG(hi2c->Instance->CR2, I2C_CR2_FREQ, freqrange);
 8003772:	6822      	ldr	r2, [r4, #0]
  freqrange = I2C_FREQRANGE(pclk1);
 8003774:	4b23      	ldr	r3, [pc, #140]	; (8003804 <HAL_I2C_Init+0x174>)
  MODIFY_REG(hi2c->Instance->CR2, I2C_CR2_FREQ, freqrange);
 8003776:	6856      	ldr	r6, [r2, #4]
  MODIFY_REG(hi2c->Instance->TRISE, I2C_TRISE_TRISE, I2C_RISE_TIME(freqrange, hi2c->Init.ClockSpeed));
 8003778:	4f24      	ldr	r7, [pc, #144]	; (800380c <HAL_I2C_Init+0x17c>)
  freqrange = I2C_FREQRANGE(pclk1);
 800377a:	fba3 5300 	umull	r5, r3, r3, r0
 800377e:	0c9d      	lsrs	r5, r3, #18
  MODIFY_REG(hi2c->Instance->CR2, I2C_CR2_FREQ, freqrange);
 8003780:	f026 063f 	bic.w	r6, r6, #63	; 0x3f
 8003784:	432e      	orrs	r6, r5
  MODIFY_REG(hi2c->Instance->TRISE, I2C_TRISE_TRISE, I2C_RISE_TIME(freqrange, hi2c->Init.ClockSpeed));
 8003786:	f44f 7396 	mov.w	r3, #300	; 0x12c
  MODIFY_REG(hi2c->Instance->CR2, I2C_CR2_FREQ, freqrange);
 800378a:	6056      	str	r6, [r2, #4]
  MODIFY_REG(hi2c->Instance->TRISE, I2C_TRISE_TRISE, I2C_RISE_TIME(freqrange, hi2c->Init.ClockSpeed));
 800378c:	fb03 f305 	mul.w	r3, r3, r5
 8003790:	fba7 5303 	umull	r5, r3, r7, r3
 8003794:	6a15      	ldr	r5, [r2, #32]
  MODIFY_REG(hi2c->Instance->CCR, (I2C_CCR_FS | I2C_CCR_DUTY | I2C_CCR_CCR), I2C_SPEED(pclk1, hi2c->Init.ClockSpeed, hi2c->Init.DutyCycle));
 8003796:	68a6      	ldr	r6, [r4, #8]
  MODIFY_REG(hi2c->Instance->TRISE, I2C_TRISE_TRISE, I2C_RISE_TIME(freqrange, hi2c->Init.ClockSpeed));
 8003798:	099b      	lsrs	r3, r3, #6
 800379a:	f025 053f 	bic.w	r5, r5, #63	; 0x3f
 800379e:	3301      	adds	r3, #1
 80037a0:	432b      	orrs	r3, r5
 80037a2:	6213      	str	r3, [r2, #32]
  MODIFY_REG(hi2c->Instance->CCR, (I2C_CCR_FS | I2C_CCR_DUTY | I2C_CCR_CCR), I2C_SPEED(pclk1, hi2c->Init.ClockSpeed, hi2c->Init.DutyCycle));
 80037a4:	69d5      	ldr	r5, [r2, #28]
 80037a6:	f425 454f 	bic.w	r5, r5, #52992	; 0xcf00
 80037aa:	3801      	subs	r0, #1
 80037ac:	f025 05ff 	bic.w	r5, r5, #255	; 0xff
 80037b0:	b996      	cbnz	r6, 80037d8 <HAL_I2C_Init+0x148>
 80037b2:	eb01 0141 	add.w	r1, r1, r1, lsl #1
 80037b6:	fbb0 f0f1 	udiv	r0, r0, r1
 80037ba:	3001      	adds	r0, #1
 80037bc:	f3c0 000b 	ubfx	r0, r0, #0, #12
 80037c0:	b9c0      	cbnz	r0, 80037f4 <HAL_I2C_Init+0x164>
 80037c2:	2301      	movs	r3, #1
 80037c4:	e7a8      	b.n	8003718 <HAL_I2C_Init+0x88>
    hi2c->Lock = HAL_UNLOCKED;
 80037c6:	f880 203c 	strb.w	r2, [r0, #60]	; 0x3c
    HAL_I2C_MspInit(hi2c);
 80037ca:	f7fe fa0f 	bl	8001bec <HAL_I2C_MspInit>
 80037ce:	e76b      	b.n	80036a8 <HAL_I2C_Init+0x18>
    return HAL_ERROR;
 80037d0:	2001      	movs	r0, #1
}
 80037d2:	bdf8      	pop	{r3, r4, r5, r6, r7, pc}
    return HAL_ERROR;
 80037d4:	2001      	movs	r0, #1
}
 80037d6:	4770      	bx	lr
  MODIFY_REG(hi2c->Instance->CCR, (I2C_CCR_FS | I2C_CCR_DUTY | I2C_CCR_CCR), I2C_SPEED(pclk1, hi2c->Init.ClockSpeed, hi2c->Init.DutyCycle));
 80037d8:	eb01 0181 	add.w	r1, r1, r1, lsl #2
 80037dc:	eb01 0181 	add.w	r1, r1, r1, lsl #2
 80037e0:	fbb0 f0f1 	udiv	r0, r0, r1
 80037e4:	3001      	adds	r0, #1
 80037e6:	f3c0 000b 	ubfx	r0, r0, #0, #12
 80037ea:	2800      	cmp	r0, #0
 80037ec:	d0e9      	beq.n	80037c2 <HAL_I2C_Init+0x132>
 80037ee:	f440 4340 	orr.w	r3, r0, #49152	; 0xc000
 80037f2:	e791      	b.n	8003718 <HAL_I2C_Init+0x88>
 80037f4:	f440 4300 	orr.w	r3, r0, #32768	; 0x8000
 80037f8:	e78e      	b.n	8003718 <HAL_I2C_Init+0x88>
 80037fa:	bf00      	nop
 80037fc:	000186a0 	.word	0x000186a0
 8003800:	001e847f 	.word	0x001e847f
 8003804:	431bde83 	.word	0x431bde83
 8003808:	003d08ff 	.word	0x003d08ff
 800380c:	10624dd3 	.word	0x10624dd3

08003810 <HAL_I2S_Init>:
#if defined (SPI_I2S_FULLDUPLEX_SUPPORT)
  uint16_t tmpreg;
#endif

  /* Check the I2S handle allocation */
  if (hi2s == NULL)
 8003810:	2800      	cmp	r0, #0
 8003812:	f000 8085 	beq.w	8003920 <HAL_I2S_Init+0x110>
{
 8003816:	b5f8      	push	{r3, r4, r5, r6, r7, lr}
  assert_param(IS_I2S_MCLK_OUTPUT(hi2s->Init.MCLKOutput));
  assert_param(IS_I2S_AUDIO_FREQ(hi2s->Init.AudioFreq));
  assert_param(IS_I2S_CPOL(hi2s->Init.CPOL));
  assert_param(IS_I2S_CLOCKSOURCE(hi2s->Init.ClockSource));

  if (hi2s->State == HAL_I2S_STATE_RESET)
 8003818:	f890 3041 	ldrb.w	r3, [r0, #65]	; 0x41
 800381c:	4604      	mov	r4, r0
 800381e:	f003 02ff 	and.w	r2, r3, #255	; 0xff
 8003822:	2b00      	cmp	r3, #0
 8003824:	d075      	beq.n	8003912 <HAL_I2S_Init+0x102>
    /* Init the low level hardware : GPIO, CLOCK, CORTEX...etc */
    HAL_I2S_MspInit(hi2s);
#endif /* USE_HAL_I2S_REGISTER_CALLBACKS */
  }

  hi2s->State = HAL_I2S_STATE_BUSY;
 8003826:	2202      	movs	r2, #2

  /*----------------------- SPIx I2SCFGR & I2SPR Configuration ----------------*/
  /* Clear I2SMOD, I2SE, I2SCFG, PCMSYNC, I2SSTD, CKPOL, DATLEN and CHLEN bits */
  CLEAR_BIT(hi2s->Instance->I2SCFGR, (SPI_I2SCFGR_CHLEN | SPI_I2SCFGR_DATLEN | SPI_I2SCFGR_CKPOL | \
 8003828:	6821      	ldr	r1, [r4, #0]
  hi2s->State = HAL_I2S_STATE_BUSY;
 800382a:	f884 2041 	strb.w	r2, [r4, #65]	; 0x41
  CLEAR_BIT(hi2s->Instance->I2SCFGR, (SPI_I2SCFGR_CHLEN | SPI_I2SCFGR_DATLEN | SPI_I2SCFGR_CKPOL | \
 800382e:	69c8      	ldr	r0, [r1, #28]
                                      SPI_I2SCFGR_I2SE | SPI_I2SCFGR_I2SMOD));
  hi2s->Instance->I2SPR = 0x0002U;

  /*----------------------- I2SPR: I2SDIV and ODD Calculation -----------------*/
  /* If the requested audio frequency is not the default, compute the prescaler */
  if (hi2s->Init.AudioFreq != I2S_AUDIOFREQ_DEFAULT)
 8003830:	6963      	ldr	r3, [r4, #20]
 8003832:	68e5      	ldr	r5, [r4, #12]
  CLEAR_BIT(hi2s->Instance->I2SCFGR, (SPI_I2SCFGR_CHLEN | SPI_I2SCFGR_DATLEN | SPI_I2SCFGR_CKPOL | \
 8003834:	f420 607b 	bic.w	r0, r0, #4016	; 0xfb0
 8003838:	f020 000f 	bic.w	r0, r0, #15
  if (hi2s->Init.AudioFreq != I2S_AUDIOFREQ_DEFAULT)
 800383c:	4293      	cmp	r3, r2
  CLEAR_BIT(hi2s->Instance->I2SCFGR, (SPI_I2SCFGR_CHLEN | SPI_I2SCFGR_DATLEN | SPI_I2SCFGR_CKPOL | \
 800383e:	61c8      	str	r0, [r1, #28]
  hi2s->Instance->I2SPR = 0x0002U;
 8003840:	620a      	str	r2, [r1, #32]
  if (hi2s->Init.AudioFreq != I2S_AUDIOFREQ_DEFAULT)
 8003842:	d027      	beq.n	8003894 <HAL_I2S_Init+0x84>
      /* Packet length is 32 bits */
      packetlength = 32U;
    }

    /* I2S standard */
    if (hi2s->Init.Standard <= I2S_STANDARD_LSB)
 8003844:	68a3      	ldr	r3, [r4, #8]
      packetlength = 32U;
 8003846:	2d00      	cmp	r5, #0
 8003848:	bf0c      	ite	eq
 800384a:	2510      	moveq	r5, #16
 800384c:	2520      	movne	r5, #32
    else
    {
      i2sclk = HAL_RCCEx_GetPeriphCLKFreq(RCC_PERIPHCLK_I2S_APB2);
    }
#else
    i2sclk = HAL_RCCEx_GetPeriphCLKFreq(RCC_PERIPHCLK_I2S);
 800384e:	2001      	movs	r0, #1
    if (hi2s->Init.Standard <= I2S_STANDARD_LSB)
 8003850:	2b20      	cmp	r3, #32
      packetlength = packetlength * 2U;
 8003852:	bf98      	it	ls
 8003854:	006d      	lslls	r5, r5, #1
    i2sclk = HAL_RCCEx_GetPeriphCLKFreq(RCC_PERIPHCLK_I2S);
 8003856:	f000 fdaf 	bl	80043b8 <HAL_RCCEx_GetPeriphCLKFreq>
#endif

    /* Compute the Real divider depending on the MCLK output state, with a floating point */
    if (hi2s->Init.MCLKOutput == I2S_MCLKOUTPUT_ENABLE)
 800385a:	6922      	ldr	r2, [r4, #16]
 800385c:	f5b2 7f00 	cmp.w	r2, #512	; 0x200
 8003860:	d060      	beq.n	8003924 <HAL_I2S_Init+0x114>
      }
    }
    else
    {
      /* MCLK output is disabled */
      tmp = (uint32_t)(((((i2sclk / packetlength) * 10U) / hi2s->Init.AudioFreq)) + 5U);
 8003862:	fbb0 f0f5 	udiv	r0, r0, r5
 8003866:	eb00 0080 	add.w	r0, r0, r0, lsl #2
 800386a:	0043      	lsls	r3, r0, #1
 800386c:	6960      	ldr	r0, [r4, #20]
 800386e:	fbb3 f3f0 	udiv	r3, r3, r0
 8003872:	3305      	adds	r3, #5
    }

    /* Remove the flatting point */
    tmp = tmp / 10U;
 8003874:	4935      	ldr	r1, [pc, #212]	; (800394c <HAL_I2S_Init+0x13c>)
 8003876:	fba1 1303 	umull	r1, r3, r1, r3
 800387a:	08db      	lsrs	r3, r3, #3

    /* Check the parity of the divider */
    i2sodd = (uint32_t)(tmp & (uint32_t)1U);

    /* Compute the i2sdiv prescaler */
    i2sdiv = (uint32_t)((tmp - i2sodd) / 2U);
 800387c:	0859      	lsrs	r1, r3, #1
    i2sdiv = 2U;
    i2sodd = 0U;
  }

  /* Test if the divider is 1 or 0 or greater than 0xFF */
  if ((i2sdiv < 2U) || (i2sdiv > 0xFFU))
 800387e:	1e88      	subs	r0, r1, #2
 8003880:	28fd      	cmp	r0, #253	; 0xfd
    i2sdiv = (uint32_t)((tmp - i2sodd) / 2U);
 8003882:	f003 0301 	and.w	r3, r3, #1
  if ((i2sdiv < 2U) || (i2sdiv > 0xFFU))
 8003886:	d95a      	bls.n	800393e <HAL_I2S_Init+0x12e>
  {
    /* Set the error code and execute error callback*/
    SET_BIT(hi2s->ErrorCode, HAL_I2S_ERROR_PRESCALER);
 8003888:	6c63      	ldr	r3, [r4, #68]	; 0x44
 800388a:	f043 0310 	orr.w	r3, r3, #16
 800388e:	6463      	str	r3, [r4, #68]	; 0x44
    return  HAL_ERROR;
 8003890:	2001      	movs	r0, #1

  hi2s->ErrorCode = HAL_I2S_ERROR_NONE;
  hi2s->State     = HAL_I2S_STATE_READY;

  return HAL_OK;
}
 8003892:	bdf8      	pop	{r3, r4, r5, r6, r7, pc}
 8003894:	6922      	ldr	r2, [r4, #16]
  MODIFY_REG(hi2s->Instance->I2SCFGR, (SPI_I2SCFGR_CHLEN | SPI_I2SCFGR_DATLEN | \
 8003896:	69a7      	ldr	r7, [r4, #24]
  if (hi2s->Init.FullDuplexMode == I2S_FULLDUPLEXMODE_ENABLE)
 8003898:	f8d4 e020 	ldr.w	lr, [r4, #32]
  MODIFY_REG(hi2s->Instance->I2SCFGR, (SPI_I2SCFGR_CHLEN | SPI_I2SCFGR_DATLEN | \
 800389c:	f8df c0c0 	ldr.w	ip, [pc, #192]	; 8003960 <HAL_I2S_Init+0x150>
 80038a0:	e9d4 6001 	ldrd	r6, r0, [r4, #4]
  hi2s->Instance->I2SPR = (uint32_t)((uint32_t)i2sdiv | (uint32_t)(i2sodd | (uint32_t)hi2s->Init.MCLKOutput));
 80038a4:	4313      	orrs	r3, r2
 80038a6:	620b      	str	r3, [r1, #32]
  MODIFY_REG(hi2s->Instance->I2SCFGR, (SPI_I2SCFGR_CHLEN | SPI_I2SCFGR_DATLEN | \
 80038a8:	ea46 0300 	orr.w	r3, r6, r0
 80038ac:	69ca      	ldr	r2, [r1, #28]
 80038ae:	f443 6300 	orr.w	r3, r3, #2048	; 0x800
 80038b2:	433b      	orrs	r3, r7
 80038b4:	432b      	orrs	r3, r5
 80038b6:	ea02 020c 	and.w	r2, r2, ip
 80038ba:	4313      	orrs	r3, r2
  if (hi2s->Init.FullDuplexMode == I2S_FULLDUPLEXMODE_ENABLE)
 80038bc:	f1be 0f01 	cmp.w	lr, #1
  MODIFY_REG(hi2s->Instance->I2SCFGR, (SPI_I2SCFGR_CHLEN | SPI_I2SCFGR_DATLEN | \
 80038c0:	61cb      	str	r3, [r1, #28]
  if (hi2s->Init.FullDuplexMode == I2S_FULLDUPLEXMODE_ENABLE)
 80038c2:	d120      	bne.n	8003906 <HAL_I2S_Init+0xf6>
    CLEAR_BIT(I2SxEXT(hi2s->Instance)->I2SCFGR, (SPI_I2SCFGR_CHLEN | SPI_I2SCFGR_DATLEN | SPI_I2SCFGR_CKPOL | \
 80038c4:	4a22      	ldr	r2, [pc, #136]	; (8003950 <HAL_I2S_Init+0x140>)
 80038c6:	4b23      	ldr	r3, [pc, #140]	; (8003954 <HAL_I2S_Init+0x144>)
 80038c8:	4291      	cmp	r1, r2
 80038ca:	bf0c      	ite	eq
 80038cc:	4619      	moveq	r1, r3
 80038ce:	f04f 2140 	movne.w	r1, #1073758208	; 0x40004000
    hi2s->IrqHandlerISR = HAL_I2SEx_FullDuplex_IRQHandler;
 80038d2:	4b21      	ldr	r3, [pc, #132]	; (8003958 <HAL_I2S_Init+0x148>)
    CLEAR_BIT(I2SxEXT(hi2s->Instance)->I2SCFGR, (SPI_I2SCFGR_CHLEN | SPI_I2SCFGR_DATLEN | SPI_I2SCFGR_CKPOL | \
 80038d4:	69ca      	ldr	r2, [r1, #28]
    hi2s->IrqHandlerISR = HAL_I2SEx_FullDuplex_IRQHandler;
 80038d6:	6363      	str	r3, [r4, #52]	; 0x34
    CLEAR_BIT(I2SxEXT(hi2s->Instance)->I2SCFGR, (SPI_I2SCFGR_CHLEN | SPI_I2SCFGR_DATLEN | SPI_I2SCFGR_CKPOL | \
 80038d8:	ea02 020c 	and.w	r2, r2, ip
    I2SxEXT(hi2s->Instance)->I2SPR = 2U;
 80038dc:	f04f 0c02 	mov.w	ip, #2
    CLEAR_BIT(I2SxEXT(hi2s->Instance)->I2SCFGR, (SPI_I2SCFGR_CHLEN | SPI_I2SCFGR_DATLEN | SPI_I2SCFGR_CKPOL | \
 80038e0:	61ca      	str	r2, [r1, #28]
 80038e2:	ea40 0307 	orr.w	r3, r0, r7
    I2SxEXT(hi2s->Instance)->I2SPR = 2U;
 80038e6:	f8c1 c020 	str.w	ip, [r1, #32]
    tmpreg = I2SxEXT(hi2s->Instance)->I2SCFGR;
 80038ea:	69ca      	ldr	r2, [r1, #28]
 80038ec:	f443 6300 	orr.w	r3, r3, #2048	; 0x800
 80038f0:	432b      	orrs	r3, r5
 80038f2:	4313      	orrs	r3, r2
    if ((hi2s->Init.Mode == I2S_MODE_MASTER_TX) || (hi2s->Init.Mode == I2S_MODE_SLAVE_TX))
 80038f4:	f436 7000 	bics.w	r0, r6, #512	; 0x200
 80038f8:	b29b      	uxth	r3, r3
 80038fa:	bf14      	ite	ne
 80038fc:	2200      	movne	r2, #0
 80038fe:	f44f 7280 	moveq.w	r2, #256	; 0x100
    WRITE_REG(I2SxEXT(hi2s->Instance)->I2SCFGR, tmpreg);
 8003902:	4313      	orrs	r3, r2
 8003904:	61cb      	str	r3, [r1, #28]
  hi2s->ErrorCode = HAL_I2S_ERROR_NONE;
 8003906:	2000      	movs	r0, #0
  hi2s->State     = HAL_I2S_STATE_READY;
 8003908:	2301      	movs	r3, #1
  hi2s->ErrorCode = HAL_I2S_ERROR_NONE;
 800390a:	6460      	str	r0, [r4, #68]	; 0x44
  hi2s->State     = HAL_I2S_STATE_READY;
 800390c:	f884 3041 	strb.w	r3, [r4, #65]	; 0x41
}
 8003910:	bdf8      	pop	{r3, r4, r5, r6, r7, pc}
    hi2s->IrqHandlerISR = I2S_IRQHandler;
 8003912:	4b12      	ldr	r3, [pc, #72]	; (800395c <HAL_I2S_Init+0x14c>)
    hi2s->Lock = HAL_UNLOCKED;
 8003914:	f880 2040 	strb.w	r2, [r0, #64]	; 0x40
    hi2s->IrqHandlerISR = I2S_IRQHandler;
 8003918:	6343      	str	r3, [r0, #52]	; 0x34
    HAL_I2S_MspInit(hi2s);
 800391a:	f7fe f99f 	bl	8001c5c <HAL_I2S_MspInit>
 800391e:	e782      	b.n	8003826 <HAL_I2S_Init+0x16>
    return HAL_ERROR;
 8003920:	2001      	movs	r0, #1
}
 8003922:	4770      	bx	lr
      if (hi2s->Init.DataFormat != I2S_DATAFORMAT_16B)
 8003924:	68e3      	ldr	r3, [r4, #12]
 8003926:	6961      	ldr	r1, [r4, #20]
 8003928:	b173      	cbz	r3, 8003948 <HAL_I2S_Init+0x138>
        tmp = (uint32_t)(((((i2sclk / (packetlength * 4U)) * 10U) / hi2s->Init.AudioFreq)) + 5U);
 800392a:	00ad      	lsls	r5, r5, #2
        tmp = (uint32_t)(((((i2sclk / (packetlength * 8U)) * 10U) / hi2s->Init.AudioFreq)) + 5U);
 800392c:	fbb0 f0f5 	udiv	r0, r0, r5
 8003930:	eb00 0080 	add.w	r0, r0, r0, lsl #2
 8003934:	0043      	lsls	r3, r0, #1
 8003936:	fbb3 f3f1 	udiv	r3, r3, r1
 800393a:	3305      	adds	r3, #5
 800393c:	e79a      	b.n	8003874 <HAL_I2S_Init+0x64>
 800393e:	ea41 2303 	orr.w	r3, r1, r3, lsl #8
 8003942:	68e5      	ldr	r5, [r4, #12]
 8003944:	6821      	ldr	r1, [r4, #0]
 8003946:	e7a6      	b.n	8003896 <HAL_I2S_Init+0x86>
 8003948:	00ed      	lsls	r5, r5, #3
 800394a:	e7ef      	b.n	800392c <HAL_I2S_Init+0x11c>
 800394c:	cccccccd 	.word	0xcccccccd
 8003950:	40003800 	.word	0x40003800
 8003954:	40003400 	.word	0x40003400
 8003958:	08003a7d 	.word	0x08003a7d
 800395c:	08003971 	.word	0x08003971
 8003960:	fffff040 	.word	0xfffff040

08003964 <HAL_I2S_TxCpltCallback>:
 8003964:	4770      	bx	lr
 8003966:	bf00      	nop

08003968 <HAL_I2S_RxCpltCallback>:
 8003968:	4770      	bx	lr
 800396a:	bf00      	nop

0800396c <HAL_I2S_ErrorCallback>:
 800396c:	4770      	bx	lr
 800396e:	bf00      	nop

08003970 <I2S_IRQHandler>:
  * @param  hi2s: pointer to a I2S_HandleTypeDef structure that contains
  *         the configuration information for I2S module
  * @retval None
  */
static void I2S_IRQHandler(I2S_HandleTypeDef *hi2s)
{
 8003970:	b510      	push	{r4, lr}
  __IO uint32_t i2ssr = hi2s->Instance->SR;
 8003972:	6803      	ldr	r3, [r0, #0]
{
 8003974:	b084      	sub	sp, #16
  __IO uint32_t i2ssr = hi2s->Instance->SR;
 8003976:	689a      	ldr	r2, [r3, #8]
 8003978:	9201      	str	r2, [sp, #4]

  if (hi2s->State == HAL_I2S_STATE_BUSY_RX)
 800397a:	f890 2041 	ldrb.w	r2, [r0, #65]	; 0x41
 800397e:	2a04      	cmp	r2, #4
{
 8003980:	4604      	mov	r4, r0
  if (hi2s->State == HAL_I2S_STATE_BUSY_RX)
 8003982:	d034      	beq.n	80039ee <I2S_IRQHandler+0x7e>
      HAL_I2S_ErrorCallback(hi2s);
#endif /* USE_HAL_I2S_REGISTER_CALLBACKS */
    }
  }

  if (hi2s->State == HAL_I2S_STATE_BUSY_TX)
 8003984:	f894 3041 	ldrb.w	r3, [r4, #65]	; 0x41
 8003988:	2b03      	cmp	r3, #3
 800398a:	d001      	beq.n	8003990 <I2S_IRQHandler+0x20>
#else
      HAL_I2S_ErrorCallback(hi2s);
#endif /* USE_HAL_I2S_REGISTER_CALLBACKS */
    }
  }
}
 800398c:	b004      	add	sp, #16
 800398e:	bd10      	pop	{r4, pc}
    if (((i2ssr & I2S_FLAG_TXE) == I2S_FLAG_TXE) && (__HAL_I2S_GET_IT_SOURCE(hi2s, I2S_IT_TXE) != RESET))
 8003990:	9b01      	ldr	r3, [sp, #4]
 8003992:	079b      	lsls	r3, r3, #30
 8003994:	d510      	bpl.n	80039b8 <I2S_IRQHandler+0x48>
 8003996:	6823      	ldr	r3, [r4, #0]
 8003998:	685a      	ldr	r2, [r3, #4]
 800399a:	0610      	lsls	r0, r2, #24
 800399c:	d50c      	bpl.n	80039b8 <I2S_IRQHandler+0x48>
  hi2s->Instance->DR = (*hi2s->pTxBuffPtr);
 800399e:	6a61      	ldr	r1, [r4, #36]	; 0x24
 80039a0:	f831 2b02 	ldrh.w	r2, [r1], #2
 80039a4:	60da      	str	r2, [r3, #12]
  hi2s->TxXferCount--;
 80039a6:	8d62      	ldrh	r2, [r4, #42]	; 0x2a
  hi2s->pTxBuffPtr++;
 80039a8:	6261      	str	r1, [r4, #36]	; 0x24
  hi2s->TxXferCount--;
 80039aa:	3a01      	subs	r2, #1
 80039ac:	b292      	uxth	r2, r2
 80039ae:	8562      	strh	r2, [r4, #42]	; 0x2a
  if (hi2s->TxXferCount == 0U)
 80039b0:	8d62      	ldrh	r2, [r4, #42]	; 0x2a
 80039b2:	b292      	uxth	r2, r2
 80039b4:	2a00      	cmp	r2, #0
 80039b6:	d049      	beq.n	8003a4c <I2S_IRQHandler+0xdc>
    if (((i2ssr & I2S_FLAG_UDR) == I2S_FLAG_UDR) && (__HAL_I2S_GET_IT_SOURCE(hi2s, I2S_IT_ERR) != RESET))
 80039b8:	9b01      	ldr	r3, [sp, #4]
 80039ba:	0719      	lsls	r1, r3, #28
 80039bc:	d5e6      	bpl.n	800398c <I2S_IRQHandler+0x1c>
 80039be:	6823      	ldr	r3, [r4, #0]
 80039c0:	685a      	ldr	r2, [r3, #4]
 80039c2:	0692      	lsls	r2, r2, #26
 80039c4:	d5e2      	bpl.n	800398c <I2S_IRQHandler+0x1c>
      __HAL_I2S_DISABLE_IT(hi2s, (I2S_IT_TXE | I2S_IT_ERR));
 80039c6:	685a      	ldr	r2, [r3, #4]
      __HAL_I2S_CLEAR_UDRFLAG(hi2s);
 80039c8:	2100      	movs	r1, #0
      __HAL_I2S_DISABLE_IT(hi2s, (I2S_IT_TXE | I2S_IT_ERR));
 80039ca:	f022 02a0 	bic.w	r2, r2, #160	; 0xa0
 80039ce:	605a      	str	r2, [r3, #4]
      __HAL_I2S_CLEAR_UDRFLAG(hi2s);
 80039d0:	9103      	str	r1, [sp, #12]
 80039d2:	689b      	ldr	r3, [r3, #8]
 80039d4:	9303      	str	r3, [sp, #12]
      hi2s->State = HAL_I2S_STATE_READY;
 80039d6:	2301      	movs	r3, #1
      __HAL_I2S_CLEAR_UDRFLAG(hi2s);
 80039d8:	9a03      	ldr	r2, [sp, #12]
      hi2s->State = HAL_I2S_STATE_READY;
 80039da:	f884 3041 	strb.w	r3, [r4, #65]	; 0x41
      SET_BIT(hi2s->ErrorCode, HAL_I2S_ERROR_UDR);
 80039de:	6c63      	ldr	r3, [r4, #68]	; 0x44
 80039e0:	f043 0304 	orr.w	r3, r3, #4
 80039e4:	6463      	str	r3, [r4, #68]	; 0x44
      HAL_I2S_ErrorCallback(hi2s);
 80039e6:	4620      	mov	r0, r4
 80039e8:	f7ff ffc0 	bl	800396c <HAL_I2S_ErrorCallback>
}
 80039ec:	e7ce      	b.n	800398c <I2S_IRQHandler+0x1c>
    if (((i2ssr & I2S_FLAG_RXNE) == I2S_FLAG_RXNE) && (__HAL_I2S_GET_IT_SOURCE(hi2s, I2S_IT_RXNE) != RESET))
 80039ee:	9a01      	ldr	r2, [sp, #4]
 80039f0:	07d1      	lsls	r1, r2, #31
 80039f2:	d50e      	bpl.n	8003a12 <I2S_IRQHandler+0xa2>
 80039f4:	685a      	ldr	r2, [r3, #4]
 80039f6:	0652      	lsls	r2, r2, #25
 80039f8:	d50b      	bpl.n	8003a12 <I2S_IRQHandler+0xa2>
  (*hi2s->pRxBuffPtr) = (uint16_t)hi2s->Instance->DR;
 80039fa:	6ac1      	ldr	r1, [r0, #44]	; 0x2c
 80039fc:	68da      	ldr	r2, [r3, #12]
 80039fe:	f821 2b02 	strh.w	r2, [r1], #2
  hi2s->RxXferCount--;
 8003a02:	8e42      	ldrh	r2, [r0, #50]	; 0x32
  hi2s->pRxBuffPtr++;
 8003a04:	62c1      	str	r1, [r0, #44]	; 0x2c
  hi2s->RxXferCount--;
 8003a06:	3a01      	subs	r2, #1
 8003a08:	b292      	uxth	r2, r2
 8003a0a:	8642      	strh	r2, [r0, #50]	; 0x32
  if (hi2s->RxXferCount == 0U)
 8003a0c:	8e42      	ldrh	r2, [r0, #50]	; 0x32
 8003a0e:	b292      	uxth	r2, r2
 8003a10:	b33a      	cbz	r2, 8003a62 <I2S_IRQHandler+0xf2>
    if (((i2ssr & I2S_FLAG_OVR) == I2S_FLAG_OVR) && (__HAL_I2S_GET_IT_SOURCE(hi2s, I2S_IT_ERR) != RESET))
 8003a12:	9b01      	ldr	r3, [sp, #4]
 8003a14:	0659      	lsls	r1, r3, #25
 8003a16:	d5b5      	bpl.n	8003984 <I2S_IRQHandler+0x14>
 8003a18:	6823      	ldr	r3, [r4, #0]
 8003a1a:	685a      	ldr	r2, [r3, #4]
 8003a1c:	0692      	lsls	r2, r2, #26
 8003a1e:	d5b1      	bpl.n	8003984 <I2S_IRQHandler+0x14>
      __HAL_I2S_DISABLE_IT(hi2s, (I2S_IT_RXNE | I2S_IT_ERR));
 8003a20:	685a      	ldr	r2, [r3, #4]
      __HAL_I2S_CLEAR_OVRFLAG(hi2s);
 8003a22:	2100      	movs	r1, #0
      __HAL_I2S_DISABLE_IT(hi2s, (I2S_IT_RXNE | I2S_IT_ERR));
 8003a24:	f022 0260 	bic.w	r2, r2, #96	; 0x60
 8003a28:	605a      	str	r2, [r3, #4]
      __HAL_I2S_CLEAR_OVRFLAG(hi2s);
 8003a2a:	9102      	str	r1, [sp, #8]
 8003a2c:	68da      	ldr	r2, [r3, #12]
 8003a2e:	9202      	str	r2, [sp, #8]
 8003a30:	689b      	ldr	r3, [r3, #8]
 8003a32:	9302      	str	r3, [sp, #8]
      hi2s->State = HAL_I2S_STATE_READY;
 8003a34:	2301      	movs	r3, #1
      __HAL_I2S_CLEAR_OVRFLAG(hi2s);
 8003a36:	9a02      	ldr	r2, [sp, #8]
      hi2s->State = HAL_I2S_STATE_READY;
 8003a38:	f884 3041 	strb.w	r3, [r4, #65]	; 0x41
      SET_BIT(hi2s->ErrorCode, HAL_I2S_ERROR_OVR);
 8003a3c:	6c63      	ldr	r3, [r4, #68]	; 0x44
 8003a3e:	f043 0302 	orr.w	r3, r3, #2
 8003a42:	6463      	str	r3, [r4, #68]	; 0x44
      HAL_I2S_ErrorCallback(hi2s);
 8003a44:	4620      	mov	r0, r4
 8003a46:	f7ff ff91 	bl	800396c <HAL_I2S_ErrorCallback>
 8003a4a:	e79b      	b.n	8003984 <I2S_IRQHandler+0x14>
    __HAL_I2S_DISABLE_IT(hi2s, (I2S_IT_TXE | I2S_IT_ERR));
 8003a4c:	685a      	ldr	r2, [r3, #4]
    hi2s->State = HAL_I2S_STATE_READY;
 8003a4e:	2101      	movs	r1, #1
    __HAL_I2S_DISABLE_IT(hi2s, (I2S_IT_TXE | I2S_IT_ERR));
 8003a50:	f022 02a0 	bic.w	r2, r2, #160	; 0xa0
 8003a54:	605a      	str	r2, [r3, #4]
    HAL_I2S_TxCpltCallback(hi2s);
 8003a56:	4620      	mov	r0, r4
    hi2s->State = HAL_I2S_STATE_READY;
 8003a58:	f884 1041 	strb.w	r1, [r4, #65]	; 0x41
    HAL_I2S_TxCpltCallback(hi2s);
 8003a5c:	f7ff ff82 	bl	8003964 <HAL_I2S_TxCpltCallback>
 8003a60:	e7aa      	b.n	80039b8 <I2S_IRQHandler+0x48>
    __HAL_I2S_DISABLE_IT(hi2s, (I2S_IT_RXNE | I2S_IT_ERR));
 8003a62:	685a      	ldr	r2, [r3, #4]
    hi2s->State = HAL_I2S_STATE_READY;
 8003a64:	2101      	movs	r1, #1
    __HAL_I2S_DISABLE_IT(hi2s, (I2S_IT_RXNE | I2S_IT_ERR));
 8003a66:	f022 0260 	bic.w	r2, r2, #96	; 0x60
 8003a6a:	605a      	str	r2, [r3, #4]
    hi2s->State = HAL_I2S_STATE_READY;
 8003a6c:	f880 1041 	strb.w	r1, [r0, #65]	; 0x41
    HAL_I2S_RxCpltCallback(hi2s);
 8003a70:	f7ff ff7a 	bl	8003968 <HAL_I2S_RxCpltCallback>
 8003a74:	e7cd      	b.n	8003a12 <I2S_IRQHandler+0xa2>
 8003a76:	bf00      	nop

08003a78 <HAL_I2SEx_TxRxCpltCallback>:
 8003a78:	4770      	bx	lr
 8003a7a:	bf00      	nop

08003a7c <HAL_I2SEx_FullDuplex_IRQHandler>:
  * @brief  This function handles I2S/I2Sext interrupt requests in full-duplex mode.
  * @param  hi2s I2S handle
  * @retval HAL status
  */
void HAL_I2SEx_FullDuplex_IRQHandler(I2S_HandleTypeDef *hi2s)
{
 8003a7c:	b530      	push	{r4, r5, lr}
  __IO uint32_t i2ssr     = hi2s->Instance->SR;
  __IO uint32_t i2sextsr  = I2SxEXT(hi2s->Instance)->SR;
 8003a7e:	4a93      	ldr	r2, [pc, #588]	; (8003ccc <HAL_I2SEx_FullDuplex_IRQHandler+0x250>)
  __IO uint32_t i2ssr     = hi2s->Instance->SR;
 8003a80:	6805      	ldr	r5, [r0, #0]
  __IO uint32_t i2sextsr  = I2SxEXT(hi2s->Instance)->SR;
 8003a82:	4b93      	ldr	r3, [pc, #588]	; (8003cd0 <HAL_I2SEx_FullDuplex_IRQHandler+0x254>)
  __IO uint32_t i2ssr     = hi2s->Instance->SR;
 8003a84:	68a9      	ldr	r1, [r5, #8]
{
 8003a86:	b087      	sub	sp, #28
  __IO uint32_t i2sextsr  = I2SxEXT(hi2s->Instance)->SR;
 8003a88:	4295      	cmp	r5, r2
 8003a8a:	bf18      	it	ne
 8003a8c:	f04f 2340 	movne.w	r3, #1073758208	; 0x40004000
  __IO uint32_t i2ssr     = hi2s->Instance->SR;
 8003a90:	9100      	str	r1, [sp, #0]
  __IO uint32_t i2sextsr  = I2SxEXT(hi2s->Instance)->SR;
 8003a92:	6899      	ldr	r1, [r3, #8]
 8003a94:	9101      	str	r1, [sp, #4]
  __IO uint32_t i2scr2    = hi2s->Instance->CR2;
 8003a96:	6869      	ldr	r1, [r5, #4]
  __IO uint32_t i2sextcr2 = I2SxEXT(hi2s->Instance)->CR2;

  /* Check if the I2S_MODE_MASTER_TX or I2S_MODE_SLAVE_TX Mode is selected */
  if ((hi2s->Init.Mode == I2S_MODE_MASTER_TX) || (hi2s->Init.Mode == I2S_MODE_SLAVE_TX))
 8003a98:	6842      	ldr	r2, [r0, #4]
  __IO uint32_t i2scr2    = hi2s->Instance->CR2;
 8003a9a:	9102      	str	r1, [sp, #8]
  __IO uint32_t i2sextcr2 = I2SxEXT(hi2s->Instance)->CR2;
 8003a9c:	6859      	ldr	r1, [r3, #4]
 8003a9e:	9103      	str	r1, [sp, #12]
  if ((hi2s->Init.Mode == I2S_MODE_MASTER_TX) || (hi2s->Init.Mode == I2S_MODE_SLAVE_TX))
 8003aa0:	f432 7200 	bics.w	r2, r2, #512	; 0x200
{
 8003aa4:	4604      	mov	r4, r0
  if ((hi2s->Init.Mode == I2S_MODE_MASTER_TX) || (hi2s->Init.Mode == I2S_MODE_SLAVE_TX))
 8003aa6:	d075      	beq.n	8003b94 <HAL_I2SEx_FullDuplex_IRQHandler+0x118>
  }
  /* The I2S_MODE_MASTER_RX or I2S_MODE_SLAVE_RX Mode is selected */
  else
  {
    /* I2Sext in mode Transmitter ----------------------------------------------*/
    if (((i2sextsr & I2S_FLAG_TXE) == I2S_FLAG_TXE) && ((i2sextcr2 & I2S_IT_TXE) != RESET))
 8003aa8:	9a01      	ldr	r2, [sp, #4]
 8003aaa:	0791      	lsls	r1, r2, #30
 8003aac:	d51a      	bpl.n	8003ae4 <HAL_I2SEx_FullDuplex_IRQHandler+0x68>
 8003aae:	9a03      	ldr	r2, [sp, #12]
 8003ab0:	0612      	lsls	r2, r2, #24
 8003ab2:	d517      	bpl.n	8003ae4 <HAL_I2SEx_FullDuplex_IRQHandler+0x68>
  * @retval None
  */
static void I2SEx_TxISR_I2SExt(I2S_HandleTypeDef *hi2s)
{
  /* Write Data on DR register */
  I2SxEXT(hi2s->Instance)->DR = (*hi2s->pTxBuffPtr++);
 8003ab4:	6a42      	ldr	r2, [r0, #36]	; 0x24
 8003ab6:	1c91      	adds	r1, r2, #2
 8003ab8:	8812      	ldrh	r2, [r2, #0]
 8003aba:	6241      	str	r1, [r0, #36]	; 0x24
 8003abc:	60da      	str	r2, [r3, #12]
  hi2s->TxXferCount--;
 8003abe:	8d42      	ldrh	r2, [r0, #42]	; 0x2a
 8003ac0:	3a01      	subs	r2, #1
 8003ac2:	b292      	uxth	r2, r2
 8003ac4:	8542      	strh	r2, [r0, #42]	; 0x2a

  if (hi2s->TxXferCount == 0U)
 8003ac6:	8d42      	ldrh	r2, [r0, #42]	; 0x2a
 8003ac8:	b292      	uxth	r2, r2
 8003aca:	b95a      	cbnz	r2, 8003ae4 <HAL_I2SEx_FullDuplex_IRQHandler+0x68>
  {
    /* Disable I2Sext TXE and ERR interrupt */
    __HAL_I2SEXT_DISABLE_IT(hi2s, (I2S_IT_TXE | I2S_IT_ERR));
 8003acc:	685a      	ldr	r2, [r3, #4]
 8003ace:	f022 02a0 	bic.w	r2, r2, #160	; 0xa0
 8003ad2:	605a      	str	r2, [r3, #4]

    if (hi2s->RxXferCount == 0U)
 8003ad4:	8e43      	ldrh	r3, [r0, #50]	; 0x32
 8003ad6:	b29b      	uxth	r3, r3
 8003ad8:	b923      	cbnz	r3, 8003ae4 <HAL_I2SEx_FullDuplex_IRQHandler+0x68>
    {
      hi2s->State = HAL_I2S_STATE_READY;
 8003ada:	2301      	movs	r3, #1
 8003adc:	f880 3041 	strb.w	r3, [r0, #65]	; 0x41
      /* Call user TxRx complete callback */
#if (USE_HAL_I2S_REGISTER_CALLBACKS == 1U)
      hi2s->TxRxCpltCallback(hi2s);
#else
      HAL_I2SEx_TxRxCpltCallback(hi2s);
 8003ae0:	f7ff ffca 	bl	8003a78 <HAL_I2SEx_TxRxCpltCallback>
    if (((i2ssr & I2S_FLAG_RXNE) == I2S_FLAG_RXNE) && ((i2scr2 & I2S_IT_RXNE) != RESET))
 8003ae4:	9b00      	ldr	r3, [sp, #0]
 8003ae6:	07db      	lsls	r3, r3, #31
 8003ae8:	d51c      	bpl.n	8003b24 <HAL_I2SEx_FullDuplex_IRQHandler+0xa8>
 8003aea:	9b02      	ldr	r3, [sp, #8]
 8003aec:	065d      	lsls	r5, r3, #25
 8003aee:	d519      	bpl.n	8003b24 <HAL_I2SEx_FullDuplex_IRQHandler+0xa8>
  * @retval None
  */
static void I2SEx_RxISR_I2S(I2S_HandleTypeDef *hi2s)
{
  /* Read Data from DR register */
  (*hi2s->pRxBuffPtr++) = hi2s->Instance->DR;
 8003af0:	6ae3      	ldr	r3, [r4, #44]	; 0x2c
 8003af2:	6822      	ldr	r2, [r4, #0]
 8003af4:	1c98      	adds	r0, r3, #2
 8003af6:	68d1      	ldr	r1, [r2, #12]
 8003af8:	62e0      	str	r0, [r4, #44]	; 0x2c
 8003afa:	8019      	strh	r1, [r3, #0]
  hi2s->RxXferCount--;
 8003afc:	8e63      	ldrh	r3, [r4, #50]	; 0x32
 8003afe:	3b01      	subs	r3, #1
 8003b00:	b29b      	uxth	r3, r3
 8003b02:	8663      	strh	r3, [r4, #50]	; 0x32

  if (hi2s->RxXferCount == 0U)
 8003b04:	8e63      	ldrh	r3, [r4, #50]	; 0x32
 8003b06:	b29b      	uxth	r3, r3
 8003b08:	b963      	cbnz	r3, 8003b24 <HAL_I2SEx_FullDuplex_IRQHandler+0xa8>
  {
    /* Disable RXNE and ERR interrupt */
    __HAL_I2S_DISABLE_IT(hi2s, (I2S_IT_RXNE | I2S_IT_ERR));
 8003b0a:	6853      	ldr	r3, [r2, #4]
 8003b0c:	f023 0360 	bic.w	r3, r3, #96	; 0x60
 8003b10:	6053      	str	r3, [r2, #4]

    if (hi2s->TxXferCount == 0U)
 8003b12:	8d63      	ldrh	r3, [r4, #42]	; 0x2a
 8003b14:	b29b      	uxth	r3, r3
 8003b16:	b92b      	cbnz	r3, 8003b24 <HAL_I2SEx_FullDuplex_IRQHandler+0xa8>
    {
      hi2s->State = HAL_I2S_STATE_READY;
 8003b18:	2301      	movs	r3, #1
 8003b1a:	f884 3041 	strb.w	r3, [r4, #65]	; 0x41
      /* Call user TxRx complete callback */
#if (USE_HAL_I2S_REGISTER_CALLBACKS == 1U)
      hi2s->TxRxCpltCallback(hi2s);
#else
      HAL_I2SEx_TxRxCpltCallback(hi2s);
 8003b1e:	4620      	mov	r0, r4
 8003b20:	f7ff ffaa 	bl	8003a78 <HAL_I2SEx_TxRxCpltCallback>
    if (((i2ssr & I2S_FLAG_OVR) == I2S_FLAG_OVR) && ((i2scr2 & I2S_IT_ERR) != RESET))
 8003b24:	9b00      	ldr	r3, [sp, #0]
 8003b26:	0658      	lsls	r0, r3, #25
 8003b28:	d51b      	bpl.n	8003b62 <HAL_I2SEx_FullDuplex_IRQHandler+0xe6>
 8003b2a:	9b02      	ldr	r3, [sp, #8]
 8003b2c:	0699      	lsls	r1, r3, #26
 8003b2e:	d518      	bpl.n	8003b62 <HAL_I2SEx_FullDuplex_IRQHandler+0xe6>
      __HAL_I2S_DISABLE_IT(hi2s, (I2S_IT_RXNE | I2S_IT_ERR));
 8003b30:	6822      	ldr	r2, [r4, #0]
      __HAL_I2SEXT_DISABLE_IT(hi2s, (I2S_IT_TXE | I2S_IT_ERR));
 8003b32:	4866      	ldr	r0, [pc, #408]	; (8003ccc <HAL_I2SEx_FullDuplex_IRQHandler+0x250>)
      __HAL_I2S_DISABLE_IT(hi2s, (I2S_IT_RXNE | I2S_IT_ERR));
 8003b34:	6851      	ldr	r1, [r2, #4]
      __HAL_I2SEXT_DISABLE_IT(hi2s, (I2S_IT_TXE | I2S_IT_ERR));
 8003b36:	4b66      	ldr	r3, [pc, #408]	; (8003cd0 <HAL_I2SEx_FullDuplex_IRQHandler+0x254>)
      __HAL_I2S_DISABLE_IT(hi2s, (I2S_IT_RXNE | I2S_IT_ERR));
 8003b38:	f021 0160 	bic.w	r1, r1, #96	; 0x60
      __HAL_I2SEXT_DISABLE_IT(hi2s, (I2S_IT_TXE | I2S_IT_ERR));
 8003b3c:	4282      	cmp	r2, r0
 8003b3e:	bf18      	it	ne
 8003b40:	f04f 2340 	movne.w	r3, #1073758208	; 0x40004000
      __HAL_I2S_DISABLE_IT(hi2s, (I2S_IT_RXNE | I2S_IT_ERR));
 8003b44:	6051      	str	r1, [r2, #4]
      __HAL_I2SEXT_DISABLE_IT(hi2s, (I2S_IT_TXE | I2S_IT_ERR));
 8003b46:	685a      	ldr	r2, [r3, #4]
      hi2s->State = HAL_I2S_STATE_READY;
 8003b48:	2101      	movs	r1, #1
      __HAL_I2SEXT_DISABLE_IT(hi2s, (I2S_IT_TXE | I2S_IT_ERR));
 8003b4a:	f022 02a0 	bic.w	r2, r2, #160	; 0xa0
 8003b4e:	605a      	str	r2, [r3, #4]
      hi2s->State = HAL_I2S_STATE_READY;
 8003b50:	f884 1041 	strb.w	r1, [r4, #65]	; 0x41
      SET_BIT(hi2s->ErrorCode, HAL_I2S_ERROR_OVR);
 8003b54:	6c63      	ldr	r3, [r4, #68]	; 0x44
 8003b56:	f043 0302 	orr.w	r3, r3, #2
 8003b5a:	6463      	str	r3, [r4, #68]	; 0x44
      HAL_I2S_ErrorCallback(hi2s);
 8003b5c:	4620      	mov	r0, r4
 8003b5e:	f7ff ff05 	bl	800396c <HAL_I2S_ErrorCallback>
    if (((i2sextsr & I2S_FLAG_UDR) == I2S_FLAG_UDR) && ((i2sextcr2 & I2S_IT_ERR) != RESET))
 8003b62:	9b01      	ldr	r3, [sp, #4]
 8003b64:	071a      	lsls	r2, r3, #28
 8003b66:	d56e      	bpl.n	8003c46 <HAL_I2SEx_FullDuplex_IRQHandler+0x1ca>
 8003b68:	9b03      	ldr	r3, [sp, #12]
 8003b6a:	069b      	lsls	r3, r3, #26
 8003b6c:	d56b      	bpl.n	8003c46 <HAL_I2SEx_FullDuplex_IRQHandler+0x1ca>
      __HAL_I2SEXT_DISABLE_IT(hi2s, (I2S_IT_TXE | I2S_IT_ERR));
 8003b6e:	6822      	ldr	r2, [r4, #0]
 8003b70:	4956      	ldr	r1, [pc, #344]	; (8003ccc <HAL_I2SEx_FullDuplex_IRQHandler+0x250>)
 8003b72:	4b57      	ldr	r3, [pc, #348]	; (8003cd0 <HAL_I2SEx_FullDuplex_IRQHandler+0x254>)
 8003b74:	428a      	cmp	r2, r1
 8003b76:	bf18      	it	ne
 8003b78:	f04f 2340 	movne.w	r3, #1073758208	; 0x40004000
      hi2s->State = HAL_I2S_STATE_READY;
 8003b7c:	2001      	movs	r0, #1
      __HAL_I2SEXT_DISABLE_IT(hi2s, (I2S_IT_TXE | I2S_IT_ERR));
 8003b7e:	6859      	ldr	r1, [r3, #4]
 8003b80:	f021 01a0 	bic.w	r1, r1, #160	; 0xa0
 8003b84:	6059      	str	r1, [r3, #4]
      __HAL_I2S_DISABLE_IT(hi2s, (I2S_IT_RXNE | I2S_IT_ERR));
 8003b86:	6853      	ldr	r3, [r2, #4]
 8003b88:	f023 0360 	bic.w	r3, r3, #96	; 0x60
 8003b8c:	6053      	str	r3, [r2, #4]
      hi2s->State = HAL_I2S_STATE_READY;
 8003b8e:	f884 0041 	strb.w	r0, [r4, #65]	; 0x41
 8003b92:	e04e      	b.n	8003c32 <HAL_I2SEx_FullDuplex_IRQHandler+0x1b6>
    if (((i2ssr & I2S_FLAG_TXE) == I2S_FLAG_TXE) && ((i2scr2 & I2S_IT_TXE) != RESET))
 8003b94:	9b00      	ldr	r3, [sp, #0]
 8003b96:	079a      	lsls	r2, r3, #30
 8003b98:	d502      	bpl.n	8003ba0 <HAL_I2SEx_FullDuplex_IRQHandler+0x124>
 8003b9a:	9b02      	ldr	r3, [sp, #8]
 8003b9c:	061b      	lsls	r3, r3, #24
 8003b9e:	d477      	bmi.n	8003c90 <HAL_I2SEx_FullDuplex_IRQHandler+0x214>
    if (((i2sextsr & I2S_FLAG_RXNE) == I2S_FLAG_RXNE) && ((i2sextcr2 & I2S_IT_RXNE) != RESET))
 8003ba0:	9b01      	ldr	r3, [sp, #4]
 8003ba2:	07d8      	lsls	r0, r3, #31
 8003ba4:	d502      	bpl.n	8003bac <HAL_I2SEx_FullDuplex_IRQHandler+0x130>
 8003ba6:	9b03      	ldr	r3, [sp, #12]
 8003ba8:	0659      	lsls	r1, r3, #25
 8003baa:	d44e      	bmi.n	8003c4a <HAL_I2SEx_FullDuplex_IRQHandler+0x1ce>
    if (((i2sextsr & I2S_FLAG_OVR) == I2S_FLAG_OVR) && ((i2sextcr2 & I2S_IT_ERR) != RESET))
 8003bac:	9b01      	ldr	r3, [sp, #4]
 8003bae:	065a      	lsls	r2, r3, #25
 8003bb0:	d522      	bpl.n	8003bf8 <HAL_I2SEx_FullDuplex_IRQHandler+0x17c>
 8003bb2:	9b03      	ldr	r3, [sp, #12]
 8003bb4:	069b      	lsls	r3, r3, #26
 8003bb6:	d51f      	bpl.n	8003bf8 <HAL_I2SEx_FullDuplex_IRQHandler+0x17c>
      __HAL_I2SEXT_DISABLE_IT(hi2s, (I2S_IT_RXNE | I2S_IT_ERR));
 8003bb8:	6823      	ldr	r3, [r4, #0]
 8003bba:	4944      	ldr	r1, [pc, #272]	; (8003ccc <HAL_I2SEx_FullDuplex_IRQHandler+0x250>)
 8003bbc:	4a44      	ldr	r2, [pc, #272]	; (8003cd0 <HAL_I2SEx_FullDuplex_IRQHandler+0x254>)
 8003bbe:	428b      	cmp	r3, r1
 8003bc0:	bf18      	it	ne
 8003bc2:	f04f 2240 	movne.w	r2, #1073758208	; 0x40004000
      __HAL_I2S_CLEAR_OVRFLAG(hi2s);
 8003bc6:	2000      	movs	r0, #0
      __HAL_I2SEXT_DISABLE_IT(hi2s, (I2S_IT_RXNE | I2S_IT_ERR));
 8003bc8:	6851      	ldr	r1, [r2, #4]
 8003bca:	f021 0160 	bic.w	r1, r1, #96	; 0x60
 8003bce:	6051      	str	r1, [r2, #4]
      __HAL_I2S_DISABLE_IT(hi2s, (I2S_IT_TXE | I2S_IT_ERR));
 8003bd0:	685a      	ldr	r2, [r3, #4]
 8003bd2:	f022 02a0 	bic.w	r2, r2, #160	; 0xa0
 8003bd6:	605a      	str	r2, [r3, #4]
      __HAL_I2S_CLEAR_OVRFLAG(hi2s);
 8003bd8:	9004      	str	r0, [sp, #16]
 8003bda:	68da      	ldr	r2, [r3, #12]
 8003bdc:	9204      	str	r2, [sp, #16]
 8003bde:	689b      	ldr	r3, [r3, #8]
 8003be0:	9304      	str	r3, [sp, #16]
      hi2s->State = HAL_I2S_STATE_READY;
 8003be2:	2301      	movs	r3, #1
      __HAL_I2S_CLEAR_OVRFLAG(hi2s);
 8003be4:	9a04      	ldr	r2, [sp, #16]
      hi2s->State = HAL_I2S_STATE_READY;
 8003be6:	f884 3041 	strb.w	r3, [r4, #65]	; 0x41
      SET_BIT(hi2s->ErrorCode, HAL_I2S_ERROR_OVR);
 8003bea:	6c63      	ldr	r3, [r4, #68]	; 0x44
 8003bec:	f043 0302 	orr.w	r3, r3, #2
 8003bf0:	6463      	str	r3, [r4, #68]	; 0x44
      HAL_I2S_ErrorCallback(hi2s);
 8003bf2:	4620      	mov	r0, r4
 8003bf4:	f7ff feba 	bl	800396c <HAL_I2S_ErrorCallback>
    if (((i2ssr & I2S_FLAG_UDR) == I2S_FLAG_UDR) && ((i2scr2 & I2S_IT_ERR) != RESET))
 8003bf8:	9b00      	ldr	r3, [sp, #0]
 8003bfa:	071d      	lsls	r5, r3, #28
 8003bfc:	d523      	bpl.n	8003c46 <HAL_I2SEx_FullDuplex_IRQHandler+0x1ca>
 8003bfe:	9b02      	ldr	r3, [sp, #8]
 8003c00:	0698      	lsls	r0, r3, #26
 8003c02:	d520      	bpl.n	8003c46 <HAL_I2SEx_FullDuplex_IRQHandler+0x1ca>
      __HAL_I2S_DISABLE_IT(hi2s, (I2S_IT_TXE | I2S_IT_ERR));
 8003c04:	6823      	ldr	r3, [r4, #0]
      __HAL_I2SEXT_DISABLE_IT(hi2s, (I2S_IT_RXNE | I2S_IT_ERR));
 8003c06:	4831      	ldr	r0, [pc, #196]	; (8003ccc <HAL_I2SEx_FullDuplex_IRQHandler+0x250>)
      __HAL_I2S_DISABLE_IT(hi2s, (I2S_IT_TXE | I2S_IT_ERR));
 8003c08:	6859      	ldr	r1, [r3, #4]
      __HAL_I2SEXT_DISABLE_IT(hi2s, (I2S_IT_RXNE | I2S_IT_ERR));
 8003c0a:	4a31      	ldr	r2, [pc, #196]	; (8003cd0 <HAL_I2SEx_FullDuplex_IRQHandler+0x254>)
      __HAL_I2S_DISABLE_IT(hi2s, (I2S_IT_TXE | I2S_IT_ERR));
 8003c0c:	f021 01a0 	bic.w	r1, r1, #160	; 0xa0
      __HAL_I2SEXT_DISABLE_IT(hi2s, (I2S_IT_RXNE | I2S_IT_ERR));
 8003c10:	4283      	cmp	r3, r0
 8003c12:	bf18      	it	ne
 8003c14:	f04f 2240 	movne.w	r2, #1073758208	; 0x40004000
      __HAL_I2S_DISABLE_IT(hi2s, (I2S_IT_TXE | I2S_IT_ERR));
 8003c18:	6059      	str	r1, [r3, #4]
      __HAL_I2SEXT_DISABLE_IT(hi2s, (I2S_IT_RXNE | I2S_IT_ERR));
 8003c1a:	6851      	ldr	r1, [r2, #4]
      __HAL_I2S_CLEAR_UDRFLAG(hi2s);
 8003c1c:	2000      	movs	r0, #0
      __HAL_I2SEXT_DISABLE_IT(hi2s, (I2S_IT_RXNE | I2S_IT_ERR));
 8003c1e:	f021 0160 	bic.w	r1, r1, #96	; 0x60
 8003c22:	6051      	str	r1, [r2, #4]
      __HAL_I2S_CLEAR_UDRFLAG(hi2s);
 8003c24:	9005      	str	r0, [sp, #20]
 8003c26:	689b      	ldr	r3, [r3, #8]
 8003c28:	9305      	str	r3, [sp, #20]
      hi2s->State = HAL_I2S_STATE_READY;
 8003c2a:	2301      	movs	r3, #1
      __HAL_I2S_CLEAR_UDRFLAG(hi2s);
 8003c2c:	9a05      	ldr	r2, [sp, #20]
      hi2s->State = HAL_I2S_STATE_READY;
 8003c2e:	f884 3041 	strb.w	r3, [r4, #65]	; 0x41
      SET_BIT(hi2s->ErrorCode, HAL_I2S_ERROR_UDR);
 8003c32:	6c63      	ldr	r3, [r4, #68]	; 0x44
      HAL_I2S_ErrorCallback(hi2s);
 8003c34:	4620      	mov	r0, r4
      SET_BIT(hi2s->ErrorCode, HAL_I2S_ERROR_UDR);
 8003c36:	f043 0304 	orr.w	r3, r3, #4
 8003c3a:	6463      	str	r3, [r4, #68]	; 0x44
}
 8003c3c:	b007      	add	sp, #28
 8003c3e:	e8bd 4030 	ldmia.w	sp!, {r4, r5, lr}
      HAL_I2S_ErrorCallback(hi2s);
 8003c42:	f7ff be93 	b.w	800396c <HAL_I2S_ErrorCallback>
}
 8003c46:	b007      	add	sp, #28
 8003c48:	bd30      	pop	{r4, r5, pc}
  * @retval None
  */
static void I2SEx_RxISR_I2SExt(I2S_HandleTypeDef *hi2s)
{
  /* Read Data from DR register */
  (*hi2s->pRxBuffPtr++) = I2SxEXT(hi2s->Instance)->DR;
 8003c4a:	6820      	ldr	r0, [r4, #0]
 8003c4c:	491f      	ldr	r1, [pc, #124]	; (8003ccc <HAL_I2SEx_FullDuplex_IRQHandler+0x250>)
 8003c4e:	4a20      	ldr	r2, [pc, #128]	; (8003cd0 <HAL_I2SEx_FullDuplex_IRQHandler+0x254>)
 8003c50:	6ae3      	ldr	r3, [r4, #44]	; 0x2c
 8003c52:	4288      	cmp	r0, r1
 8003c54:	bf18      	it	ne
 8003c56:	f04f 2240 	movne.w	r2, #1073758208	; 0x40004000
 8003c5a:	1c98      	adds	r0, r3, #2
 8003c5c:	68d1      	ldr	r1, [r2, #12]
 8003c5e:	62e0      	str	r0, [r4, #44]	; 0x2c
 8003c60:	8019      	strh	r1, [r3, #0]
  hi2s->RxXferCount--;
 8003c62:	8e63      	ldrh	r3, [r4, #50]	; 0x32
 8003c64:	3b01      	subs	r3, #1
 8003c66:	b29b      	uxth	r3, r3
 8003c68:	8663      	strh	r3, [r4, #50]	; 0x32

  if (hi2s->RxXferCount == 0U)
 8003c6a:	8e63      	ldrh	r3, [r4, #50]	; 0x32
 8003c6c:	b29b      	uxth	r3, r3
 8003c6e:	2b00      	cmp	r3, #0
 8003c70:	d19c      	bne.n	8003bac <HAL_I2SEx_FullDuplex_IRQHandler+0x130>
  {
    /* Disable I2Sext RXNE and ERR interrupt */
    __HAL_I2SEXT_DISABLE_IT(hi2s, (I2S_IT_RXNE | I2S_IT_ERR));
 8003c72:	6853      	ldr	r3, [r2, #4]
 8003c74:	f023 0360 	bic.w	r3, r3, #96	; 0x60
 8003c78:	6053      	str	r3, [r2, #4]

    if (hi2s->TxXferCount == 0U)
 8003c7a:	8d63      	ldrh	r3, [r4, #42]	; 0x2a
 8003c7c:	b29b      	uxth	r3, r3
 8003c7e:	2b00      	cmp	r3, #0
 8003c80:	d194      	bne.n	8003bac <HAL_I2SEx_FullDuplex_IRQHandler+0x130>
    {
      hi2s->State = HAL_I2S_STATE_READY;
 8003c82:	2301      	movs	r3, #1
 8003c84:	f884 3041 	strb.w	r3, [r4, #65]	; 0x41
      /* Call user TxRx complete callback */
#if (USE_HAL_I2S_REGISTER_CALLBACKS == 1U)
      hi2s->TxRxCpltCallback(hi2s);
#else
      HAL_I2SEx_TxRxCpltCallback(hi2s);
 8003c88:	4620      	mov	r0, r4
 8003c8a:	f7ff fef5 	bl	8003a78 <HAL_I2SEx_TxRxCpltCallback>
 8003c8e:	e78d      	b.n	8003bac <HAL_I2SEx_FullDuplex_IRQHandler+0x130>
  hi2s->Instance->DR = (*hi2s->pTxBuffPtr++);
 8003c90:	6a43      	ldr	r3, [r0, #36]	; 0x24
 8003c92:	1c9a      	adds	r2, r3, #2
 8003c94:	881b      	ldrh	r3, [r3, #0]
 8003c96:	6242      	str	r2, [r0, #36]	; 0x24
 8003c98:	60eb      	str	r3, [r5, #12]
  hi2s->TxXferCount--;
 8003c9a:	8d43      	ldrh	r3, [r0, #42]	; 0x2a
 8003c9c:	3b01      	subs	r3, #1
 8003c9e:	b29b      	uxth	r3, r3
 8003ca0:	8543      	strh	r3, [r0, #42]	; 0x2a
  if (hi2s->TxXferCount == 0U)
 8003ca2:	8d43      	ldrh	r3, [r0, #42]	; 0x2a
 8003ca4:	b29b      	uxth	r3, r3
 8003ca6:	2b00      	cmp	r3, #0
 8003ca8:	f47f af7a 	bne.w	8003ba0 <HAL_I2SEx_FullDuplex_IRQHandler+0x124>
    __HAL_I2S_DISABLE_IT(hi2s, (I2S_IT_TXE | I2S_IT_ERR));
 8003cac:	686b      	ldr	r3, [r5, #4]
 8003cae:	f023 03a0 	bic.w	r3, r3, #160	; 0xa0
 8003cb2:	606b      	str	r3, [r5, #4]
    if (hi2s->RxXferCount == 0U)
 8003cb4:	8e43      	ldrh	r3, [r0, #50]	; 0x32
 8003cb6:	b29b      	uxth	r3, r3
 8003cb8:	2b00      	cmp	r3, #0
 8003cba:	f47f af71 	bne.w	8003ba0 <HAL_I2SEx_FullDuplex_IRQHandler+0x124>
      hi2s->State = HAL_I2S_STATE_READY;
 8003cbe:	2301      	movs	r3, #1
 8003cc0:	f880 3041 	strb.w	r3, [r0, #65]	; 0x41
      HAL_I2SEx_TxRxCpltCallback(hi2s);
 8003cc4:	f7ff fed8 	bl	8003a78 <HAL_I2SEx_TxRxCpltCallback>
 8003cc8:	e76a      	b.n	8003ba0 <HAL_I2SEx_FullDuplex_IRQHandler+0x124>
 8003cca:	bf00      	nop
 8003ccc:	40003800 	.word	0x40003800
 8003cd0:	40003400 	.word	0x40003400

08003cd4 <HAL_RCC_OscConfig>:
__weak HAL_StatusTypeDef HAL_RCC_OscConfig(RCC_OscInitTypeDef  *RCC_OscInitStruct)
{
  uint32_t tickstart, pll_config;

  /* Check Null pointer */
  if(RCC_OscInitStruct == NULL)
 8003cd4:	2800      	cmp	r0, #0
 8003cd6:	f000 8132 	beq.w	8003f3e <HAL_RCC_OscConfig+0x26a>
{
 8003cda:	e92d 41f0 	stmdb	sp!, {r4, r5, r6, r7, r8, lr}
  }

  /* Check the parameters */
  assert_param(IS_RCC_OSCILLATORTYPE(RCC_OscInitStruct->OscillatorType));
  /*------------------------------- HSE Configuration ------------------------*/
  if(((RCC_OscInitStruct->OscillatorType) & RCC_OSCILLATORTYPE_HSE) == RCC_OSCILLATORTYPE_HSE)
 8003cde:	6803      	ldr	r3, [r0, #0]
 8003ce0:	07dd      	lsls	r5, r3, #31
{
 8003ce2:	b082      	sub	sp, #8
 8003ce4:	4604      	mov	r4, r0
  if(((RCC_OscInitStruct->OscillatorType) & RCC_OSCILLATORTYPE_HSE) == RCC_OSCILLATORTYPE_HSE)
 8003ce6:	d52f      	bpl.n	8003d48 <HAL_RCC_OscConfig+0x74>
  {
    /* Check the parameters */
    assert_param(IS_RCC_HSE(RCC_OscInitStruct->HSEState));
    /* When the HSE is used as system clock or clock source for PLL in these cases HSE will not disabled */
    if((__HAL_RCC_GET_SYSCLK_SOURCE() == RCC_CFGR_SWS_HSE) ||\
 8003ce8:	49ac      	ldr	r1, [pc, #688]	; (8003f9c <HAL_RCC_OscConfig+0x2c8>)
 8003cea:	688a      	ldr	r2, [r1, #8]
 8003cec:	f002 020c 	and.w	r2, r2, #12
 8003cf0:	2a04      	cmp	r2, #4
 8003cf2:	f000 80ea 	beq.w	8003eca <HAL_RCC_OscConfig+0x1f6>
      ((__HAL_RCC_GET_SYSCLK_SOURCE() == RCC_CFGR_SWS_PLL) && ((RCC->PLLCFGR & RCC_PLLCFGR_PLLSRC) == RCC_PLLCFGR_PLLSRC_HSE)))
 8003cf6:	688a      	ldr	r2, [r1, #8]
 8003cf8:	f002 020c 	and.w	r2, r2, #12
    if((__HAL_RCC_GET_SYSCLK_SOURCE() == RCC_CFGR_SWS_HSE) ||\
 8003cfc:	2a08      	cmp	r2, #8
 8003cfe:	f000 80e0 	beq.w	8003ec2 <HAL_RCC_OscConfig+0x1ee>
      }
    }
    else
    {
      /* Set the new HSE configuration ---------------------------------------*/
      __HAL_RCC_HSE_CONFIG(RCC_OscInitStruct->HSEState);
 8003d02:	6863      	ldr	r3, [r4, #4]
 8003d04:	f5b3 3f80 	cmp.w	r3, #65536	; 0x10000
 8003d08:	f000 80e9 	beq.w	8003ede <HAL_RCC_OscConfig+0x20a>
 8003d0c:	f5b3 2fa0 	cmp.w	r3, #327680	; 0x50000
 8003d10:	f000 8178 	beq.w	8004004 <HAL_RCC_OscConfig+0x330>
 8003d14:	4da1      	ldr	r5, [pc, #644]	; (8003f9c <HAL_RCC_OscConfig+0x2c8>)
 8003d16:	682a      	ldr	r2, [r5, #0]
 8003d18:	f422 3280 	bic.w	r2, r2, #65536	; 0x10000
 8003d1c:	602a      	str	r2, [r5, #0]
 8003d1e:	682a      	ldr	r2, [r5, #0]
 8003d20:	f422 2280 	bic.w	r2, r2, #262144	; 0x40000
 8003d24:	602a      	str	r2, [r5, #0]

      /* Check the HSE State */
      if((RCC_OscInitStruct->HSEState) != RCC_HSE_OFF)
 8003d26:	2b00      	cmp	r3, #0
 8003d28:	f040 80de 	bne.w	8003ee8 <HAL_RCC_OscConfig+0x214>
        }
      }
      else
      {
        /* Get Start Tick */
        tickstart = HAL_GetTick();
 8003d2c:	f7fe fa08 	bl	8002140 <HAL_GetTick>
 8003d30:	4606      	mov	r6, r0

        /* Wait till HSE is bypassed or disabled */
        while(__HAL_RCC_GET_FLAG(RCC_FLAG_HSERDY) != RESET)
 8003d32:	e005      	b.n	8003d40 <HAL_RCC_OscConfig+0x6c>
        {
          if((HAL_GetTick() - tickstart ) > HSE_TIMEOUT_VALUE)
 8003d34:	f7fe fa04 	bl	8002140 <HAL_GetTick>
 8003d38:	1b80      	subs	r0, r0, r6
 8003d3a:	2864      	cmp	r0, #100	; 0x64
 8003d3c:	f200 80f2 	bhi.w	8003f24 <HAL_RCC_OscConfig+0x250>
        while(__HAL_RCC_GET_FLAG(RCC_FLAG_HSERDY) != RESET)
 8003d40:	682b      	ldr	r3, [r5, #0]
 8003d42:	039b      	lsls	r3, r3, #14
 8003d44:	d4f6      	bmi.n	8003d34 <HAL_RCC_OscConfig+0x60>
 8003d46:	6823      	ldr	r3, [r4, #0]
        }
      }
    }
  }
  /*----------------------------- HSI Configuration --------------------------*/
  if(((RCC_OscInitStruct->OscillatorType) & RCC_OSCILLATORTYPE_HSI) == RCC_OSCILLATORTYPE_HSI)
 8003d48:	079f      	lsls	r7, r3, #30
 8003d4a:	d475      	bmi.n	8003e38 <HAL_RCC_OscConfig+0x164>
        }
      }
    }
  }
  /*------------------------------ LSI Configuration -------------------------*/
  if(((RCC_OscInitStruct->OscillatorType) & RCC_OSCILLATORTYPE_LSI) == RCC_OSCILLATORTYPE_LSI)
 8003d4c:	071a      	lsls	r2, r3, #28
 8003d4e:	d515      	bpl.n	8003d7c <HAL_RCC_OscConfig+0xa8>
  {
    /* Check the parameters */
    assert_param(IS_RCC_LSI(RCC_OscInitStruct->LSIState));

    /* Check the LSI State */
    if((RCC_OscInitStruct->LSIState)!= RCC_LSI_OFF)
 8003d50:	6963      	ldr	r3, [r4, #20]
 8003d52:	2b00      	cmp	r3, #0
 8003d54:	f000 80a5 	beq.w	8003ea2 <HAL_RCC_OscConfig+0x1ce>
    {
      /* Enable the Internal Low Speed oscillator (LSI). */
      __HAL_RCC_LSI_ENABLE();
 8003d58:	4b91      	ldr	r3, [pc, #580]	; (8003fa0 <HAL_RCC_OscConfig+0x2cc>)

      /* Get Start Tick*/
      tickstart = HAL_GetTick();

      /* Wait till LSI is ready */
      while(__HAL_RCC_GET_FLAG(RCC_FLAG_LSIRDY) == RESET)
 8003d5a:	4d90      	ldr	r5, [pc, #576]	; (8003f9c <HAL_RCC_OscConfig+0x2c8>)
      __HAL_RCC_LSI_ENABLE();
 8003d5c:	2201      	movs	r2, #1
 8003d5e:	601a      	str	r2, [r3, #0]
      tickstart = HAL_GetTick();
 8003d60:	f7fe f9ee 	bl	8002140 <HAL_GetTick>
 8003d64:	4606      	mov	r6, r0
      while(__HAL_RCC_GET_FLAG(RCC_FLAG_LSIRDY) == RESET)
 8003d66:	e005      	b.n	8003d74 <HAL_RCC_OscConfig+0xa0>
      {
        if((HAL_GetTick() - tickstart ) > LSI_TIMEOUT_VALUE)
 8003d68:	f7fe f9ea 	bl	8002140 <HAL_GetTick>
 8003d6c:	1b80      	subs	r0, r0, r6
 8003d6e:	2802      	cmp	r0, #2
 8003d70:	f200 80d8 	bhi.w	8003f24 <HAL_RCC_OscConfig+0x250>
      while(__HAL_RCC_GET_FLAG(RCC_FLAG_LSIRDY) == RESET)
 8003d74:	6f6b      	ldr	r3, [r5, #116]	; 0x74
 8003d76:	079b      	lsls	r3, r3, #30
 8003d78:	d5f6      	bpl.n	8003d68 <HAL_RCC_OscConfig+0x94>
 8003d7a:	6823      	ldr	r3, [r4, #0]
        }
      }
    }
  }
  /*------------------------------ LSE Configuration -------------------------*/
  if(((RCC_OscInitStruct->OscillatorType) & RCC_OSCILLATORTYPE_LSE) == RCC_OSCILLATORTYPE_LSE)
 8003d7c:	0758      	lsls	r0, r3, #29
 8003d7e:	d53b      	bpl.n	8003df8 <HAL_RCC_OscConfig+0x124>
    /* Check the parameters */
    assert_param(IS_RCC_LSE(RCC_OscInitStruct->LSEState));

    /* Update LSE configuration in Backup Domain control register    */
    /* Requires to enable write access to Backup Domain of necessary */
    if(__HAL_RCC_PWR_IS_CLK_DISABLED())
 8003d80:	4a86      	ldr	r2, [pc, #536]	; (8003f9c <HAL_RCC_OscConfig+0x2c8>)
 8003d82:	6c13      	ldr	r3, [r2, #64]	; 0x40
 8003d84:	f013 5380 	ands.w	r3, r3, #268435456	; 0x10000000
 8003d88:	f040 80db 	bne.w	8003f42 <HAL_RCC_OscConfig+0x26e>
    {
      __HAL_RCC_PWR_CLK_ENABLE();
 8003d8c:	9301      	str	r3, [sp, #4]
 8003d8e:	6c13      	ldr	r3, [r2, #64]	; 0x40
 8003d90:	f043 5380 	orr.w	r3, r3, #268435456	; 0x10000000
 8003d94:	6413      	str	r3, [r2, #64]	; 0x40
 8003d96:	6c13      	ldr	r3, [r2, #64]	; 0x40
 8003d98:	f003 5380 	and.w	r3, r3, #268435456	; 0x10000000
 8003d9c:	9301      	str	r3, [sp, #4]
 8003d9e:	9b01      	ldr	r3, [sp, #4]
      pwrclkchanged = SET;
 8003da0:	2601      	movs	r6, #1
    }

    if(HAL_IS_BIT_CLR(PWR->CR, PWR_CR_DBP))
 8003da2:	4d80      	ldr	r5, [pc, #512]	; (8003fa4 <HAL_RCC_OscConfig+0x2d0>)
 8003da4:	682a      	ldr	r2, [r5, #0]
 8003da6:	05d1      	lsls	r1, r2, #23
 8003da8:	f140 80ac 	bpl.w	8003f04 <HAL_RCC_OscConfig+0x230>
        }
      }
    }

    /* Set the new LSE configuration -----------------------------------------*/
    __HAL_RCC_LSE_CONFIG(RCC_OscInitStruct->LSEState);
 8003dac:	68a3      	ldr	r3, [r4, #8]
 8003dae:	2b01      	cmp	r3, #1
 8003db0:	f000 80c9 	beq.w	8003f46 <HAL_RCC_OscConfig+0x272>
 8003db4:	2b05      	cmp	r3, #5
 8003db6:	f000 812f 	beq.w	8004018 <HAL_RCC_OscConfig+0x344>
 8003dba:	4d78      	ldr	r5, [pc, #480]	; (8003f9c <HAL_RCC_OscConfig+0x2c8>)
 8003dbc:	6f2a      	ldr	r2, [r5, #112]	; 0x70
 8003dbe:	f022 0201 	bic.w	r2, r2, #1
 8003dc2:	672a      	str	r2, [r5, #112]	; 0x70
 8003dc4:	6f2a      	ldr	r2, [r5, #112]	; 0x70
 8003dc6:	f022 0204 	bic.w	r2, r2, #4
 8003dca:	672a      	str	r2, [r5, #112]	; 0x70
    /* Check the LSE State */
    if((RCC_OscInitStruct->LSEState) != RCC_LSE_OFF)
 8003dcc:	2b00      	cmp	r3, #0
 8003dce:	f040 80bf 	bne.w	8003f50 <HAL_RCC_OscConfig+0x27c>
      }
    }
    else
    {
      /* Get Start Tick */
      tickstart = HAL_GetTick();
 8003dd2:	f7fe f9b5 	bl	8002140 <HAL_GetTick>

      /* Wait till LSE is ready */
      while(__HAL_RCC_GET_FLAG(RCC_FLAG_LSERDY) != RESET)
      {
        if((HAL_GetTick() - tickstart ) > RCC_LSE_TIMEOUT_VALUE)
 8003dd6:	f241 3788 	movw	r7, #5000	; 0x1388
      tickstart = HAL_GetTick();
 8003dda:	4680      	mov	r8, r0
      while(__HAL_RCC_GET_FLAG(RCC_FLAG_LSERDY) != RESET)
 8003ddc:	e006      	b.n	8003dec <HAL_RCC_OscConfig+0x118>
        if((HAL_GetTick() - tickstart ) > RCC_LSE_TIMEOUT_VALUE)
 8003dde:	f7fe f9af 	bl	8002140 <HAL_GetTick>
 8003de2:	eba0 0008 	sub.w	r0, r0, r8
 8003de6:	42b8      	cmp	r0, r7
 8003de8:	f200 809c 	bhi.w	8003f24 <HAL_RCC_OscConfig+0x250>
      while(__HAL_RCC_GET_FLAG(RCC_FLAG_LSERDY) != RESET)
 8003dec:	6f2b      	ldr	r3, [r5, #112]	; 0x70
 8003dee:	0798      	lsls	r0, r3, #30
 8003df0:	d4f5      	bmi.n	8003dde <HAL_RCC_OscConfig+0x10a>
        }
      }
    }

    /* Restore clock configuration if changed */
    if(pwrclkchanged == SET)
 8003df2:	2e00      	cmp	r6, #0
 8003df4:	f040 80dc 	bne.w	8003fb0 <HAL_RCC_OscConfig+0x2dc>
    }
  }
  /*-------------------------------- PLL Configuration -----------------------*/
  /* Check the parameters */
  assert_param(IS_RCC_PLL(RCC_OscInitStruct->PLL.PLLState));
  if ((RCC_OscInitStruct->PLL.PLLState) != RCC_PLL_NONE)
 8003df8:	69a0      	ldr	r0, [r4, #24]
 8003dfa:	b1c8      	cbz	r0, 8003e30 <HAL_RCC_OscConfig+0x15c>
  {
    /* Check if the PLL is used as system clock or not */
    if(__HAL_RCC_GET_SYSCLK_SOURCE() != RCC_CFGR_SWS_PLL)
 8003dfc:	4d67      	ldr	r5, [pc, #412]	; (8003f9c <HAL_RCC_OscConfig+0x2c8>)
 8003dfe:	68aa      	ldr	r2, [r5, #8]
 8003e00:	f002 020c 	and.w	r2, r2, #12
 8003e04:	2a08      	cmp	r2, #8
 8003e06:	f000 80d9 	beq.w	8003fbc <HAL_RCC_OscConfig+0x2e8>
        assert_param(IS_RCC_PLLN_VALUE(RCC_OscInitStruct->PLL.PLLN));
        assert_param(IS_RCC_PLLP_VALUE(RCC_OscInitStruct->PLL.PLLP));
        assert_param(IS_RCC_PLLQ_VALUE(RCC_OscInitStruct->PLL.PLLQ));

        /* Disable the main PLL. */
        __HAL_RCC_PLL_DISABLE();
 8003e0a:	4a67      	ldr	r2, [pc, #412]	; (8003fa8 <HAL_RCC_OscConfig+0x2d4>)
 8003e0c:	2100      	movs	r1, #0
      if((RCC_OscInitStruct->PLL.PLLState) == RCC_PLL_ON)
 8003e0e:	2802      	cmp	r0, #2
        __HAL_RCC_PLL_DISABLE();
 8003e10:	6011      	str	r1, [r2, #0]
      if((RCC_OscInitStruct->PLL.PLLState) == RCC_PLL_ON)
 8003e12:	f000 810b 	beq.w	800402c <HAL_RCC_OscConfig+0x358>
      {
        /* Disable the main PLL. */
        __HAL_RCC_PLL_DISABLE();

        /* Get Start Tick */
        tickstart = HAL_GetTick();
 8003e16:	f7fe f993 	bl	8002140 <HAL_GetTick>

        /* Wait till PLL is ready */
        while(__HAL_RCC_GET_FLAG(RCC_FLAG_PLLRDY) != RESET)
 8003e1a:	462c      	mov	r4, r5
        tickstart = HAL_GetTick();
 8003e1c:	4605      	mov	r5, r0
        while(__HAL_RCC_GET_FLAG(RCC_FLAG_PLLRDY) != RESET)
 8003e1e:	e004      	b.n	8003e2a <HAL_RCC_OscConfig+0x156>
        {
          if((HAL_GetTick() - tickstart ) > PLL_TIMEOUT_VALUE)
 8003e20:	f7fe f98e 	bl	8002140 <HAL_GetTick>
 8003e24:	1b40      	subs	r0, r0, r5
 8003e26:	2802      	cmp	r0, #2
 8003e28:	d87c      	bhi.n	8003f24 <HAL_RCC_OscConfig+0x250>
        while(__HAL_RCC_GET_FLAG(RCC_FLAG_PLLRDY) != RESET)
 8003e2a:	6823      	ldr	r3, [r4, #0]
 8003e2c:	019b      	lsls	r3, r3, #6
 8003e2e:	d4f7      	bmi.n	8003e20 <HAL_RCC_OscConfig+0x14c>
          return HAL_ERROR;
        }
      }
    }
  }
  return HAL_OK;
 8003e30:	2000      	movs	r0, #0
}
 8003e32:	b002      	add	sp, #8
 8003e34:	e8bd 81f0 	ldmia.w	sp!, {r4, r5, r6, r7, r8, pc}
    if((__HAL_RCC_GET_SYSCLK_SOURCE() == RCC_CFGR_SWS_HSI) ||\
 8003e38:	4a58      	ldr	r2, [pc, #352]	; (8003f9c <HAL_RCC_OscConfig+0x2c8>)
 8003e3a:	6891      	ldr	r1, [r2, #8]
 8003e3c:	f011 0f0c 	tst.w	r1, #12
 8003e40:	d024      	beq.n	8003e8c <HAL_RCC_OscConfig+0x1b8>
      ((__HAL_RCC_GET_SYSCLK_SOURCE() == RCC_CFGR_SWS_PLL) && ((RCC->PLLCFGR & RCC_PLLCFGR_PLLSRC) == RCC_PLLCFGR_PLLSRC_HSI)))
 8003e42:	6891      	ldr	r1, [r2, #8]
 8003e44:	f001 010c 	and.w	r1, r1, #12
    if((__HAL_RCC_GET_SYSCLK_SOURCE() == RCC_CFGR_SWS_HSI) ||\
 8003e48:	2908      	cmp	r1, #8
 8003e4a:	d01c      	beq.n	8003e86 <HAL_RCC_OscConfig+0x1b2>
      if((RCC_OscInitStruct->HSIState)!= RCC_HSI_OFF)
 8003e4c:	68e3      	ldr	r3, [r4, #12]
 8003e4e:	2b00      	cmp	r3, #0
 8003e50:	f000 8092 	beq.w	8003f78 <HAL_RCC_OscConfig+0x2a4>
        __HAL_RCC_HSI_ENABLE();
 8003e54:	4b55      	ldr	r3, [pc, #340]	; (8003fac <HAL_RCC_OscConfig+0x2d8>)
        while(__HAL_RCC_GET_FLAG(RCC_FLAG_HSIRDY) == RESET)
 8003e56:	4d51      	ldr	r5, [pc, #324]	; (8003f9c <HAL_RCC_OscConfig+0x2c8>)
        __HAL_RCC_HSI_ENABLE();
 8003e58:	2201      	movs	r2, #1
 8003e5a:	601a      	str	r2, [r3, #0]
        tickstart = HAL_GetTick();
 8003e5c:	f7fe f970 	bl	8002140 <HAL_GetTick>
 8003e60:	4606      	mov	r6, r0
        while(__HAL_RCC_GET_FLAG(RCC_FLAG_HSIRDY) == RESET)
 8003e62:	e004      	b.n	8003e6e <HAL_RCC_OscConfig+0x19a>
          if((HAL_GetTick() - tickstart ) > HSI_TIMEOUT_VALUE)
 8003e64:	f7fe f96c 	bl	8002140 <HAL_GetTick>
 8003e68:	1b80      	subs	r0, r0, r6
 8003e6a:	2802      	cmp	r0, #2
 8003e6c:	d85a      	bhi.n	8003f24 <HAL_RCC_OscConfig+0x250>
        while(__HAL_RCC_GET_FLAG(RCC_FLAG_HSIRDY) == RESET)
 8003e6e:	682b      	ldr	r3, [r5, #0]
 8003e70:	0798      	lsls	r0, r3, #30
 8003e72:	d5f7      	bpl.n	8003e64 <HAL_RCC_OscConfig+0x190>
        __HAL_RCC_HSI_CALIBRATIONVALUE_ADJUST(RCC_OscInitStruct->HSICalibrationValue);
 8003e74:	682b      	ldr	r3, [r5, #0]
 8003e76:	6922      	ldr	r2, [r4, #16]
 8003e78:	f023 03f8 	bic.w	r3, r3, #248	; 0xf8
 8003e7c:	ea43 03c2 	orr.w	r3, r3, r2, lsl #3
 8003e80:	602b      	str	r3, [r5, #0]
 8003e82:	6823      	ldr	r3, [r4, #0]
 8003e84:	e762      	b.n	8003d4c <HAL_RCC_OscConfig+0x78>
      ((__HAL_RCC_GET_SYSCLK_SOURCE() == RCC_CFGR_SWS_PLL) && ((RCC->PLLCFGR & RCC_PLLCFGR_PLLSRC) == RCC_PLLCFGR_PLLSRC_HSI)))
 8003e86:	6852      	ldr	r2, [r2, #4]
 8003e88:	0256      	lsls	r6, r2, #9
 8003e8a:	d4df      	bmi.n	8003e4c <HAL_RCC_OscConfig+0x178>
      if((__HAL_RCC_GET_FLAG(RCC_FLAG_HSIRDY) != RESET) && (RCC_OscInitStruct->HSIState != RCC_HSI_ON))
 8003e8c:	4a43      	ldr	r2, [pc, #268]	; (8003f9c <HAL_RCC_OscConfig+0x2c8>)
 8003e8e:	6812      	ldr	r2, [r2, #0]
 8003e90:	0795      	lsls	r5, r2, #30
 8003e92:	d54b      	bpl.n	8003f2c <HAL_RCC_OscConfig+0x258>
 8003e94:	68e2      	ldr	r2, [r4, #12]
 8003e96:	2a01      	cmp	r2, #1
 8003e98:	d048      	beq.n	8003f2c <HAL_RCC_OscConfig+0x258>
        return HAL_ERROR;
 8003e9a:	2001      	movs	r0, #1
}
 8003e9c:	b002      	add	sp, #8
 8003e9e:	e8bd 81f0 	ldmia.w	sp!, {r4, r5, r6, r7, r8, pc}
      __HAL_RCC_LSI_DISABLE();
 8003ea2:	4a3f      	ldr	r2, [pc, #252]	; (8003fa0 <HAL_RCC_OscConfig+0x2cc>)
      while(__HAL_RCC_GET_FLAG(RCC_FLAG_LSIRDY) != RESET)
 8003ea4:	4d3d      	ldr	r5, [pc, #244]	; (8003f9c <HAL_RCC_OscConfig+0x2c8>)
      __HAL_RCC_LSI_DISABLE();
 8003ea6:	6013      	str	r3, [r2, #0]
      tickstart = HAL_GetTick();
 8003ea8:	f7fe f94a 	bl	8002140 <HAL_GetTick>
 8003eac:	4606      	mov	r6, r0
      while(__HAL_RCC_GET_FLAG(RCC_FLAG_LSIRDY) != RESET)
 8003eae:	e004      	b.n	8003eba <HAL_RCC_OscConfig+0x1e6>
        if((HAL_GetTick() - tickstart ) > LSI_TIMEOUT_VALUE)
 8003eb0:	f7fe f946 	bl	8002140 <HAL_GetTick>
 8003eb4:	1b80      	subs	r0, r0, r6
 8003eb6:	2802      	cmp	r0, #2
 8003eb8:	d834      	bhi.n	8003f24 <HAL_RCC_OscConfig+0x250>
      while(__HAL_RCC_GET_FLAG(RCC_FLAG_LSIRDY) != RESET)
 8003eba:	6f6b      	ldr	r3, [r5, #116]	; 0x74
 8003ebc:	079f      	lsls	r7, r3, #30
 8003ebe:	d4f7      	bmi.n	8003eb0 <HAL_RCC_OscConfig+0x1dc>
 8003ec0:	e75b      	b.n	8003d7a <HAL_RCC_OscConfig+0xa6>
      ((__HAL_RCC_GET_SYSCLK_SOURCE() == RCC_CFGR_SWS_PLL) && ((RCC->PLLCFGR & RCC_PLLCFGR_PLLSRC) == RCC_PLLCFGR_PLLSRC_HSE)))
 8003ec2:	684a      	ldr	r2, [r1, #4]
 8003ec4:	0250      	lsls	r0, r2, #9
 8003ec6:	f57f af1c 	bpl.w	8003d02 <HAL_RCC_OscConfig+0x2e>
      if((__HAL_RCC_GET_FLAG(RCC_FLAG_HSERDY) != RESET) && (RCC_OscInitStruct->HSEState == RCC_HSE_OFF))
 8003eca:	4a34      	ldr	r2, [pc, #208]	; (8003f9c <HAL_RCC_OscConfig+0x2c8>)
 8003ecc:	6812      	ldr	r2, [r2, #0]
 8003ece:	0391      	lsls	r1, r2, #14
 8003ed0:	f57f af3a 	bpl.w	8003d48 <HAL_RCC_OscConfig+0x74>
 8003ed4:	6862      	ldr	r2, [r4, #4]
 8003ed6:	2a00      	cmp	r2, #0
 8003ed8:	f47f af36 	bne.w	8003d48 <HAL_RCC_OscConfig+0x74>
 8003edc:	e7dd      	b.n	8003e9a <HAL_RCC_OscConfig+0x1c6>
      __HAL_RCC_HSE_CONFIG(RCC_OscInitStruct->HSEState);
 8003ede:	4a2f      	ldr	r2, [pc, #188]	; (8003f9c <HAL_RCC_OscConfig+0x2c8>)
 8003ee0:	6813      	ldr	r3, [r2, #0]
 8003ee2:	f443 3380 	orr.w	r3, r3, #65536	; 0x10000
 8003ee6:	6013      	str	r3, [r2, #0]
        tickstart = HAL_GetTick();
 8003ee8:	f7fe f92a 	bl	8002140 <HAL_GetTick>
        while(__HAL_RCC_GET_FLAG(RCC_FLAG_HSERDY) == RESET)
 8003eec:	4d2b      	ldr	r5, [pc, #172]	; (8003f9c <HAL_RCC_OscConfig+0x2c8>)
        tickstart = HAL_GetTick();
 8003eee:	4606      	mov	r6, r0
        while(__HAL_RCC_GET_FLAG(RCC_FLAG_HSERDY) == RESET)
 8003ef0:	e004      	b.n	8003efc <HAL_RCC_OscConfig+0x228>
          if((HAL_GetTick() - tickstart ) > HSE_TIMEOUT_VALUE)
 8003ef2:	f7fe f925 	bl	8002140 <HAL_GetTick>
 8003ef6:	1b80      	subs	r0, r0, r6
 8003ef8:	2864      	cmp	r0, #100	; 0x64
 8003efa:	d813      	bhi.n	8003f24 <HAL_RCC_OscConfig+0x250>
        while(__HAL_RCC_GET_FLAG(RCC_FLAG_HSERDY) == RESET)
 8003efc:	682b      	ldr	r3, [r5, #0]
 8003efe:	039a      	lsls	r2, r3, #14
 8003f00:	d5f7      	bpl.n	8003ef2 <HAL_RCC_OscConfig+0x21e>
 8003f02:	e720      	b.n	8003d46 <HAL_RCC_OscConfig+0x72>
      SET_BIT(PWR->CR, PWR_CR_DBP);
 8003f04:	682a      	ldr	r2, [r5, #0]
 8003f06:	f442 7280 	orr.w	r2, r2, #256	; 0x100
 8003f0a:	602a      	str	r2, [r5, #0]
      tickstart = HAL_GetTick();
 8003f0c:	f7fe f918 	bl	8002140 <HAL_GetTick>
 8003f10:	4607      	mov	r7, r0
      while(HAL_IS_BIT_CLR(PWR->CR, PWR_CR_DBP))
 8003f12:	682b      	ldr	r3, [r5, #0]
 8003f14:	05da      	lsls	r2, r3, #23
 8003f16:	f53f af49 	bmi.w	8003dac <HAL_RCC_OscConfig+0xd8>
        if((HAL_GetTick() - tickstart) > RCC_DBP_TIMEOUT_VALUE)
 8003f1a:	f7fe f911 	bl	8002140 <HAL_GetTick>
 8003f1e:	1bc0      	subs	r0, r0, r7
 8003f20:	2802      	cmp	r0, #2
 8003f22:	d9f6      	bls.n	8003f12 <HAL_RCC_OscConfig+0x23e>
            return HAL_TIMEOUT;
 8003f24:	2003      	movs	r0, #3
}
 8003f26:	b002      	add	sp, #8
 8003f28:	e8bd 81f0 	ldmia.w	sp!, {r4, r5, r6, r7, r8, pc}
        __HAL_RCC_HSI_CALIBRATIONVALUE_ADJUST(RCC_OscInitStruct->HSICalibrationValue);
 8003f2c:	491b      	ldr	r1, [pc, #108]	; (8003f9c <HAL_RCC_OscConfig+0x2c8>)
 8003f2e:	6920      	ldr	r0, [r4, #16]
 8003f30:	680a      	ldr	r2, [r1, #0]
 8003f32:	f022 02f8 	bic.w	r2, r2, #248	; 0xf8
 8003f36:	ea42 02c0 	orr.w	r2, r2, r0, lsl #3
 8003f3a:	600a      	str	r2, [r1, #0]
      if((__HAL_RCC_GET_FLAG(RCC_FLAG_HSIRDY) != RESET) && (RCC_OscInitStruct->HSIState != RCC_HSI_ON))
 8003f3c:	e706      	b.n	8003d4c <HAL_RCC_OscConfig+0x78>
    return HAL_ERROR;
 8003f3e:	2001      	movs	r0, #1
}
 8003f40:	4770      	bx	lr
    FlagStatus       pwrclkchanged = RESET;
 8003f42:	2600      	movs	r6, #0
 8003f44:	e72d      	b.n	8003da2 <HAL_RCC_OscConfig+0xce>
    __HAL_RCC_LSE_CONFIG(RCC_OscInitStruct->LSEState);
 8003f46:	4a15      	ldr	r2, [pc, #84]	; (8003f9c <HAL_RCC_OscConfig+0x2c8>)
 8003f48:	6f13      	ldr	r3, [r2, #112]	; 0x70
 8003f4a:	f043 0301 	orr.w	r3, r3, #1
 8003f4e:	6713      	str	r3, [r2, #112]	; 0x70
      tickstart = HAL_GetTick();
 8003f50:	f7fe f8f6 	bl	8002140 <HAL_GetTick>
      while(__HAL_RCC_GET_FLAG(RCC_FLAG_LSERDY) == RESET)
 8003f54:	4d11      	ldr	r5, [pc, #68]	; (8003f9c <HAL_RCC_OscConfig+0x2c8>)
      tickstart = HAL_GetTick();
 8003f56:	4680      	mov	r8, r0
        if((HAL_GetTick() - tickstart ) > RCC_LSE_TIMEOUT_VALUE)
 8003f58:	f241 3788 	movw	r7, #5000	; 0x1388
      while(__HAL_RCC_GET_FLAG(RCC_FLAG_LSERDY) == RESET)
 8003f5c:	e005      	b.n	8003f6a <HAL_RCC_OscConfig+0x296>
        if((HAL_GetTick() - tickstart ) > RCC_LSE_TIMEOUT_VALUE)
 8003f5e:	f7fe f8ef 	bl	8002140 <HAL_GetTick>
 8003f62:	eba0 0008 	sub.w	r0, r0, r8
 8003f66:	42b8      	cmp	r0, r7
 8003f68:	d8dc      	bhi.n	8003f24 <HAL_RCC_OscConfig+0x250>
      while(__HAL_RCC_GET_FLAG(RCC_FLAG_LSERDY) == RESET)
 8003f6a:	6f2b      	ldr	r3, [r5, #112]	; 0x70
 8003f6c:	079b      	lsls	r3, r3, #30
 8003f6e:	d5f6      	bpl.n	8003f5e <HAL_RCC_OscConfig+0x28a>
    if(pwrclkchanged == SET)
 8003f70:	2e00      	cmp	r6, #0
 8003f72:	f43f af41 	beq.w	8003df8 <HAL_RCC_OscConfig+0x124>
 8003f76:	e01b      	b.n	8003fb0 <HAL_RCC_OscConfig+0x2dc>
        __HAL_RCC_HSI_DISABLE();
 8003f78:	4a0c      	ldr	r2, [pc, #48]	; (8003fac <HAL_RCC_OscConfig+0x2d8>)
        while(__HAL_RCC_GET_FLAG(RCC_FLAG_HSIRDY) != RESET)
 8003f7a:	4d08      	ldr	r5, [pc, #32]	; (8003f9c <HAL_RCC_OscConfig+0x2c8>)
        __HAL_RCC_HSI_DISABLE();
 8003f7c:	6013      	str	r3, [r2, #0]
        tickstart = HAL_GetTick();
 8003f7e:	f7fe f8df 	bl	8002140 <HAL_GetTick>
 8003f82:	4606      	mov	r6, r0
        while(__HAL_RCC_GET_FLAG(RCC_FLAG_HSIRDY) != RESET)
 8003f84:	e004      	b.n	8003f90 <HAL_RCC_OscConfig+0x2bc>
          if((HAL_GetTick() - tickstart ) > HSI_TIMEOUT_VALUE)
 8003f86:	f7fe f8db 	bl	8002140 <HAL_GetTick>
 8003f8a:	1b80      	subs	r0, r0, r6
 8003f8c:	2802      	cmp	r0, #2
 8003f8e:	d8c9      	bhi.n	8003f24 <HAL_RCC_OscConfig+0x250>
        while(__HAL_RCC_GET_FLAG(RCC_FLAG_HSIRDY) != RESET)
 8003f90:	682b      	ldr	r3, [r5, #0]
 8003f92:	0799      	lsls	r1, r3, #30
 8003f94:	d4f7      	bmi.n	8003f86 <HAL_RCC_OscConfig+0x2b2>
 8003f96:	6823      	ldr	r3, [r4, #0]
 8003f98:	e6d8      	b.n	8003d4c <HAL_RCC_OscConfig+0x78>
 8003f9a:	bf00      	nop
 8003f9c:	40023800 	.word	0x40023800
 8003fa0:	42470e80 	.word	0x42470e80
 8003fa4:	40007000 	.word	0x40007000
 8003fa8:	42470060 	.word	0x42470060
 8003fac:	42470000 	.word	0x42470000
      __HAL_RCC_PWR_CLK_DISABLE();
 8003fb0:	4a35      	ldr	r2, [pc, #212]	; (8004088 <HAL_RCC_OscConfig+0x3b4>)
 8003fb2:	6c13      	ldr	r3, [r2, #64]	; 0x40
 8003fb4:	f023 5380 	bic.w	r3, r3, #268435456	; 0x10000000
 8003fb8:	6413      	str	r3, [r2, #64]	; 0x40
 8003fba:	e71d      	b.n	8003df8 <HAL_RCC_OscConfig+0x124>
      if((RCC_OscInitStruct->PLL.PLLState) == RCC_PLL_OFF)
 8003fbc:	2801      	cmp	r0, #1
 8003fbe:	f43f af6d 	beq.w	8003e9c <HAL_RCC_OscConfig+0x1c8>
        pll_config = RCC->CFGR;
 8003fc2:	68ab      	ldr	r3, [r5, #8]
        if((READ_BIT(pll_config, RCC_PLLCFGR_PLLSRC) != RCC_OscInitStruct->PLL.PLLSource) ||
 8003fc4:	69e2      	ldr	r2, [r4, #28]
 8003fc6:	f403 0180 	and.w	r1, r3, #4194304	; 0x400000
 8003fca:	4291      	cmp	r1, r2
 8003fcc:	f47f af65 	bne.w	8003e9a <HAL_RCC_OscConfig+0x1c6>
 8003fd0:	6a22      	ldr	r2, [r4, #32]
           (READ_BIT(pll_config, RCC_PLLCFGR_PLLM) != RCC_OscInitStruct->PLL.PLLM) ||
 8003fd2:	f003 013f 	and.w	r1, r3, #63	; 0x3f
        if((READ_BIT(pll_config, RCC_PLLCFGR_PLLSRC) != RCC_OscInitStruct->PLL.PLLSource) ||
 8003fd6:	4291      	cmp	r1, r2
 8003fd8:	f47f af5f 	bne.w	8003e9a <HAL_RCC_OscConfig+0x1c6>
           (READ_BIT(pll_config, RCC_PLLCFGR_PLLN) != RCC_OscInitStruct->PLL.PLLN) ||
 8003fdc:	f647 72c0 	movw	r2, #32704	; 0x7fc0
           (READ_BIT(pll_config, RCC_PLLCFGR_PLLM) != RCC_OscInitStruct->PLL.PLLM) ||
 8003fe0:	6a61      	ldr	r1, [r4, #36]	; 0x24
           (READ_BIT(pll_config, RCC_PLLCFGR_PLLN) != RCC_OscInitStruct->PLL.PLLN) ||
 8003fe2:	401a      	ands	r2, r3
           (READ_BIT(pll_config, RCC_PLLCFGR_PLLM) != RCC_OscInitStruct->PLL.PLLM) ||
 8003fe4:	428a      	cmp	r2, r1
 8003fe6:	f47f af58 	bne.w	8003e9a <HAL_RCC_OscConfig+0x1c6>
           (READ_BIT(pll_config, RCC_PLLCFGR_PLLN) != RCC_OscInitStruct->PLL.PLLN) ||
 8003fea:	6aa2      	ldr	r2, [r4, #40]	; 0x28
           (READ_BIT(pll_config, RCC_PLLCFGR_PLLP) != RCC_OscInitStruct->PLL.PLLP) ||
 8003fec:	f403 3140 	and.w	r1, r3, #196608	; 0x30000
           (READ_BIT(pll_config, RCC_PLLCFGR_PLLN) != RCC_OscInitStruct->PLL.PLLN) ||
 8003ff0:	4291      	cmp	r1, r2
 8003ff2:	f47f af52 	bne.w	8003e9a <HAL_RCC_OscConfig+0x1c6>
           (READ_BIT(pll_config, RCC_PLLCFGR_PLLP) != RCC_OscInitStruct->PLL.PLLP) ||
 8003ff6:	6ae0      	ldr	r0, [r4, #44]	; 0x2c
           (READ_BIT(pll_config, RCC_PLLCFGR_PLLQ) != RCC_OscInitStruct->PLL.PLLQ))
 8003ff8:	f003 6370 	and.w	r3, r3, #251658240	; 0xf000000
    return HAL_ERROR;
 8003ffc:	1a18      	subs	r0, r3, r0
 8003ffe:	bf18      	it	ne
 8004000:	2001      	movne	r0, #1
 8004002:	e74b      	b.n	8003e9c <HAL_RCC_OscConfig+0x1c8>
      __HAL_RCC_HSE_CONFIG(RCC_OscInitStruct->HSEState);
 8004004:	4b20      	ldr	r3, [pc, #128]	; (8004088 <HAL_RCC_OscConfig+0x3b4>)
 8004006:	681a      	ldr	r2, [r3, #0]
 8004008:	f442 2280 	orr.w	r2, r2, #262144	; 0x40000
 800400c:	601a      	str	r2, [r3, #0]
 800400e:	681a      	ldr	r2, [r3, #0]
 8004010:	f442 3280 	orr.w	r2, r2, #65536	; 0x10000
 8004014:	601a      	str	r2, [r3, #0]
 8004016:	e767      	b.n	8003ee8 <HAL_RCC_OscConfig+0x214>
    __HAL_RCC_LSE_CONFIG(RCC_OscInitStruct->LSEState);
 8004018:	4b1b      	ldr	r3, [pc, #108]	; (8004088 <HAL_RCC_OscConfig+0x3b4>)
 800401a:	6f1a      	ldr	r2, [r3, #112]	; 0x70
 800401c:	f042 0204 	orr.w	r2, r2, #4
 8004020:	671a      	str	r2, [r3, #112]	; 0x70
 8004022:	6f1a      	ldr	r2, [r3, #112]	; 0x70
 8004024:	f042 0201 	orr.w	r2, r2, #1
 8004028:	671a      	str	r2, [r3, #112]	; 0x70
 800402a:	e791      	b.n	8003f50 <HAL_RCC_OscConfig+0x27c>
        tickstart = HAL_GetTick();
 800402c:	f7fe f888 	bl	8002140 <HAL_GetTick>
 8004030:	4606      	mov	r6, r0
        while(__HAL_RCC_GET_FLAG(RCC_FLAG_PLLRDY) != RESET)
 8004032:	e005      	b.n	8004040 <HAL_RCC_OscConfig+0x36c>
          if((HAL_GetTick() - tickstart ) > PLL_TIMEOUT_VALUE)
 8004034:	f7fe f884 	bl	8002140 <HAL_GetTick>
 8004038:	1b80      	subs	r0, r0, r6
 800403a:	2802      	cmp	r0, #2
 800403c:	f63f af72 	bhi.w	8003f24 <HAL_RCC_OscConfig+0x250>
        while(__HAL_RCC_GET_FLAG(RCC_FLAG_PLLRDY) != RESET)
 8004040:	682b      	ldr	r3, [r5, #0]
 8004042:	0199      	lsls	r1, r3, #6
 8004044:	d4f6      	bmi.n	8004034 <HAL_RCC_OscConfig+0x360>
        WRITE_REG(RCC->PLLCFGR, (RCC_OscInitStruct->PLL.PLLSource                                            | \
 8004046:	e9d4 3607 	ldrd	r3, r6, [r4, #28]
 800404a:	e9d4 0209 	ldrd	r0, r2, [r4, #36]	; 0x24
 800404e:	6ae1      	ldr	r1, [r4, #44]	; 0x2c
        while(__HAL_RCC_GET_FLAG(RCC_FLAG_PLLRDY) == RESET)
 8004050:	4c0d      	ldr	r4, [pc, #52]	; (8004088 <HAL_RCC_OscConfig+0x3b4>)
        WRITE_REG(RCC->PLLCFGR, (RCC_OscInitStruct->PLL.PLLSource                                            | \
 8004052:	4333      	orrs	r3, r6
 8004054:	ea43 1380 	orr.w	r3, r3, r0, lsl #6
 8004058:	0852      	lsrs	r2, r2, #1
 800405a:	ea43 6301 	orr.w	r3, r3, r1, lsl #24
 800405e:	3a01      	subs	r2, #1
        __HAL_RCC_PLL_ENABLE();
 8004060:	490a      	ldr	r1, [pc, #40]	; (800408c <HAL_RCC_OscConfig+0x3b8>)
        WRITE_REG(RCC->PLLCFGR, (RCC_OscInitStruct->PLL.PLLSource                                            | \
 8004062:	ea43 4302 	orr.w	r3, r3, r2, lsl #16
        __HAL_RCC_PLL_ENABLE();
 8004066:	2201      	movs	r2, #1
        WRITE_REG(RCC->PLLCFGR, (RCC_OscInitStruct->PLL.PLLSource                                            | \
 8004068:	606b      	str	r3, [r5, #4]
        __HAL_RCC_PLL_ENABLE();
 800406a:	600a      	str	r2, [r1, #0]
        tickstart = HAL_GetTick();
 800406c:	f7fe f868 	bl	8002140 <HAL_GetTick>
 8004070:	4605      	mov	r5, r0
        while(__HAL_RCC_GET_FLAG(RCC_FLAG_PLLRDY) == RESET)
 8004072:	e005      	b.n	8004080 <HAL_RCC_OscConfig+0x3ac>
          if((HAL_GetTick() - tickstart ) > PLL_TIMEOUT_VALUE)
 8004074:	f7fe f864 	bl	8002140 <HAL_GetTick>
 8004078:	1b40      	subs	r0, r0, r5
 800407a:	2802      	cmp	r0, #2
 800407c:	f63f af52 	bhi.w	8003f24 <HAL_RCC_OscConfig+0x250>
        while(__HAL_RCC_GET_FLAG(RCC_FLAG_PLLRDY) == RESET)
 8004080:	6823      	ldr	r3, [r4, #0]
 8004082:	019a      	lsls	r2, r3, #6
 8004084:	d5f6      	bpl.n	8004074 <HAL_RCC_OscConfig+0x3a0>
 8004086:	e6d3      	b.n	8003e30 <HAL_RCC_OscConfig+0x15c>
 8004088:	40023800 	.word	0x40023800
 800408c:	42470060 	.word	0x42470060

08004090 <HAL_RCC_GetSysClockFreq>:
{
  uint32_t pllm = 0U, pllvco = 0U, pllp = 0U;
  uint32_t sysclockfreq = 0U;

  /* Get SYSCLK source -------------------------------------------------------*/
  switch (RCC->CFGR & RCC_CFGR_SWS)
 8004090:	4917      	ldr	r1, [pc, #92]	; (80040f0 <HAL_RCC_GetSysClockFreq+0x60>)
{
 8004092:	b508      	push	{r3, lr}
  switch (RCC->CFGR & RCC_CFGR_SWS)
 8004094:	688b      	ldr	r3, [r1, #8]
 8004096:	f003 030c 	and.w	r3, r3, #12
 800409a:	2b04      	cmp	r3, #4
 800409c:	d01b      	beq.n	80040d6 <HAL_RCC_GetSysClockFreq+0x46>
 800409e:	2b08      	cmp	r3, #8
 80040a0:	d117      	bne.n	80040d2 <HAL_RCC_GetSysClockFreq+0x42>
    }
    case RCC_CFGR_SWS_PLL:  /* PLL used as system clock  source */
    {
      /* PLL_VCO = (HSE_VALUE or HSI_VALUE / PLLM) * PLLN
      SYSCLK = PLL_VCO / PLLP */
      pllm = RCC->PLLCFGR & RCC_PLLCFGR_PLLM;
 80040a2:	684a      	ldr	r2, [r1, #4]
      if(__HAL_RCC_GET_PLL_OSCSOURCE() != RCC_PLLSOURCE_HSI)
 80040a4:	684b      	ldr	r3, [r1, #4]
 80040a6:	f413 0380 	ands.w	r3, r3, #4194304	; 0x400000
      pllm = RCC->PLLCFGR & RCC_PLLCFGR_PLLM;
 80040aa:	f002 023f 	and.w	r2, r2, #63	; 0x3f
      if(__HAL_RCC_GET_PLL_OSCSOURCE() != RCC_PLLSOURCE_HSI)
 80040ae:	d114      	bne.n	80040da <HAL_RCC_GetSysClockFreq+0x4a>
        pllvco = (uint32_t) ((((uint64_t) HSE_VALUE * ((uint64_t) ((RCC->PLLCFGR & RCC_PLLCFGR_PLLN) >> RCC_PLLCFGR_PLLN_Pos)))) / (uint64_t)pllm);
      }
      else
      {
        /* HSI used as PLL clock source */
        pllvco = (uint32_t) ((((uint64_t) HSI_VALUE * ((uint64_t) ((RCC->PLLCFGR & RCC_PLLCFGR_PLLN) >> RCC_PLLCFGR_PLLN_Pos)))) / (uint64_t)pllm);
 80040b0:	6849      	ldr	r1, [r1, #4]
 80040b2:	4810      	ldr	r0, [pc, #64]	; (80040f4 <HAL_RCC_GetSysClockFreq+0x64>)
 80040b4:	f3c1 1188 	ubfx	r1, r1, #6, #9
 80040b8:	fba1 0100 	umull	r0, r1, r1, r0
 80040bc:	f7fc fde4 	bl	8000c88 <__aeabi_uldivmod>
      }
      pllp = ((((RCC->PLLCFGR & RCC_PLLCFGR_PLLP) >> RCC_PLLCFGR_PLLP_Pos) + 1U) *2U);
 80040c0:	4b0b      	ldr	r3, [pc, #44]	; (80040f0 <HAL_RCC_GetSysClockFreq+0x60>)
 80040c2:	685b      	ldr	r3, [r3, #4]
 80040c4:	f3c3 4301 	ubfx	r3, r3, #16, #2
 80040c8:	3301      	adds	r3, #1
 80040ca:	005b      	lsls	r3, r3, #1

      sysclockfreq = pllvco/pllp;
 80040cc:	fbb0 f0f3 	udiv	r0, r0, r3
      sysclockfreq = HSI_VALUE;
      break;
    }
  }
  return sysclockfreq;
}
 80040d0:	bd08      	pop	{r3, pc}
      sysclockfreq = HSI_VALUE;
 80040d2:	4808      	ldr	r0, [pc, #32]	; (80040f4 <HAL_RCC_GetSysClockFreq+0x64>)
}
 80040d4:	bd08      	pop	{r3, pc}
      sysclockfreq = HSE_VALUE;
 80040d6:	4808      	ldr	r0, [pc, #32]	; (80040f8 <HAL_RCC_GetSysClockFreq+0x68>)
}
 80040d8:	bd08      	pop	{r3, pc}
        pllvco = (uint32_t) ((((uint64_t) HSE_VALUE * ((uint64_t) ((RCC->PLLCFGR & RCC_PLLCFGR_PLLN) >> RCC_PLLCFGR_PLLN_Pos)))) / (uint64_t)pllm);
 80040da:	684b      	ldr	r3, [r1, #4]
 80040dc:	4806      	ldr	r0, [pc, #24]	; (80040f8 <HAL_RCC_GetSysClockFreq+0x68>)
 80040de:	f3c3 1388 	ubfx	r3, r3, #6, #9
 80040e2:	fba3 0100 	umull	r0, r1, r3, r0
 80040e6:	2300      	movs	r3, #0
 80040e8:	f7fc fdce 	bl	8000c88 <__aeabi_uldivmod>
 80040ec:	e7e8      	b.n	80040c0 <HAL_RCC_GetSysClockFreq+0x30>
 80040ee:	bf00      	nop
 80040f0:	40023800 	.word	0x40023800
 80040f4:	00f42400 	.word	0x00f42400
 80040f8:	007a1200 	.word	0x007a1200

080040fc <HAL_RCC_ClockConfig>:
  if(RCC_ClkInitStruct == NULL)
 80040fc:	b160      	cbz	r0, 8004118 <HAL_RCC_ClockConfig+0x1c>
  if(FLatency > __HAL_FLASH_GET_LATENCY())
 80040fe:	4a49      	ldr	r2, [pc, #292]	; (8004224 <HAL_RCC_ClockConfig+0x128>)
 8004100:	6813      	ldr	r3, [r2, #0]
 8004102:	f003 030f 	and.w	r3, r3, #15
 8004106:	428b      	cmp	r3, r1
 8004108:	d208      	bcs.n	800411c <HAL_RCC_ClockConfig+0x20>
    __HAL_FLASH_SET_LATENCY(FLatency);
 800410a:	b2cb      	uxtb	r3, r1
 800410c:	7013      	strb	r3, [r2, #0]
    if(__HAL_FLASH_GET_LATENCY() != FLatency)
 800410e:	6813      	ldr	r3, [r2, #0]
 8004110:	f003 030f 	and.w	r3, r3, #15
 8004114:	428b      	cmp	r3, r1
 8004116:	d001      	beq.n	800411c <HAL_RCC_ClockConfig+0x20>
    return HAL_ERROR;
 8004118:	2001      	movs	r0, #1
}
 800411a:	4770      	bx	lr
  if(((RCC_ClkInitStruct->ClockType) & RCC_CLOCKTYPE_HCLK) == RCC_CLOCKTYPE_HCLK)
 800411c:	6803      	ldr	r3, [r0, #0]
{
 800411e:	e92d 41f0 	stmdb	sp!, {r4, r5, r6, r7, r8, lr}
  if(((RCC_ClkInitStruct->ClockType) & RCC_CLOCKTYPE_HCLK) == RCC_CLOCKTYPE_HCLK)
 8004122:	079d      	lsls	r5, r3, #30
 8004124:	d514      	bpl.n	8004150 <HAL_RCC_ClockConfig+0x54>
    if(((RCC_ClkInitStruct->ClockType) & RCC_CLOCKTYPE_PCLK1) == RCC_CLOCKTYPE_PCLK1)
 8004126:	075c      	lsls	r4, r3, #29
 8004128:	d504      	bpl.n	8004134 <HAL_RCC_ClockConfig+0x38>
      MODIFY_REG(RCC->CFGR, RCC_CFGR_PPRE1, RCC_HCLK_DIV16);
 800412a:	4c3f      	ldr	r4, [pc, #252]	; (8004228 <HAL_RCC_ClockConfig+0x12c>)
 800412c:	68a2      	ldr	r2, [r4, #8]
 800412e:	f442 52e0 	orr.w	r2, r2, #7168	; 0x1c00
 8004132:	60a2      	str	r2, [r4, #8]
    if(((RCC_ClkInitStruct->ClockType) & RCC_CLOCKTYPE_PCLK2) == RCC_CLOCKTYPE_PCLK2)
 8004134:	071a      	lsls	r2, r3, #28
 8004136:	d504      	bpl.n	8004142 <HAL_RCC_ClockConfig+0x46>
      MODIFY_REG(RCC->CFGR, RCC_CFGR_PPRE2, (RCC_HCLK_DIV16 << 3));
 8004138:	4c3b      	ldr	r4, [pc, #236]	; (8004228 <HAL_RCC_ClockConfig+0x12c>)
 800413a:	68a2      	ldr	r2, [r4, #8]
 800413c:	f442 4260 	orr.w	r2, r2, #57344	; 0xe000
 8004140:	60a2      	str	r2, [r4, #8]
    MODIFY_REG(RCC->CFGR, RCC_CFGR_HPRE, RCC_ClkInitStruct->AHBCLKDivider);
 8004142:	4c39      	ldr	r4, [pc, #228]	; (8004228 <HAL_RCC_ClockConfig+0x12c>)
 8004144:	6885      	ldr	r5, [r0, #8]
 8004146:	68a2      	ldr	r2, [r4, #8]
 8004148:	f022 02f0 	bic.w	r2, r2, #240	; 0xf0
 800414c:	432a      	orrs	r2, r5
 800414e:	60a2      	str	r2, [r4, #8]
  if(((RCC_ClkInitStruct->ClockType) & RCC_CLOCKTYPE_SYSCLK) == RCC_CLOCKTYPE_SYSCLK)
 8004150:	07df      	lsls	r7, r3, #31
 8004152:	4604      	mov	r4, r0
 8004154:	460d      	mov	r5, r1
 8004156:	d522      	bpl.n	800419e <HAL_RCC_ClockConfig+0xa2>
    if(RCC_ClkInitStruct->SYSCLKSource == RCC_SYSCLKSOURCE_HSE)
 8004158:	6842      	ldr	r2, [r0, #4]
 800415a:	2a01      	cmp	r2, #1
 800415c:	d057      	beq.n	800420e <HAL_RCC_ClockConfig+0x112>
    else if((RCC_ClkInitStruct->SYSCLKSource == RCC_SYSCLKSOURCE_PLLCLK)   ||
 800415e:	1e93      	subs	r3, r2, #2
 8004160:	2b01      	cmp	r3, #1
      if(__HAL_RCC_GET_FLAG(RCC_FLAG_PLLRDY) == RESET)
 8004162:	4b31      	ldr	r3, [pc, #196]	; (8004228 <HAL_RCC_ClockConfig+0x12c>)
 8004164:	681b      	ldr	r3, [r3, #0]
    else if((RCC_ClkInitStruct->SYSCLKSource == RCC_SYSCLKSOURCE_PLLCLK)   ||
 8004166:	d959      	bls.n	800421c <HAL_RCC_ClockConfig+0x120>
      if(__HAL_RCC_GET_FLAG(RCC_FLAG_HSIRDY) == RESET)
 8004168:	0799      	lsls	r1, r3, #30
 800416a:	d525      	bpl.n	80041b8 <HAL_RCC_ClockConfig+0xbc>
    __HAL_RCC_SYSCLK_CONFIG(RCC_ClkInitStruct->SYSCLKSource);
 800416c:	4e2e      	ldr	r6, [pc, #184]	; (8004228 <HAL_RCC_ClockConfig+0x12c>)
 800416e:	68b3      	ldr	r3, [r6, #8]
 8004170:	f023 0303 	bic.w	r3, r3, #3
 8004174:	4313      	orrs	r3, r2
 8004176:	60b3      	str	r3, [r6, #8]
    tickstart = HAL_GetTick();
 8004178:	f7fd ffe2 	bl	8002140 <HAL_GetTick>
      if ((HAL_GetTick() - tickstart) > CLOCKSWITCH_TIMEOUT_VALUE)
 800417c:	f241 3788 	movw	r7, #5000	; 0x1388
    tickstart = HAL_GetTick();
 8004180:	4680      	mov	r8, r0
    while (__HAL_RCC_GET_SYSCLK_SOURCE() != (RCC_ClkInitStruct->SYSCLKSource << RCC_CFGR_SWS_Pos))
 8004182:	e005      	b.n	8004190 <HAL_RCC_ClockConfig+0x94>
      if ((HAL_GetTick() - tickstart) > CLOCKSWITCH_TIMEOUT_VALUE)
 8004184:	f7fd ffdc 	bl	8002140 <HAL_GetTick>
 8004188:	eba0 0008 	sub.w	r0, r0, r8
 800418c:	42b8      	cmp	r0, r7
 800418e:	d843      	bhi.n	8004218 <HAL_RCC_ClockConfig+0x11c>
    while (__HAL_RCC_GET_SYSCLK_SOURCE() != (RCC_ClkInitStruct->SYSCLKSource << RCC_CFGR_SWS_Pos))
 8004190:	68b3      	ldr	r3, [r6, #8]
 8004192:	6862      	ldr	r2, [r4, #4]
 8004194:	f003 030c 	and.w	r3, r3, #12
 8004198:	ebb3 0f82 	cmp.w	r3, r2, lsl #2
 800419c:	d1f2      	bne.n	8004184 <HAL_RCC_ClockConfig+0x88>
  if(FLatency < __HAL_FLASH_GET_LATENCY())
 800419e:	4a21      	ldr	r2, [pc, #132]	; (8004224 <HAL_RCC_ClockConfig+0x128>)
 80041a0:	6813      	ldr	r3, [r2, #0]
 80041a2:	f003 030f 	and.w	r3, r3, #15
 80041a6:	42ab      	cmp	r3, r5
 80041a8:	d909      	bls.n	80041be <HAL_RCC_ClockConfig+0xc2>
    __HAL_FLASH_SET_LATENCY(FLatency);
 80041aa:	b2eb      	uxtb	r3, r5
 80041ac:	7013      	strb	r3, [r2, #0]
    if(__HAL_FLASH_GET_LATENCY() != FLatency)
 80041ae:	6813      	ldr	r3, [r2, #0]
 80041b0:	f003 030f 	and.w	r3, r3, #15
 80041b4:	42ab      	cmp	r3, r5
 80041b6:	d002      	beq.n	80041be <HAL_RCC_ClockConfig+0xc2>
    return HAL_ERROR;
 80041b8:	2001      	movs	r0, #1
}
 80041ba:	e8bd 81f0 	ldmia.w	sp!, {r4, r5, r6, r7, r8, pc}
  if(((RCC_ClkInitStruct->ClockType) & RCC_CLOCKTYPE_PCLK1) == RCC_CLOCKTYPE_PCLK1)
 80041be:	6823      	ldr	r3, [r4, #0]
 80041c0:	075a      	lsls	r2, r3, #29
 80041c2:	d506      	bpl.n	80041d2 <HAL_RCC_ClockConfig+0xd6>
    MODIFY_REG(RCC->CFGR, RCC_CFGR_PPRE1, RCC_ClkInitStruct->APB1CLKDivider);
 80041c4:	4918      	ldr	r1, [pc, #96]	; (8004228 <HAL_RCC_ClockConfig+0x12c>)
 80041c6:	68e0      	ldr	r0, [r4, #12]
 80041c8:	688a      	ldr	r2, [r1, #8]
 80041ca:	f422 52e0 	bic.w	r2, r2, #7168	; 0x1c00
 80041ce:	4302      	orrs	r2, r0
 80041d0:	608a      	str	r2, [r1, #8]
  if(((RCC_ClkInitStruct->ClockType) & RCC_CLOCKTYPE_PCLK2) == RCC_CLOCKTYPE_PCLK2)
 80041d2:	071b      	lsls	r3, r3, #28
 80041d4:	d412      	bmi.n	80041fc <HAL_RCC_ClockConfig+0x100>
  SystemCoreClock = HAL_RCC_GetSysClockFreq() >> AHBPrescTable[(RCC->CFGR & RCC_CFGR_HPRE)>> RCC_CFGR_HPRE_Pos];
 80041d6:	f7ff ff5b 	bl	8004090 <HAL_RCC_GetSysClockFreq>
 80041da:	4b13      	ldr	r3, [pc, #76]	; (8004228 <HAL_RCC_ClockConfig+0x12c>)
 80041dc:	4c13      	ldr	r4, [pc, #76]	; (800422c <HAL_RCC_ClockConfig+0x130>)
 80041de:	689b      	ldr	r3, [r3, #8]
  HAL_InitTick (uwTickPrio);
 80041e0:	4913      	ldr	r1, [pc, #76]	; (8004230 <HAL_RCC_ClockConfig+0x134>)
  SystemCoreClock = HAL_RCC_GetSysClockFreq() >> AHBPrescTable[(RCC->CFGR & RCC_CFGR_HPRE)>> RCC_CFGR_HPRE_Pos];
 80041e2:	4a14      	ldr	r2, [pc, #80]	; (8004234 <HAL_RCC_ClockConfig+0x138>)
 80041e4:	f3c3 1303 	ubfx	r3, r3, #4, #4
 80041e8:	5ce3      	ldrb	r3, [r4, r3]
 80041ea:	fa20 f303 	lsr.w	r3, r0, r3
  HAL_InitTick (uwTickPrio);
 80041ee:	6808      	ldr	r0, [r1, #0]
  SystemCoreClock = HAL_RCC_GetSysClockFreq() >> AHBPrescTable[(RCC->CFGR & RCC_CFGR_HPRE)>> RCC_CFGR_HPRE_Pos];
 80041f0:	6013      	str	r3, [r2, #0]
  HAL_InitTick (uwTickPrio);
 80041f2:	f7fd ff5b 	bl	80020ac <HAL_InitTick>
  return HAL_OK;
 80041f6:	2000      	movs	r0, #0
}
 80041f8:	e8bd 81f0 	ldmia.w	sp!, {r4, r5, r6, r7, r8, pc}
    MODIFY_REG(RCC->CFGR, RCC_CFGR_PPRE2, ((RCC_ClkInitStruct->APB2CLKDivider) << 3U));
 80041fc:	4a0a      	ldr	r2, [pc, #40]	; (8004228 <HAL_RCC_ClockConfig+0x12c>)
 80041fe:	6921      	ldr	r1, [r4, #16]
 8004200:	6893      	ldr	r3, [r2, #8]
 8004202:	f423 4360 	bic.w	r3, r3, #57344	; 0xe000
 8004206:	ea43 03c1 	orr.w	r3, r3, r1, lsl #3
 800420a:	6093      	str	r3, [r2, #8]
 800420c:	e7e3      	b.n	80041d6 <HAL_RCC_ClockConfig+0xda>
      if(__HAL_RCC_GET_FLAG(RCC_FLAG_HSERDY) == RESET)
 800420e:	4b06      	ldr	r3, [pc, #24]	; (8004228 <HAL_RCC_ClockConfig+0x12c>)
 8004210:	681b      	ldr	r3, [r3, #0]
 8004212:	039e      	lsls	r6, r3, #14
 8004214:	d4aa      	bmi.n	800416c <HAL_RCC_ClockConfig+0x70>
 8004216:	e7cf      	b.n	80041b8 <HAL_RCC_ClockConfig+0xbc>
        return HAL_TIMEOUT;
 8004218:	2003      	movs	r0, #3
 800421a:	e7ed      	b.n	80041f8 <HAL_RCC_ClockConfig+0xfc>
      if(__HAL_RCC_GET_FLAG(RCC_FLAG_PLLRDY) == RESET)
 800421c:	0198      	lsls	r0, r3, #6
 800421e:	d4a5      	bmi.n	800416c <HAL_RCC_ClockConfig+0x70>
 8004220:	e7ca      	b.n	80041b8 <HAL_RCC_ClockConfig+0xbc>
 8004222:	bf00      	nop
 8004224:	40023c00 	.word	0x40023c00
 8004228:	40023800 	.word	0x40023800
 800422c:	0800b370 	.word	0x0800b370
 8004230:	20000010 	.word	0x20000010
 8004234:	20000008 	.word	0x20000008

08004238 <HAL_RCC_GetPCLK1Freq>:
  * @retval PCLK1 frequency
  */
uint32_t HAL_RCC_GetPCLK1Freq(void)
{
  /* Get HCLK source and Compute PCLK1 frequency ---------------------------*/
  return (HAL_RCC_GetHCLKFreq() >> APBPrescTable[(RCC->CFGR & RCC_CFGR_PPRE1)>> RCC_CFGR_PPRE1_Pos]);
 8004238:	4b04      	ldr	r3, [pc, #16]	; (800424c <HAL_RCC_GetPCLK1Freq+0x14>)
 800423a:	4a05      	ldr	r2, [pc, #20]	; (8004250 <HAL_RCC_GetPCLK1Freq+0x18>)
 800423c:	689b      	ldr	r3, [r3, #8]
  return SystemCoreClock;
 800423e:	4905      	ldr	r1, [pc, #20]	; (8004254 <HAL_RCC_GetPCLK1Freq+0x1c>)
  return (HAL_RCC_GetHCLKFreq() >> APBPrescTable[(RCC->CFGR & RCC_CFGR_PPRE1)>> RCC_CFGR_PPRE1_Pos]);
 8004240:	f3c3 2382 	ubfx	r3, r3, #10, #3
 8004244:	6808      	ldr	r0, [r1, #0]
 8004246:	5cd3      	ldrb	r3, [r2, r3]
}
 8004248:	40d8      	lsrs	r0, r3
 800424a:	4770      	bx	lr
 800424c:	40023800 	.word	0x40023800
 8004250:	0800b380 	.word	0x0800b380
 8004254:	20000008 	.word	0x20000008

08004258 <HAL_RCC_GetPCLK2Freq>:
  * @retval PCLK2 frequency
  */
uint32_t HAL_RCC_GetPCLK2Freq(void)
{
  /* Get HCLK source and Compute PCLK2 frequency ---------------------------*/
  return (HAL_RCC_GetHCLKFreq()>> APBPrescTable[(RCC->CFGR & RCC_CFGR_PPRE2)>> RCC_CFGR_PPRE2_Pos]);
 8004258:	4b04      	ldr	r3, [pc, #16]	; (800426c <HAL_RCC_GetPCLK2Freq+0x14>)
 800425a:	4a05      	ldr	r2, [pc, #20]	; (8004270 <HAL_RCC_GetPCLK2Freq+0x18>)
 800425c:	689b      	ldr	r3, [r3, #8]
  return SystemCoreClock;
 800425e:	4905      	ldr	r1, [pc, #20]	; (8004274 <HAL_RCC_GetPCLK2Freq+0x1c>)
  return (HAL_RCC_GetHCLKFreq()>> APBPrescTable[(RCC->CFGR & RCC_CFGR_PPRE2)>> RCC_CFGR_PPRE2_Pos]);
 8004260:	f3c3 3342 	ubfx	r3, r3, #13, #3
 8004264:	6808      	ldr	r0, [r1, #0]
 8004266:	5cd3      	ldrb	r3, [r2, r3]
}
 8004268:	40d8      	lsrs	r0, r3
 800426a:	4770      	bx	lr
 800426c:	40023800 	.word	0x40023800
 8004270:	0800b380 	.word	0x0800b380
 8004274:	20000008 	.word	0x20000008

08004278 <HAL_RCCEx_PeriphCLKConfig>:
  *        domain (RTC and RCC_BDCR register expect BKPSRAM) will be reset
  *
  * @retval HAL status
  */
HAL_StatusTypeDef HAL_RCCEx_PeriphCLKConfig(RCC_PeriphCLKInitTypeDef  *PeriphClkInit)
{
 8004278:	b5f0      	push	{r4, r5, r6, r7, lr}
 800427a:	4605      	mov	r5, r0

  /* Check the parameters */
  assert_param(IS_RCC_PERIPHCLOCK(PeriphClkInit->PeriphClockSelection));

  /*---------------------------- I2S configuration ---------------------------*/
  if((((PeriphClkInit->PeriphClockSelection) & RCC_PERIPHCLK_I2S) == RCC_PERIPHCLK_I2S) ||
 800427c:	6800      	ldr	r0, [r0, #0]
 800427e:	f010 0f05 	tst.w	r0, #5
{
 8004282:	b083      	sub	sp, #12
  if((((PeriphClkInit->PeriphClockSelection) & RCC_PERIPHCLK_I2S) == RCC_PERIPHCLK_I2S) ||
 8004284:	d15c      	bne.n	8004340 <HAL_RCCEx_PeriphCLKConfig+0xc8>
      }
    }
  }

  /*---------------------------- RTC configuration ---------------------------*/
  if(((PeriphClkInit->PeriphClockSelection) & RCC_PERIPHCLK_RTC) == (RCC_PERIPHCLK_RTC))
 8004286:	f010 0002 	ands.w	r0, r0, #2
 800428a:	d101      	bne.n	8004290 <HAL_RCCEx_PeriphCLKConfig+0x18>
  {
    __HAL_RCC_TIMCLKPRESCALER(PeriphClkInit->TIMPresSelection);
  }
#endif /* STM32F401xC || STM32F401xE || STM32F411xE */
  return HAL_OK;
}
 800428c:	b003      	add	sp, #12
 800428e:	bdf0      	pop	{r4, r5, r6, r7, pc}
    __HAL_RCC_PWR_CLK_ENABLE();
 8004290:	4b45      	ldr	r3, [pc, #276]	; (80043a8 <HAL_RCCEx_PeriphCLKConfig+0x130>)
    PWR->CR |= PWR_CR_DBP;
 8004292:	4c46      	ldr	r4, [pc, #280]	; (80043ac <HAL_RCCEx_PeriphCLKConfig+0x134>)
    __HAL_RCC_PWR_CLK_ENABLE();
 8004294:	2200      	movs	r2, #0
 8004296:	9201      	str	r2, [sp, #4]
 8004298:	6c1a      	ldr	r2, [r3, #64]	; 0x40
 800429a:	f042 5280 	orr.w	r2, r2, #268435456	; 0x10000000
 800429e:	641a      	str	r2, [r3, #64]	; 0x40
 80042a0:	6c1b      	ldr	r3, [r3, #64]	; 0x40
 80042a2:	f003 5380 	and.w	r3, r3, #268435456	; 0x10000000
 80042a6:	9301      	str	r3, [sp, #4]
 80042a8:	9b01      	ldr	r3, [sp, #4]
    PWR->CR |= PWR_CR_DBP;
 80042aa:	6823      	ldr	r3, [r4, #0]
 80042ac:	f443 7380 	orr.w	r3, r3, #256	; 0x100
 80042b0:	6023      	str	r3, [r4, #0]
    tickstart = HAL_GetTick();
 80042b2:	f7fd ff45 	bl	8002140 <HAL_GetTick>
 80042b6:	4606      	mov	r6, r0
    while((PWR->CR & PWR_CR_DBP) == RESET)
 80042b8:	e004      	b.n	80042c4 <HAL_RCCEx_PeriphCLKConfig+0x4c>
      if((HAL_GetTick() - tickstart ) > RCC_DBP_TIMEOUT_VALUE)
 80042ba:	f7fd ff41 	bl	8002140 <HAL_GetTick>
 80042be:	1b80      	subs	r0, r0, r6
 80042c0:	2802      	cmp	r0, #2
 80042c2:	d83a      	bhi.n	800433a <HAL_RCCEx_PeriphCLKConfig+0xc2>
    while((PWR->CR & PWR_CR_DBP) == RESET)
 80042c4:	6823      	ldr	r3, [r4, #0]
 80042c6:	05d9      	lsls	r1, r3, #23
 80042c8:	d5f7      	bpl.n	80042ba <HAL_RCCEx_PeriphCLKConfig+0x42>
    tmpreg1 = (RCC->BDCR & RCC_BDCR_RTCSEL);
 80042ca:	4937      	ldr	r1, [pc, #220]	; (80043a8 <HAL_RCCEx_PeriphCLKConfig+0x130>)
 80042cc:	68eb      	ldr	r3, [r5, #12]
 80042ce:	6f0a      	ldr	r2, [r1, #112]	; 0x70
    if((tmpreg1 != 0x00000000U) && ((tmpreg1) != (PeriphClkInit->RTCClockSelection & RCC_BDCR_RTCSEL)))
 80042d0:	f412 7240 	ands.w	r2, r2, #768	; 0x300
 80042d4:	f403 7040 	and.w	r0, r3, #768	; 0x300
 80042d8:	d010      	beq.n	80042fc <HAL_RCCEx_PeriphCLKConfig+0x84>
 80042da:	4282      	cmp	r2, r0
 80042dc:	d00e      	beq.n	80042fc <HAL_RCCEx_PeriphCLKConfig+0x84>
      tmpreg1 = (RCC->BDCR & ~(RCC_BDCR_RTCSEL));
 80042de:	6f0b      	ldr	r3, [r1, #112]	; 0x70
      __HAL_RCC_BACKUPRESET_FORCE();
 80042e0:	4a33      	ldr	r2, [pc, #204]	; (80043b0 <HAL_RCCEx_PeriphCLKConfig+0x138>)
      tmpreg1 = (RCC->BDCR & ~(RCC_BDCR_RTCSEL));
 80042e2:	f423 7340 	bic.w	r3, r3, #768	; 0x300
      __HAL_RCC_BACKUPRESET_FORCE();
 80042e6:	2401      	movs	r4, #1
      __HAL_RCC_BACKUPRESET_RELEASE();
 80042e8:	2000      	movs	r0, #0
      __HAL_RCC_BACKUPRESET_FORCE();
 80042ea:	6014      	str	r4, [r2, #0]
      __HAL_RCC_BACKUPRESET_RELEASE();
 80042ec:	6010      	str	r0, [r2, #0]
      RCC->BDCR = tmpreg1;
 80042ee:	670b      	str	r3, [r1, #112]	; 0x70
      if(HAL_IS_BIT_SET(RCC->BDCR, RCC_BDCR_LSEON))
 80042f0:	6f0b      	ldr	r3, [r1, #112]	; 0x70
 80042f2:	07da      	lsls	r2, r3, #31
 80042f4:	d413      	bmi.n	800431e <HAL_RCCEx_PeriphCLKConfig+0xa6>
 80042f6:	68eb      	ldr	r3, [r5, #12]
 80042f8:	f403 7040 	and.w	r0, r3, #768	; 0x300
    __HAL_RCC_RTC_CONFIG(PeriphClkInit->RTCClockSelection);
 80042fc:	f5b0 7f40 	cmp.w	r0, #768	; 0x300
 8004300:	d047      	beq.n	8004392 <HAL_RCCEx_PeriphCLKConfig+0x11a>
 8004302:	4929      	ldr	r1, [pc, #164]	; (80043a8 <HAL_RCCEx_PeriphCLKConfig+0x130>)
 8004304:	688a      	ldr	r2, [r1, #8]
 8004306:	f422 12f8 	bic.w	r2, r2, #2031616	; 0x1f0000
 800430a:	608a      	str	r2, [r1, #8]
 800430c:	4a26      	ldr	r2, [pc, #152]	; (80043a8 <HAL_RCCEx_PeriphCLKConfig+0x130>)
 800430e:	6f11      	ldr	r1, [r2, #112]	; 0x70
 8004310:	f3c3 030b 	ubfx	r3, r3, #0, #12
 8004314:	430b      	orrs	r3, r1
  return HAL_OK;
 8004316:	2000      	movs	r0, #0
    __HAL_RCC_RTC_CONFIG(PeriphClkInit->RTCClockSelection);
 8004318:	6713      	str	r3, [r2, #112]	; 0x70
}
 800431a:	b003      	add	sp, #12
 800431c:	bdf0      	pop	{r4, r5, r6, r7, pc}
        while(__HAL_RCC_GET_FLAG(RCC_FLAG_LSERDY) == RESET)
 800431e:	460c      	mov	r4, r1
        tickstart = HAL_GetTick();
 8004320:	f7fd ff0e 	bl	8002140 <HAL_GetTick>
          if((HAL_GetTick() - tickstart ) > RCC_LSE_TIMEOUT_VALUE)
 8004324:	f241 3688 	movw	r6, #5000	; 0x1388
        tickstart = HAL_GetTick();
 8004328:	4607      	mov	r7, r0
        while(__HAL_RCC_GET_FLAG(RCC_FLAG_LSERDY) == RESET)
 800432a:	6f23      	ldr	r3, [r4, #112]	; 0x70
 800432c:	079b      	lsls	r3, r3, #30
 800432e:	d4e2      	bmi.n	80042f6 <HAL_RCCEx_PeriphCLKConfig+0x7e>
          if((HAL_GetTick() - tickstart ) > RCC_LSE_TIMEOUT_VALUE)
 8004330:	f7fd ff06 	bl	8002140 <HAL_GetTick>
 8004334:	1bc0      	subs	r0, r0, r7
 8004336:	42b0      	cmp	r0, r6
 8004338:	d9f7      	bls.n	800432a <HAL_RCCEx_PeriphCLKConfig+0xb2>
        return HAL_TIMEOUT;
 800433a:	2003      	movs	r0, #3
}
 800433c:	b003      	add	sp, #12
 800433e:	bdf0      	pop	{r4, r5, r6, r7, pc}
    __HAL_RCC_PLLI2S_DISABLE();
 8004340:	4b1c      	ldr	r3, [pc, #112]	; (80043b4 <HAL_RCCEx_PeriphCLKConfig+0x13c>)
    while(__HAL_RCC_GET_FLAG(RCC_FLAG_PLLI2SRDY)  != RESET)
 8004342:	4c19      	ldr	r4, [pc, #100]	; (80043a8 <HAL_RCCEx_PeriphCLKConfig+0x130>)
    __HAL_RCC_PLLI2S_DISABLE();
 8004344:	2200      	movs	r2, #0
 8004346:	601a      	str	r2, [r3, #0]
    tickstart = HAL_GetTick();
 8004348:	f7fd fefa 	bl	8002140 <HAL_GetTick>
 800434c:	4606      	mov	r6, r0
    while(__HAL_RCC_GET_FLAG(RCC_FLAG_PLLI2SRDY)  != RESET)
 800434e:	e004      	b.n	800435a <HAL_RCCEx_PeriphCLKConfig+0xe2>
      if((HAL_GetTick() - tickstart ) > PLLI2S_TIMEOUT_VALUE)
 8004350:	f7fd fef6 	bl	8002140 <HAL_GetTick>
 8004354:	1b80      	subs	r0, r0, r6
 8004356:	2802      	cmp	r0, #2
 8004358:	d8ef      	bhi.n	800433a <HAL_RCCEx_PeriphCLKConfig+0xc2>
    while(__HAL_RCC_GET_FLAG(RCC_FLAG_PLLI2SRDY)  != RESET)
 800435a:	6823      	ldr	r3, [r4, #0]
 800435c:	011f      	lsls	r7, r3, #4
 800435e:	d4f7      	bmi.n	8004350 <HAL_RCCEx_PeriphCLKConfig+0xd8>
    __HAL_RCC_PLLI2S_CONFIG(PeriphClkInit->PLLI2S.PLLI2SN , PeriphClkInit->PLLI2S.PLLI2SR);
 8004360:	e9d5 1301 	ldrd	r1, r3, [r5, #4]
    __HAL_RCC_PLLI2S_ENABLE();
 8004364:	4a13      	ldr	r2, [pc, #76]	; (80043b4 <HAL_RCCEx_PeriphCLKConfig+0x13c>)
    while(__HAL_RCC_GET_FLAG(RCC_FLAG_PLLI2SRDY)  == RESET)
 8004366:	4e10      	ldr	r6, [pc, #64]	; (80043a8 <HAL_RCCEx_PeriphCLKConfig+0x130>)
    __HAL_RCC_PLLI2S_CONFIG(PeriphClkInit->PLLI2S.PLLI2SN , PeriphClkInit->PLLI2S.PLLI2SR);
 8004368:	071b      	lsls	r3, r3, #28
 800436a:	ea43 1381 	orr.w	r3, r3, r1, lsl #6
    __HAL_RCC_PLLI2S_ENABLE();
 800436e:	2101      	movs	r1, #1
    __HAL_RCC_PLLI2S_CONFIG(PeriphClkInit->PLLI2S.PLLI2SN , PeriphClkInit->PLLI2S.PLLI2SR);
 8004370:	f8c4 3084 	str.w	r3, [r4, #132]	; 0x84
    __HAL_RCC_PLLI2S_ENABLE();
 8004374:	6011      	str	r1, [r2, #0]
    tickstart = HAL_GetTick();
 8004376:	f7fd fee3 	bl	8002140 <HAL_GetTick>
 800437a:	4604      	mov	r4, r0
    while(__HAL_RCC_GET_FLAG(RCC_FLAG_PLLI2SRDY)  == RESET)
 800437c:	e004      	b.n	8004388 <HAL_RCCEx_PeriphCLKConfig+0x110>
      if((HAL_GetTick() - tickstart ) > PLLI2S_TIMEOUT_VALUE)
 800437e:	f7fd fedf 	bl	8002140 <HAL_GetTick>
 8004382:	1b00      	subs	r0, r0, r4
 8004384:	2802      	cmp	r0, #2
 8004386:	d8d8      	bhi.n	800433a <HAL_RCCEx_PeriphCLKConfig+0xc2>
    while(__HAL_RCC_GET_FLAG(RCC_FLAG_PLLI2SRDY)  == RESET)
 8004388:	6833      	ldr	r3, [r6, #0]
 800438a:	0118      	lsls	r0, r3, #4
 800438c:	d5f7      	bpl.n	800437e <HAL_RCCEx_PeriphCLKConfig+0x106>
 800438e:	6828      	ldr	r0, [r5, #0]
 8004390:	e779      	b.n	8004286 <HAL_RCCEx_PeriphCLKConfig+0xe>
    __HAL_RCC_RTC_CONFIG(PeriphClkInit->RTCClockSelection);
 8004392:	4805      	ldr	r0, [pc, #20]	; (80043a8 <HAL_RCCEx_PeriphCLKConfig+0x130>)
 8004394:	6882      	ldr	r2, [r0, #8]
 8004396:	f023 4170 	bic.w	r1, r3, #4026531840	; 0xf0000000
 800439a:	f422 12f8 	bic.w	r2, r2, #2031616	; 0x1f0000
 800439e:	f421 7140 	bic.w	r1, r1, #768	; 0x300
 80043a2:	430a      	orrs	r2, r1
 80043a4:	6082      	str	r2, [r0, #8]
 80043a6:	e7b1      	b.n	800430c <HAL_RCCEx_PeriphCLKConfig+0x94>
 80043a8:	40023800 	.word	0x40023800
 80043ac:	40007000 	.word	0x40007000
 80043b0:	42470e40 	.word	0x42470e40
 80043b4:	42470068 	.word	0x42470068

080043b8 <HAL_RCCEx_GetPeriphCLKFreq>:
  /* This variable used to store the VCO Input (value in Hz) */
  uint32_t vcoinput = 0U;
  uint32_t srcclk = 0U;
  /* This variable used to store the VCO Output (value in Hz) */
  uint32_t vcooutput = 0U;
  switch (PeriphClk)
 80043b8:	2801      	cmp	r0, #1
 80043ba:	d109      	bne.n	80043d0 <HAL_RCCEx_GetPeriphCLKFreq+0x18>
  {
  case RCC_PERIPHCLK_I2S:
    {
      /* Get the current I2S source */
      srcclk = __HAL_RCC_GET_I2S_SOURCE();
 80043bc:	4a12      	ldr	r2, [pc, #72]	; (8004408 <HAL_RCCEx_GetPeriphCLKFreq+0x50>)
 80043be:	6893      	ldr	r3, [r2, #8]
      switch (srcclk)
 80043c0:	f413 0300 	ands.w	r3, r3, #8388608	; 0x800000
 80043c4:	d006      	beq.n	80043d4 <HAL_RCCEx_GetPeriphCLKFreq+0x1c>
 80043c6:	2b01      	cmp	r3, #1
          break;
        }
        /* Clock not enabled for I2S*/
      default:
        {
          frequency = 0U;
 80043c8:	4810      	ldr	r0, [pc, #64]	; (800440c <HAL_RCCEx_GetPeriphCLKFreq+0x54>)
 80043ca:	bf18      	it	ne
 80043cc:	2000      	movne	r0, #0
 80043ce:	4770      	bx	lr
 80043d0:	2000      	movs	r0, #0
      }
      break;
    }
  }
  return frequency;
}
 80043d2:	4770      	bx	lr
          if((RCC->PLLCFGR & RCC_PLLCFGR_PLLSRC) == RCC_PLLSOURCE_HSE)
 80043d4:	6853      	ldr	r3, [r2, #4]
 80043d6:	f413 0f80 	tst.w	r3, #4194304	; 0x400000
            vcoinput = (uint32_t)(HSE_VALUE / (uint32_t)(RCC->PLLCFGR & RCC_PLLCFGR_PLLM));
 80043da:	6853      	ldr	r3, [r2, #4]
 80043dc:	bf14      	ite	ne
 80043de:	480c      	ldrne	r0, [pc, #48]	; (8004410 <HAL_RCCEx_GetPeriphCLKFreq+0x58>)
            vcoinput = (uint32_t)(HSI_VALUE / (uint32_t)(RCC->PLLCFGR & RCC_PLLCFGR_PLLM));
 80043e0:	480c      	ldreq	r0, [pc, #48]	; (8004414 <HAL_RCCEx_GetPeriphCLKFreq+0x5c>)
 80043e2:	f003 033f 	and.w	r3, r3, #63	; 0x3f
 80043e6:	fbb0 f0f3 	udiv	r0, r0, r3
          vcooutput = (uint32_t)(vcoinput * (((RCC->PLLI2SCFGR & RCC_PLLI2SCFGR_PLLI2SN) >> 6U) & (RCC_PLLI2SCFGR_PLLI2SN >> 6U)));
 80043ea:	4b07      	ldr	r3, [pc, #28]	; (8004408 <HAL_RCCEx_GetPeriphCLKFreq+0x50>)
 80043ec:	f8d3 2084 	ldr.w	r2, [r3, #132]	; 0x84
          frequency = (uint32_t)(vcooutput /(((RCC->PLLI2SCFGR & RCC_PLLI2SCFGR_PLLI2SR) >> 28U) & (RCC_PLLI2SCFGR_PLLI2SR >> 28U)));
 80043f0:	f8d3 3084 	ldr.w	r3, [r3, #132]	; 0x84
          vcooutput = (uint32_t)(vcoinput * (((RCC->PLLI2SCFGR & RCC_PLLI2SCFGR_PLLI2SN) >> 6U) & (RCC_PLLI2SCFGR_PLLI2SN >> 6U)));
 80043f4:	f3c2 1288 	ubfx	r2, r2, #6, #9
 80043f8:	fb00 f002 	mul.w	r0, r0, r2
          frequency = (uint32_t)(vcooutput /(((RCC->PLLI2SCFGR & RCC_PLLI2SCFGR_PLLI2SR) >> 28U) & (RCC_PLLI2SCFGR_PLLI2SR >> 28U)));
 80043fc:	f3c3 7302 	ubfx	r3, r3, #28, #3
 8004400:	fbb0 f0f3 	udiv	r0, r0, r3
          break;
 8004404:	4770      	bx	lr
 8004406:	bf00      	nop
 8004408:	40023800 	.word	0x40023800
 800440c:	00bb8000 	.word	0x00bb8000
 8004410:	007a1200 	.word	0x007a1200
 8004414:	00f42400 	.word	0x00f42400

08004418 <HAL_SPI_Init>:
  * @retval HAL status
  */
HAL_StatusTypeDef HAL_SPI_Init(SPI_HandleTypeDef *hspi)
{
  /* Check the SPI handle allocation */
  if (hspi == NULL)
 8004418:	2800      	cmp	r0, #0
 800441a:	d03b      	beq.n	8004494 <HAL_SPI_Init+0x7c>
  }
#else
  hspi->Init.CRCCalculation = SPI_CRCCALCULATION_DISABLE;
#endif /* USE_SPI_CRC */

  if (hspi->State == HAL_SPI_STATE_RESET)
 800441c:	f890 2051 	ldrb.w	r2, [r0, #81]	; 0x51
  hspi->Init.CRCCalculation = SPI_CRCCALCULATION_DISABLE;
 8004420:	2300      	movs	r3, #0
{
 8004422:	b570      	push	{r4, r5, r6, lr}
  if (hspi->State == HAL_SPI_STATE_RESET)
 8004424:	f002 01ff 	and.w	r1, r2, #255	; 0xff
 8004428:	4604      	mov	r4, r0
  hspi->Init.CRCCalculation = SPI_CRCCALCULATION_DISABLE;
 800442a:	6283      	str	r3, [r0, #40]	; 0x28
  if (hspi->State == HAL_SPI_STATE_RESET)
 800442c:	b362      	cbz	r2, 8004488 <HAL_SPI_Init+0x70>
 800442e:	4618      	mov	r0, r3
  __HAL_SPI_DISABLE(hspi);

  /*----------------------- SPIx CR1 & CR2 Configuration ---------------------*/
  /* Configure : SPI Mode, Communication Mode, Data size, Clock polarity and phase, NSS management,
  Communication speed, First bit and CRC calculation state */
  WRITE_REG(hspi->Instance->CR1, (hspi->Init.Mode | hspi->Init.Direction | hspi->Init.DataSize |
 8004430:	e9d4 3501 	ldrd	r3, r5, [r4, #4]
 8004434:	e9d4 2103 	ldrd	r2, r1, [r4, #12]
 8004438:	432b      	orrs	r3, r5
 800443a:	4313      	orrs	r3, r2
 800443c:	6962      	ldr	r2, [r4, #20]
 800443e:	69e5      	ldr	r5, [r4, #28]
 8004440:	6a26      	ldr	r6, [r4, #32]
 8004442:	430b      	orrs	r3, r1
 8004444:	4313      	orrs	r3, r2
 8004446:	69a2      	ldr	r2, [r4, #24]
  __HAL_SPI_DISABLE(hspi);
 8004448:	6821      	ldr	r1, [r4, #0]
  WRITE_REG(hspi->Instance->CR1, (hspi->Init.Mode | hspi->Init.Direction | hspi->Init.DataSize |
 800444a:	432b      	orrs	r3, r5
  hspi->State = HAL_SPI_STATE_BUSY;
 800444c:	2502      	movs	r5, #2
 800444e:	f884 5051 	strb.w	r5, [r4, #81]	; 0x51
  WRITE_REG(hspi->Instance->CR1, (hspi->Init.Mode | hspi->Init.Direction | hspi->Init.DataSize |
 8004452:	4333      	orrs	r3, r6
 8004454:	f402 7500 	and.w	r5, r2, #512	; 0x200
  __HAL_SPI_DISABLE(hspi);
 8004458:	680e      	ldr	r6, [r1, #0]
  WRITE_REG(hspi->Instance->CR1, (hspi->Init.Mode | hspi->Init.Direction | hspi->Init.DataSize |
 800445a:	432b      	orrs	r3, r5
                                  hspi->Init.CLKPolarity | hspi->Init.CLKPhase | (hspi->Init.NSS & SPI_CR1_SSM) |
                                  hspi->Init.BaudRatePrescaler | hspi->Init.FirstBit  | hspi->Init.CRCCalculation));

  /* Configure : NSS management, TI Mode */
  WRITE_REG(hspi->Instance->CR2, (((hspi->Init.NSS >> 16U) & SPI_CR2_SSOE) | hspi->Init.TIMode));
 800445c:	0c12      	lsrs	r2, r2, #16
 800445e:	6a65      	ldr	r5, [r4, #36]	; 0x24
 8004460:	f002 0204 	and.w	r2, r2, #4
  WRITE_REG(hspi->Instance->CR1, (hspi->Init.Mode | hspi->Init.Direction | hspi->Init.DataSize |
 8004464:	4303      	orrs	r3, r0
  WRITE_REG(hspi->Instance->CR2, (((hspi->Init.NSS >> 16U) & SPI_CR2_SSOE) | hspi->Init.TIMode));
 8004466:	432a      	orrs	r2, r5
  __HAL_SPI_DISABLE(hspi);
 8004468:	f026 0640 	bic.w	r6, r6, #64	; 0x40
 800446c:	600e      	str	r6, [r1, #0]
  WRITE_REG(hspi->Instance->CR1, (hspi->Init.Mode | hspi->Init.Direction | hspi->Init.DataSize |
 800446e:	600b      	str	r3, [r1, #0]
  WRITE_REG(hspi->Instance->CR2, (((hspi->Init.NSS >> 16U) & SPI_CR2_SSOE) | hspi->Init.TIMode));
 8004470:	604a      	str	r2, [r1, #4]
  }
#endif /* USE_SPI_CRC */

#if defined(SPI_I2SCFGR_I2SMOD)
  /* Activate the SPI mode (Make sure that I2SMOD bit in I2SCFGR register is reset) */
  CLEAR_BIT(hspi->Instance->I2SCFGR, SPI_I2SCFGR_I2SMOD);
 8004472:	69cb      	ldr	r3, [r1, #28]
#endif /* SPI_I2SCFGR_I2SMOD */

  hspi->ErrorCode = HAL_SPI_ERROR_NONE;
 8004474:	2200      	movs	r2, #0
  CLEAR_BIT(hspi->Instance->I2SCFGR, SPI_I2SCFGR_I2SMOD);
 8004476:	f423 6300 	bic.w	r3, r3, #2048	; 0x800
  hspi->State     = HAL_SPI_STATE_READY;
 800447a:	2501      	movs	r5, #1
  CLEAR_BIT(hspi->Instance->I2SCFGR, SPI_I2SCFGR_I2SMOD);
 800447c:	61cb      	str	r3, [r1, #28]

  return HAL_OK;
 800447e:	4610      	mov	r0, r2
  hspi->ErrorCode = HAL_SPI_ERROR_NONE;
 8004480:	6562      	str	r2, [r4, #84]	; 0x54
  hspi->State     = HAL_SPI_STATE_READY;
 8004482:	f884 5051 	strb.w	r5, [r4, #81]	; 0x51
}
 8004486:	bd70      	pop	{r4, r5, r6, pc}
    hspi->Lock = HAL_UNLOCKED;
 8004488:	f880 1050 	strb.w	r1, [r0, #80]	; 0x50
    HAL_SPI_MspInit(hspi);
 800448c:	f7fd fc32 	bl	8001cf4 <HAL_SPI_MspInit>
 8004490:	6aa0      	ldr	r0, [r4, #40]	; 0x28
 8004492:	e7cd      	b.n	8004430 <HAL_SPI_Init+0x18>
    return HAL_ERROR;
 8004494:	2001      	movs	r0, #1
}
 8004496:	4770      	bx	lr

08004498 <TIM_OC1_SetConfig>:
  * @param  TIMx to select the TIM peripheral
  * @param  OC_Config The ouput configuration structure
  * @retval None
  */
static void TIM_OC1_SetConfig(TIM_TypeDef *TIMx, TIM_OC_InitTypeDef *OC_Config)
{
 8004498:	b4f0      	push	{r4, r5, r6, r7}
  uint32_t tmpccmrx;
  uint32_t tmpccer;
  uint32_t tmpcr2;

  /* Disable the Channel 1: Reset the CC1E Bit */
  TIMx->CCER &= ~TIM_CCER_CC1E;
 800449a:	6a04      	ldr	r4, [r0, #32]
  tmpccmrx |= OC_Config->OCMode;

  /* Reset the Output Polarity level */
  tmpccer &= ~TIM_CCER_CC1P;
  /* Set the Output Compare Polarity */
  tmpccer |= OC_Config->OCPolarity;
 800449c:	688f      	ldr	r7, [r1, #8]
  tmpccmrx |= OC_Config->OCMode;
 800449e:	680e      	ldr	r6, [r1, #0]

  if (IS_TIM_CCXN_INSTANCE(TIMx, TIM_CHANNEL_1))
 80044a0:	4d14      	ldr	r5, [pc, #80]	; (80044f4 <TIM_OC1_SetConfig+0x5c>)
  TIMx->CCER &= ~TIM_CCER_CC1E;
 80044a2:	f024 0401 	bic.w	r4, r4, #1
 80044a6:	6204      	str	r4, [r0, #32]
  tmpccer = TIMx->CCER;
 80044a8:	6a03      	ldr	r3, [r0, #32]
  tmpcr2 =  TIMx->CR2;
 80044aa:	6844      	ldr	r4, [r0, #4]
  tmpccmrx = TIMx->CCMR1;
 80044ac:	6982      	ldr	r2, [r0, #24]
  tmpccer &= ~TIM_CCER_CC1P;
 80044ae:	f023 0302 	bic.w	r3, r3, #2
  tmpccmrx &= ~TIM_CCMR1_CC1S;
 80044b2:	f022 0273 	bic.w	r2, r2, #115	; 0x73
  if (IS_TIM_CCXN_INSTANCE(TIMx, TIM_CHANNEL_1))
 80044b6:	42a8      	cmp	r0, r5
  tmpccer |= OC_Config->OCPolarity;
 80044b8:	ea43 0307 	orr.w	r3, r3, r7
  tmpccmrx |= OC_Config->OCMode;
 80044bc:	ea42 0206 	orr.w	r2, r2, r6
  if (IS_TIM_CCXN_INSTANCE(TIMx, TIM_CHANNEL_1))
 80044c0:	d00a      	beq.n	80044d8 <TIM_OC1_SetConfig+0x40>
 80044c2:	f505 6580 	add.w	r5, r5, #1024	; 0x400
 80044c6:	42a8      	cmp	r0, r5
 80044c8:	d006      	beq.n	80044d8 <TIM_OC1_SetConfig+0x40>

  /* Write to TIMx CCMR1 */
  TIMx->CCMR1 = tmpccmrx;

  /* Set the Capture Compare Register value */
  TIMx->CCR1 = OC_Config->Pulse;
 80044ca:	6849      	ldr	r1, [r1, #4]
  TIMx->CR2 = tmpcr2;
 80044cc:	6044      	str	r4, [r0, #4]
  TIMx->CCMR1 = tmpccmrx;
 80044ce:	6182      	str	r2, [r0, #24]

  /* Write to TIMx CCER */
  TIMx->CCER = tmpccer;
}
 80044d0:	bcf0      	pop	{r4, r5, r6, r7}
  TIMx->CCR1 = OC_Config->Pulse;
 80044d2:	6341      	str	r1, [r0, #52]	; 0x34
  TIMx->CCER = tmpccer;
 80044d4:	6203      	str	r3, [r0, #32]
}
 80044d6:	4770      	bx	lr
    tmpccer |= OC_Config->OCNPolarity;
 80044d8:	68cd      	ldr	r5, [r1, #12]
    tmpccer &= ~TIM_CCER_CC1NP;
 80044da:	f023 0308 	bic.w	r3, r3, #8
    tmpccer |= OC_Config->OCNPolarity;
 80044de:	432b      	orrs	r3, r5
    tmpcr2 |= OC_Config->OCNIdleState;
 80044e0:	e9d1 5605 	ldrd	r5, r6, [r1, #20]
    tmpcr2 &= ~TIM_CR2_OIS1N;
 80044e4:	f424 7440 	bic.w	r4, r4, #768	; 0x300
    tmpcr2 |= OC_Config->OCNIdleState;
 80044e8:	4335      	orrs	r5, r6
    tmpccer &= ~TIM_CCER_CC1NE;
 80044ea:	f023 0304 	bic.w	r3, r3, #4
    tmpcr2 |= OC_Config->OCNIdleState;
 80044ee:	432c      	orrs	r4, r5
 80044f0:	e7eb      	b.n	80044ca <TIM_OC1_SetConfig+0x32>
 80044f2:	bf00      	nop
 80044f4:	40010000 	.word	0x40010000

080044f8 <TIM_OC3_SetConfig>:
  * @param  TIMx to select the TIM peripheral
  * @param  OC_Config The ouput configuration structure
  * @retval None
  */
static void TIM_OC3_SetConfig(TIM_TypeDef *TIMx, TIM_OC_InitTypeDef *OC_Config)
{
 80044f8:	b4f0      	push	{r4, r5, r6, r7}
  uint32_t tmpccmrx;
  uint32_t tmpccer;
  uint32_t tmpcr2;

  /* Disable the Channel 3: Reset the CC2E Bit */
  TIMx->CCER &= ~TIM_CCER_CC3E;
 80044fa:	6a04      	ldr	r4, [r0, #32]
  tmpccmrx |= OC_Config->OCMode;

  /* Reset the Output Polarity level */
  tmpccer &= ~TIM_CCER_CC3P;
  /* Set the Output Compare Polarity */
  tmpccer |= (OC_Config->OCPolarity << 8U);
 80044fc:	688f      	ldr	r7, [r1, #8]
  tmpccmrx |= OC_Config->OCMode;
 80044fe:	680e      	ldr	r6, [r1, #0]

  if (IS_TIM_CCXN_INSTANCE(TIMx, TIM_CHANNEL_3))
 8004500:	4d15      	ldr	r5, [pc, #84]	; (8004558 <TIM_OC3_SetConfig+0x60>)
  TIMx->CCER &= ~TIM_CCER_CC3E;
 8004502:	f424 7480 	bic.w	r4, r4, #256	; 0x100
 8004506:	6204      	str	r4, [r0, #32]
  tmpccer = TIMx->CCER;
 8004508:	6a03      	ldr	r3, [r0, #32]
  tmpcr2 =  TIMx->CR2;
 800450a:	6844      	ldr	r4, [r0, #4]
  tmpccmrx = TIMx->CCMR2;
 800450c:	69c2      	ldr	r2, [r0, #28]
  tmpccer &= ~TIM_CCER_CC3P;
 800450e:	f423 7300 	bic.w	r3, r3, #512	; 0x200
  tmpccmrx &= ~TIM_CCMR2_CC3S;
 8004512:	f022 0273 	bic.w	r2, r2, #115	; 0x73
  if (IS_TIM_CCXN_INSTANCE(TIMx, TIM_CHANNEL_3))
 8004516:	42a8      	cmp	r0, r5
  tmpccer |= (OC_Config->OCPolarity << 8U);
 8004518:	ea43 2307 	orr.w	r3, r3, r7, lsl #8
  tmpccmrx |= OC_Config->OCMode;
 800451c:	ea42 0206 	orr.w	r2, r2, r6
  if (IS_TIM_CCXN_INSTANCE(TIMx, TIM_CHANNEL_3))
 8004520:	d00a      	beq.n	8004538 <TIM_OC3_SetConfig+0x40>
 8004522:	f505 6580 	add.w	r5, r5, #1024	; 0x400
 8004526:	42a8      	cmp	r0, r5
 8004528:	d006      	beq.n	8004538 <TIM_OC3_SetConfig+0x40>

  /* Write to TIMx CCMR2 */
  TIMx->CCMR2 = tmpccmrx;

  /* Set the Capture Compare Register value */
  TIMx->CCR3 = OC_Config->Pulse;
 800452a:	6849      	ldr	r1, [r1, #4]
  TIMx->CR2 = tmpcr2;
 800452c:	6044      	str	r4, [r0, #4]
  TIMx->CCMR2 = tmpccmrx;
 800452e:	61c2      	str	r2, [r0, #28]

  /* Write to TIMx CCER */
  TIMx->CCER = tmpccer;
}
 8004530:	bcf0      	pop	{r4, r5, r6, r7}
  TIMx->CCR3 = OC_Config->Pulse;
 8004532:	63c1      	str	r1, [r0, #60]	; 0x3c
  TIMx->CCER = tmpccer;
 8004534:	6203      	str	r3, [r0, #32]
}
 8004536:	4770      	bx	lr
    tmpccer |= (OC_Config->OCNPolarity << 8U);
 8004538:	68cd      	ldr	r5, [r1, #12]
    tmpccer &= ~TIM_CCER_CC3NP;
 800453a:	f423 6300 	bic.w	r3, r3, #2048	; 0x800
    tmpccer |= (OC_Config->OCNPolarity << 8U);
 800453e:	ea43 2305 	orr.w	r3, r3, r5, lsl #8
    tmpcr2 |= (OC_Config->OCNIdleState << 4U);
 8004542:	e9d1 5605 	ldrd	r5, r6, [r1, #20]
    tmpcr2 &= ~TIM_CR2_OIS3N;
 8004546:	f424 5440 	bic.w	r4, r4, #12288	; 0x3000
    tmpcr2 |= (OC_Config->OCNIdleState << 4U);
 800454a:	4335      	orrs	r5, r6
    tmpccer &= ~TIM_CCER_CC3NE;
 800454c:	f423 6380 	bic.w	r3, r3, #1024	; 0x400
    tmpcr2 |= (OC_Config->OCNIdleState << 4U);
 8004550:	ea44 1405 	orr.w	r4, r4, r5, lsl #4
 8004554:	e7e9      	b.n	800452a <TIM_OC3_SetConfig+0x32>
 8004556:	bf00      	nop
 8004558:	40010000 	.word	0x40010000

0800455c <TIM_OC4_SetConfig>:
  * @param  TIMx to select the TIM peripheral
  * @param  OC_Config The ouput configuration structure
  * @retval None
  */
static void TIM_OC4_SetConfig(TIM_TypeDef *TIMx, TIM_OC_InitTypeDef *OC_Config)
{
 800455c:	b4f0      	push	{r4, r5, r6, r7}
  uint32_t tmpccmrx;
  uint32_t tmpccer;
  uint32_t tmpcr2;

  /* Disable the Channel 4: Reset the CC4E Bit */
  TIMx->CCER &= ~TIM_CCER_CC4E;
 800455e:	6a04      	ldr	r4, [r0, #32]
  tmpccmrx |= (OC_Config->OCMode << 8U);

  /* Reset the Output Polarity level */
  tmpccer &= ~TIM_CCER_CC4P;
  /* Set the Output Compare Polarity */
  tmpccer |= (OC_Config->OCPolarity << 12U);
 8004560:	688f      	ldr	r7, [r1, #8]
  tmpccmrx |= (OC_Config->OCMode << 8U);
 8004562:	680e      	ldr	r6, [r1, #0]

  if (IS_TIM_BREAK_INSTANCE(TIMx))
 8004564:	4d10      	ldr	r5, [pc, #64]	; (80045a8 <TIM_OC4_SetConfig+0x4c>)
  TIMx->CCER &= ~TIM_CCER_CC4E;
 8004566:	f424 5480 	bic.w	r4, r4, #4096	; 0x1000
 800456a:	6204      	str	r4, [r0, #32]
  tmpccer = TIMx->CCER;
 800456c:	6a03      	ldr	r3, [r0, #32]
  tmpcr2 =  TIMx->CR2;
 800456e:	6844      	ldr	r4, [r0, #4]
  tmpccmrx = TIMx->CCMR2;
 8004570:	69c2      	ldr	r2, [r0, #28]
  tmpccer &= ~TIM_CCER_CC4P;
 8004572:	f423 5300 	bic.w	r3, r3, #8192	; 0x2000
  tmpccmrx &= ~TIM_CCMR2_CC4S;
 8004576:	f422 42e6 	bic.w	r2, r2, #29440	; 0x7300
  if (IS_TIM_BREAK_INSTANCE(TIMx))
 800457a:	42a8      	cmp	r0, r5
  tmpccer |= (OC_Config->OCPolarity << 12U);
 800457c:	ea43 3307 	orr.w	r3, r3, r7, lsl #12
  tmpccmrx |= (OC_Config->OCMode << 8U);
 8004580:	ea42 2206 	orr.w	r2, r2, r6, lsl #8
  if (IS_TIM_BREAK_INSTANCE(TIMx))
 8004584:	d00a      	beq.n	800459c <TIM_OC4_SetConfig+0x40>
 8004586:	f505 6580 	add.w	r5, r5, #1024	; 0x400
 800458a:	42a8      	cmp	r0, r5
 800458c:	d006      	beq.n	800459c <TIM_OC4_SetConfig+0x40>

  /* Write to TIMx CCMR2 */
  TIMx->CCMR2 = tmpccmrx;

  /* Set the Capture Compare Register value */
  TIMx->CCR4 = OC_Config->Pulse;
 800458e:	6849      	ldr	r1, [r1, #4]
  TIMx->CR2 = tmpcr2;
 8004590:	6044      	str	r4, [r0, #4]
  TIMx->CCMR2 = tmpccmrx;
 8004592:	61c2      	str	r2, [r0, #28]

  /* Write to TIMx CCER */
  TIMx->CCER = tmpccer;
}
 8004594:	bcf0      	pop	{r4, r5, r6, r7}
  TIMx->CCR4 = OC_Config->Pulse;
 8004596:	6401      	str	r1, [r0, #64]	; 0x40
  TIMx->CCER = tmpccer;
 8004598:	6203      	str	r3, [r0, #32]
}
 800459a:	4770      	bx	lr
    tmpcr2 |= (OC_Config->OCIdleState << 6U);
 800459c:	694d      	ldr	r5, [r1, #20]
    tmpcr2 &= ~TIM_CR2_OIS4;
 800459e:	f424 4480 	bic.w	r4, r4, #16384	; 0x4000
    tmpcr2 |= (OC_Config->OCIdleState << 6U);
 80045a2:	ea44 1485 	orr.w	r4, r4, r5, lsl #6
 80045a6:	e7f2      	b.n	800458e <TIM_OC4_SetConfig+0x32>
 80045a8:	40010000 	.word	0x40010000

080045ac <HAL_TIM_Base_Start_IT>:
  __HAL_TIM_ENABLE_IT(htim, TIM_IT_UPDATE);
 80045ac:	6803      	ldr	r3, [r0, #0]
 80045ae:	68da      	ldr	r2, [r3, #12]
 80045b0:	f042 0201 	orr.w	r2, r2, #1
 80045b4:	60da      	str	r2, [r3, #12]
  tmpsmcr = htim->Instance->SMCR & TIM_SMCR_SMS;
 80045b6:	689a      	ldr	r2, [r3, #8]
 80045b8:	f002 0207 	and.w	r2, r2, #7
  if (!IS_TIM_SLAVEMODE_TRIGGER_ENABLED(tmpsmcr))
 80045bc:	2a06      	cmp	r2, #6
 80045be:	d003      	beq.n	80045c8 <HAL_TIM_Base_Start_IT+0x1c>
    __HAL_TIM_ENABLE(htim);
 80045c0:	681a      	ldr	r2, [r3, #0]
 80045c2:	f042 0201 	orr.w	r2, r2, #1
 80045c6:	601a      	str	r2, [r3, #0]
}
 80045c8:	2000      	movs	r0, #0
 80045ca:	4770      	bx	lr

080045cc <HAL_TIM_OC_Start>:
  TIM_CCxChannelCmd(htim->Instance, Channel, TIM_CCx_ENABLE);
 80045cc:	6803      	ldr	r3, [r0, #0]

  /* Check the parameters */
  assert_param(IS_TIM_CC1_INSTANCE(TIMx));
  assert_param(IS_TIM_CHANNELS(Channel));

  tmp = TIM_CCER_CC1E << (Channel & 0x1FU); /* 0x1FU = 31 bits max shift */
 80045ce:	2201      	movs	r2, #1

  /* Reset the CCxE Bit */
  TIMx->CCER &= ~tmp;
 80045d0:	6a18      	ldr	r0, [r3, #32]
  tmp = TIM_CCER_CC1E << (Channel & 0x1FU); /* 0x1FU = 31 bits max shift */
 80045d2:	f001 011f 	and.w	r1, r1, #31
 80045d6:	fa02 f101 	lsl.w	r1, r2, r1
  TIMx->CCER &= ~tmp;
 80045da:	ea20 0001 	bic.w	r0, r0, r1
{
 80045de:	b410      	push	{r4}
  TIMx->CCER &= ~tmp;
 80045e0:	6218      	str	r0, [r3, #32]

  /* Set or reset the CCxE Bit */
  TIMx->CCER |= (uint32_t)(ChannelState << (Channel & 0x1FU)); /* 0x1FU = 31 bits max shift */
 80045e2:	6a1a      	ldr	r2, [r3, #32]
  if (IS_TIM_BREAK_INSTANCE(htim->Instance) != RESET)
 80045e4:	4c0c      	ldr	r4, [pc, #48]	; (8004618 <HAL_TIM_OC_Start+0x4c>)
  TIMx->CCER |= (uint32_t)(ChannelState << (Channel & 0x1FU)); /* 0x1FU = 31 bits max shift */
 80045e6:	4311      	orrs	r1, r2
  if (IS_TIM_BREAK_INSTANCE(htim->Instance) != RESET)
 80045e8:	42a3      	cmp	r3, r4
  TIMx->CCER |= (uint32_t)(ChannelState << (Channel & 0x1FU)); /* 0x1FU = 31 bits max shift */
 80045ea:	6219      	str	r1, [r3, #32]
  if (IS_TIM_BREAK_INSTANCE(htim->Instance) != RESET)
 80045ec:	d00f      	beq.n	800460e <HAL_TIM_OC_Start+0x42>
 80045ee:	4a0b      	ldr	r2, [pc, #44]	; (800461c <HAL_TIM_OC_Start+0x50>)
 80045f0:	4293      	cmp	r3, r2
 80045f2:	d00c      	beq.n	800460e <HAL_TIM_OC_Start+0x42>
  tmpsmcr = htim->Instance->SMCR & TIM_SMCR_SMS;
 80045f4:	689a      	ldr	r2, [r3, #8]
 80045f6:	f002 0207 	and.w	r2, r2, #7
  if (!IS_TIM_SLAVEMODE_TRIGGER_ENABLED(tmpsmcr))
 80045fa:	2a06      	cmp	r2, #6
 80045fc:	d003      	beq.n	8004606 <HAL_TIM_OC_Start+0x3a>
    __HAL_TIM_ENABLE(htim);
 80045fe:	681a      	ldr	r2, [r3, #0]
 8004600:	f042 0201 	orr.w	r2, r2, #1
 8004604:	601a      	str	r2, [r3, #0]
}
 8004606:	2000      	movs	r0, #0
 8004608:	f85d 4b04 	ldr.w	r4, [sp], #4
 800460c:	4770      	bx	lr
    __HAL_TIM_MOE_ENABLE(htim);
 800460e:	6c5a      	ldr	r2, [r3, #68]	; 0x44
 8004610:	f442 4200 	orr.w	r2, r2, #32768	; 0x8000
 8004614:	645a      	str	r2, [r3, #68]	; 0x44
 8004616:	e7ed      	b.n	80045f4 <HAL_TIM_OC_Start+0x28>
 8004618:	40010000 	.word	0x40010000
 800461c:	40010400 	.word	0x40010400

08004620 <HAL_TIM_PWM_Start>:
 8004620:	f7ff bfd4 	b.w	80045cc <HAL_TIM_OC_Start>

08004624 <HAL_TIM_OC_DelayElapsedCallback>:
 8004624:	4770      	bx	lr
 8004626:	bf00      	nop

08004628 <HAL_TIM_IC_CaptureCallback>:
 8004628:	4770      	bx	lr
 800462a:	bf00      	nop

0800462c <HAL_TIM_PWM_PulseFinishedCallback>:
 800462c:	4770      	bx	lr
 800462e:	bf00      	nop

08004630 <HAL_TIM_TriggerCallback>:
 8004630:	4770      	bx	lr
 8004632:	bf00      	nop

08004634 <HAL_TIM_IRQHandler>:
  if (__HAL_TIM_GET_FLAG(htim, TIM_FLAG_CC1) != RESET)
 8004634:	6803      	ldr	r3, [r0, #0]
 8004636:	691a      	ldr	r2, [r3, #16]
 8004638:	0791      	lsls	r1, r2, #30
{
 800463a:	b510      	push	{r4, lr}
 800463c:	4604      	mov	r4, r0
  if (__HAL_TIM_GET_FLAG(htim, TIM_FLAG_CC1) != RESET)
 800463e:	d502      	bpl.n	8004646 <HAL_TIM_IRQHandler+0x12>
    if (__HAL_TIM_GET_IT_SOURCE(htim, TIM_IT_CC1) != RESET)
 8004640:	68da      	ldr	r2, [r3, #12]
 8004642:	0792      	lsls	r2, r2, #30
 8004644:	d45f      	bmi.n	8004706 <HAL_TIM_IRQHandler+0xd2>
  if (__HAL_TIM_GET_FLAG(htim, TIM_FLAG_CC2) != RESET)
 8004646:	691a      	ldr	r2, [r3, #16]
 8004648:	0750      	lsls	r0, r2, #29
 800464a:	d502      	bpl.n	8004652 <HAL_TIM_IRQHandler+0x1e>
    if (__HAL_TIM_GET_IT_SOURCE(htim, TIM_IT_CC2) != RESET)
 800464c:	68da      	ldr	r2, [r3, #12]
 800464e:	0751      	lsls	r1, r2, #29
 8004650:	d446      	bmi.n	80046e0 <HAL_TIM_IRQHandler+0xac>
  if (__HAL_TIM_GET_FLAG(htim, TIM_FLAG_CC3) != RESET)
 8004652:	691a      	ldr	r2, [r3, #16]
 8004654:	0712      	lsls	r2, r2, #28
 8004656:	d502      	bpl.n	800465e <HAL_TIM_IRQHandler+0x2a>
    if (__HAL_TIM_GET_IT_SOURCE(htim, TIM_IT_CC3) != RESET)
 8004658:	68da      	ldr	r2, [r3, #12]
 800465a:	0710      	lsls	r0, r2, #28
 800465c:	d42e      	bmi.n	80046bc <HAL_TIM_IRQHandler+0x88>
  if (__HAL_TIM_GET_FLAG(htim, TIM_FLAG_CC4) != RESET)
 800465e:	691a      	ldr	r2, [r3, #16]
 8004660:	06d2      	lsls	r2, r2, #27
 8004662:	d502      	bpl.n	800466a <HAL_TIM_IRQHandler+0x36>
    if (__HAL_TIM_GET_IT_SOURCE(htim, TIM_IT_CC4) != RESET)
 8004664:	68da      	ldr	r2, [r3, #12]
 8004666:	06d0      	lsls	r0, r2, #27
 8004668:	d418      	bmi.n	800469c <HAL_TIM_IRQHandler+0x68>
  if (__HAL_TIM_GET_FLAG(htim, TIM_FLAG_UPDATE) != RESET)
 800466a:	691a      	ldr	r2, [r3, #16]
 800466c:	07d1      	lsls	r1, r2, #31
 800466e:	d502      	bpl.n	8004676 <HAL_TIM_IRQHandler+0x42>
    if (__HAL_TIM_GET_IT_SOURCE(htim, TIM_IT_UPDATE) != RESET)
 8004670:	68da      	ldr	r2, [r3, #12]
 8004672:	07d2      	lsls	r2, r2, #31
 8004674:	d45d      	bmi.n	8004732 <HAL_TIM_IRQHandler+0xfe>
  if (__HAL_TIM_GET_FLAG(htim, TIM_FLAG_BREAK) != RESET)
 8004676:	691a      	ldr	r2, [r3, #16]
 8004678:	0610      	lsls	r0, r2, #24
 800467a:	d502      	bpl.n	8004682 <HAL_TIM_IRQHandler+0x4e>
    if (__HAL_TIM_GET_IT_SOURCE(htim, TIM_IT_BREAK) != RESET)
 800467c:	68da      	ldr	r2, [r3, #12]
 800467e:	0611      	lsls	r1, r2, #24
 8004680:	d45f      	bmi.n	8004742 <HAL_TIM_IRQHandler+0x10e>
  if (__HAL_TIM_GET_FLAG(htim, TIM_FLAG_TRIGGER) != RESET)
 8004682:	691a      	ldr	r2, [r3, #16]
 8004684:	0652      	lsls	r2, r2, #25
 8004686:	d502      	bpl.n	800468e <HAL_TIM_IRQHandler+0x5a>
    if (__HAL_TIM_GET_IT_SOURCE(htim, TIM_IT_TRIGGER) != RESET)
 8004688:	68da      	ldr	r2, [r3, #12]
 800468a:	0650      	lsls	r0, r2, #25
 800468c:	d461      	bmi.n	8004752 <HAL_TIM_IRQHandler+0x11e>
  if (__HAL_TIM_GET_FLAG(htim, TIM_FLAG_COM) != RESET)
 800468e:	691a      	ldr	r2, [r3, #16]
 8004690:	0691      	lsls	r1, r2, #26
 8004692:	d502      	bpl.n	800469a <HAL_TIM_IRQHandler+0x66>
    if (__HAL_TIM_GET_IT_SOURCE(htim, TIM_IT_COM) != RESET)
 8004694:	68da      	ldr	r2, [r3, #12]
 8004696:	0692      	lsls	r2, r2, #26
 8004698:	d443      	bmi.n	8004722 <HAL_TIM_IRQHandler+0xee>
}
 800469a:	bd10      	pop	{r4, pc}
      __HAL_TIM_CLEAR_IT(htim, TIM_IT_CC4);
 800469c:	f06f 0210 	mvn.w	r2, #16
 80046a0:	611a      	str	r2, [r3, #16]
      if ((htim->Instance->CCMR2 & TIM_CCMR2_CC4S) != 0x00U)
 80046a2:	69db      	ldr	r3, [r3, #28]
      htim->Channel = HAL_TIM_ACTIVE_CHANNEL_4;
 80046a4:	2208      	movs	r2, #8
      if ((htim->Instance->CCMR2 & TIM_CCMR2_CC4S) != 0x00U)
 80046a6:	f413 7f40 	tst.w	r3, #768	; 0x300
      htim->Channel = HAL_TIM_ACTIVE_CHANNEL_4;
 80046aa:	7722      	strb	r2, [r4, #28]
        HAL_TIM_IC_CaptureCallback(htim);
 80046ac:	4620      	mov	r0, r4
      if ((htim->Instance->CCMR2 & TIM_CCMR2_CC4S) != 0x00U)
 80046ae:	d064      	beq.n	800477a <HAL_TIM_IRQHandler+0x146>
        HAL_TIM_IC_CaptureCallback(htim);
 80046b0:	f7ff ffba 	bl	8004628 <HAL_TIM_IC_CaptureCallback>
      htim->Channel = HAL_TIM_ACTIVE_CHANNEL_CLEARED;
 80046b4:	2200      	movs	r2, #0
 80046b6:	6823      	ldr	r3, [r4, #0]
 80046b8:	7722      	strb	r2, [r4, #28]
 80046ba:	e7d6      	b.n	800466a <HAL_TIM_IRQHandler+0x36>
      __HAL_TIM_CLEAR_IT(htim, TIM_IT_CC3);
 80046bc:	f06f 0208 	mvn.w	r2, #8
 80046c0:	611a      	str	r2, [r3, #16]
      if ((htim->Instance->CCMR2 & TIM_CCMR2_CC3S) != 0x00U)
 80046c2:	69db      	ldr	r3, [r3, #28]
      htim->Channel = HAL_TIM_ACTIVE_CHANNEL_3;
 80046c4:	2204      	movs	r2, #4
      if ((htim->Instance->CCMR2 & TIM_CCMR2_CC3S) != 0x00U)
 80046c6:	0799      	lsls	r1, r3, #30
      htim->Channel = HAL_TIM_ACTIVE_CHANNEL_3;
 80046c8:	7722      	strb	r2, [r4, #28]
        HAL_TIM_IC_CaptureCallback(htim);
 80046ca:	4620      	mov	r0, r4
      if ((htim->Instance->CCMR2 & TIM_CCMR2_CC3S) != 0x00U)
 80046cc:	d152      	bne.n	8004774 <HAL_TIM_IRQHandler+0x140>
        HAL_TIM_OC_DelayElapsedCallback(htim);
 80046ce:	f7ff ffa9 	bl	8004624 <HAL_TIM_OC_DelayElapsedCallback>
        HAL_TIM_PWM_PulseFinishedCallback(htim);
 80046d2:	4620      	mov	r0, r4
 80046d4:	f7ff ffaa 	bl	800462c <HAL_TIM_PWM_PulseFinishedCallback>
      htim->Channel = HAL_TIM_ACTIVE_CHANNEL_CLEARED;
 80046d8:	2200      	movs	r2, #0
 80046da:	6823      	ldr	r3, [r4, #0]
 80046dc:	7722      	strb	r2, [r4, #28]
 80046de:	e7be      	b.n	800465e <HAL_TIM_IRQHandler+0x2a>
      __HAL_TIM_CLEAR_IT(htim, TIM_IT_CC2);
 80046e0:	f06f 0204 	mvn.w	r2, #4
 80046e4:	611a      	str	r2, [r3, #16]
      if ((htim->Instance->CCMR1 & TIM_CCMR1_CC2S) != 0x00U)
 80046e6:	699b      	ldr	r3, [r3, #24]
      htim->Channel = HAL_TIM_ACTIVE_CHANNEL_2;
 80046e8:	2202      	movs	r2, #2
      if ((htim->Instance->CCMR1 & TIM_CCMR1_CC2S) != 0x00U)
 80046ea:	f413 7f40 	tst.w	r3, #768	; 0x300
      htim->Channel = HAL_TIM_ACTIVE_CHANNEL_2;
 80046ee:	7722      	strb	r2, [r4, #28]
        HAL_TIM_IC_CaptureCallback(htim);
 80046f0:	4620      	mov	r0, r4
      if ((htim->Instance->CCMR1 & TIM_CCMR1_CC2S) != 0x00U)
 80046f2:	d13c      	bne.n	800476e <HAL_TIM_IRQHandler+0x13a>
        HAL_TIM_OC_DelayElapsedCallback(htim);
 80046f4:	f7ff ff96 	bl	8004624 <HAL_TIM_OC_DelayElapsedCallback>
        HAL_TIM_PWM_PulseFinishedCallback(htim);
 80046f8:	4620      	mov	r0, r4
 80046fa:	f7ff ff97 	bl	800462c <HAL_TIM_PWM_PulseFinishedCallback>
      htim->Channel = HAL_TIM_ACTIVE_CHANNEL_CLEARED;
 80046fe:	2200      	movs	r2, #0
 8004700:	6823      	ldr	r3, [r4, #0]
 8004702:	7722      	strb	r2, [r4, #28]
 8004704:	e7a5      	b.n	8004652 <HAL_TIM_IRQHandler+0x1e>
        __HAL_TIM_CLEAR_IT(htim, TIM_IT_CC1);
 8004706:	f06f 0202 	mvn.w	r2, #2
 800470a:	611a      	str	r2, [r3, #16]
        if ((htim->Instance->CCMR1 & TIM_CCMR1_CC1S) != 0x00U)
 800470c:	699b      	ldr	r3, [r3, #24]
        htim->Channel = HAL_TIM_ACTIVE_CHANNEL_1;
 800470e:	2201      	movs	r2, #1
        if ((htim->Instance->CCMR1 & TIM_CCMR1_CC1S) != 0x00U)
 8004710:	079b      	lsls	r3, r3, #30
        htim->Channel = HAL_TIM_ACTIVE_CHANNEL_1;
 8004712:	7702      	strb	r2, [r0, #28]
        if ((htim->Instance->CCMR1 & TIM_CCMR1_CC1S) != 0x00U)
 8004714:	d025      	beq.n	8004762 <HAL_TIM_IRQHandler+0x12e>
          HAL_TIM_IC_CaptureCallback(htim);
 8004716:	f7ff ff87 	bl	8004628 <HAL_TIM_IC_CaptureCallback>
        htim->Channel = HAL_TIM_ACTIVE_CHANNEL_CLEARED;
 800471a:	2200      	movs	r2, #0
 800471c:	6823      	ldr	r3, [r4, #0]
 800471e:	7722      	strb	r2, [r4, #28]
 8004720:	e791      	b.n	8004646 <HAL_TIM_IRQHandler+0x12>
      __HAL_TIM_CLEAR_IT(htim, TIM_FLAG_COM);
 8004722:	f06f 0220 	mvn.w	r2, #32
      HAL_TIMEx_CommutCallback(htim);
 8004726:	4620      	mov	r0, r4
      __HAL_TIM_CLEAR_IT(htim, TIM_FLAG_COM);
 8004728:	611a      	str	r2, [r3, #16]
}
 800472a:	e8bd 4010 	ldmia.w	sp!, {r4, lr}
      HAL_TIMEx_CommutCallback(htim);
 800472e:	f000 b9c9 	b.w	8004ac4 <HAL_TIMEx_CommutCallback>
      __HAL_TIM_CLEAR_IT(htim, TIM_IT_UPDATE);
 8004732:	f06f 0201 	mvn.w	r2, #1
 8004736:	611a      	str	r2, [r3, #16]
      HAL_TIM_PeriodElapsedCallback(htim);
 8004738:	4620      	mov	r0, r4
 800473a:	f7fd f95d 	bl	80019f8 <HAL_TIM_PeriodElapsedCallback>
 800473e:	6823      	ldr	r3, [r4, #0]
 8004740:	e799      	b.n	8004676 <HAL_TIM_IRQHandler+0x42>
      __HAL_TIM_CLEAR_IT(htim, TIM_IT_BREAK);
 8004742:	f06f 0280 	mvn.w	r2, #128	; 0x80
 8004746:	611a      	str	r2, [r3, #16]
      HAL_TIMEx_BreakCallback(htim);
 8004748:	4620      	mov	r0, r4
 800474a:	f000 f9bd 	bl	8004ac8 <HAL_TIMEx_BreakCallback>
 800474e:	6823      	ldr	r3, [r4, #0]
 8004750:	e797      	b.n	8004682 <HAL_TIM_IRQHandler+0x4e>
      __HAL_TIM_CLEAR_IT(htim, TIM_IT_TRIGGER);
 8004752:	f06f 0240 	mvn.w	r2, #64	; 0x40
 8004756:	611a      	str	r2, [r3, #16]
      HAL_TIM_TriggerCallback(htim);
 8004758:	4620      	mov	r0, r4
 800475a:	f7ff ff69 	bl	8004630 <HAL_TIM_TriggerCallback>
 800475e:	6823      	ldr	r3, [r4, #0]
 8004760:	e795      	b.n	800468e <HAL_TIM_IRQHandler+0x5a>
          HAL_TIM_OC_DelayElapsedCallback(htim);
 8004762:	f7ff ff5f 	bl	8004624 <HAL_TIM_OC_DelayElapsedCallback>
          HAL_TIM_PWM_PulseFinishedCallback(htim);
 8004766:	4620      	mov	r0, r4
 8004768:	f7ff ff60 	bl	800462c <HAL_TIM_PWM_PulseFinishedCallback>
 800476c:	e7d5      	b.n	800471a <HAL_TIM_IRQHandler+0xe6>
        HAL_TIM_IC_CaptureCallback(htim);
 800476e:	f7ff ff5b 	bl	8004628 <HAL_TIM_IC_CaptureCallback>
 8004772:	e7c4      	b.n	80046fe <HAL_TIM_IRQHandler+0xca>
        HAL_TIM_IC_CaptureCallback(htim);
 8004774:	f7ff ff58 	bl	8004628 <HAL_TIM_IC_CaptureCallback>
 8004778:	e7ae      	b.n	80046d8 <HAL_TIM_IRQHandler+0xa4>
        HAL_TIM_OC_DelayElapsedCallback(htim);
 800477a:	f7ff ff53 	bl	8004624 <HAL_TIM_OC_DelayElapsedCallback>
        HAL_TIM_PWM_PulseFinishedCallback(htim);
 800477e:	4620      	mov	r0, r4
 8004780:	f7ff ff54 	bl	800462c <HAL_TIM_PWM_PulseFinishedCallback>
 8004784:	e796      	b.n	80046b4 <HAL_TIM_IRQHandler+0x80>
 8004786:	bf00      	nop

08004788 <TIM_Base_SetConfig>:
{
 8004788:	b4f0      	push	{r4, r5, r6, r7}
  if (IS_TIM_COUNTER_MODE_SELECT_INSTANCE(TIMx))
 800478a:	4e36      	ldr	r6, [pc, #216]	; (8004864 <TIM_Base_SetConfig+0xdc>)
  tmpcr1 = TIMx->CR1;
 800478c:	6803      	ldr	r3, [r0, #0]
 800478e:	694d      	ldr	r5, [r1, #20]
 8004790:	688c      	ldr	r4, [r1, #8]
 8004792:	680a      	ldr	r2, [r1, #0]
  if (IS_TIM_COUNTER_MODE_SELECT_INSTANCE(TIMx))
 8004794:	42b0      	cmp	r0, r6
 8004796:	d055      	beq.n	8004844 <TIM_Base_SetConfig+0xbc>
 8004798:	f1b0 4f80 	cmp.w	r0, #1073741824	; 0x40000000
 800479c:	d029      	beq.n	80047f2 <TIM_Base_SetConfig+0x6a>
 800479e:	f5a6 467c 	sub.w	r6, r6, #64512	; 0xfc00
 80047a2:	42b0      	cmp	r0, r6
 80047a4:	d037      	beq.n	8004816 <TIM_Base_SetConfig+0x8e>
 80047a6:	f506 6680 	add.w	r6, r6, #1024	; 0x400
 80047aa:	42b0      	cmp	r0, r6
 80047ac:	d033      	beq.n	8004816 <TIM_Base_SetConfig+0x8e>
 80047ae:	f506 6680 	add.w	r6, r6, #1024	; 0x400
 80047b2:	42b0      	cmp	r0, r6
 80047b4:	d02f      	beq.n	8004816 <TIM_Base_SetConfig+0x8e>
 80047b6:	f506 4678 	add.w	r6, r6, #63488	; 0xf800
 80047ba:	42b0      	cmp	r0, r6
 80047bc:	d02b      	beq.n	8004816 <TIM_Base_SetConfig+0x8e>
  if (IS_TIM_CLOCK_DIVISION_INSTANCE(TIMx))
 80047be:	f506 5670 	add.w	r6, r6, #15360	; 0x3c00
 80047c2:	42b0      	cmp	r0, r6
 80047c4:	d013      	beq.n	80047ee <TIM_Base_SetConfig+0x66>
 80047c6:	f506 6680 	add.w	r6, r6, #1024	; 0x400
 80047ca:	42b0      	cmp	r0, r6
 80047cc:	d00f      	beq.n	80047ee <TIM_Base_SetConfig+0x66>
 80047ce:	f506 6680 	add.w	r6, r6, #1024	; 0x400
 80047d2:	42b0      	cmp	r0, r6
 80047d4:	d00b      	beq.n	80047ee <TIM_Base_SetConfig+0x66>
 80047d6:	f5a6 3698 	sub.w	r6, r6, #77824	; 0x13000
 80047da:	42b0      	cmp	r0, r6
 80047dc:	d007      	beq.n	80047ee <TIM_Base_SetConfig+0x66>
 80047de:	f506 6680 	add.w	r6, r6, #1024	; 0x400
 80047e2:	42b0      	cmp	r0, r6
 80047e4:	d003      	beq.n	80047ee <TIM_Base_SetConfig+0x66>
 80047e6:	f506 6680 	add.w	r6, r6, #1024	; 0x400
 80047ea:	42b0      	cmp	r0, r6
 80047ec:	d109      	bne.n	8004802 <TIM_Base_SetConfig+0x7a>
    tmpcr1 |= (uint32_t)Structure->ClockDivision;
 80047ee:	68c9      	ldr	r1, [r1, #12]
 80047f0:	e004      	b.n	80047fc <TIM_Base_SetConfig+0x74>
    tmpcr1 |= Structure->CounterMode;
 80047f2:	684e      	ldr	r6, [r1, #4]
    tmpcr1 |= (uint32_t)Structure->ClockDivision;
 80047f4:	68c9      	ldr	r1, [r1, #12]
    tmpcr1 &= ~(TIM_CR1_DIR | TIM_CR1_CMS);
 80047f6:	f023 0370 	bic.w	r3, r3, #112	; 0x70
    tmpcr1 |= Structure->CounterMode;
 80047fa:	4333      	orrs	r3, r6
    tmpcr1 &= ~TIM_CR1_CKD;
 80047fc:	f423 7340 	bic.w	r3, r3, #768	; 0x300
    tmpcr1 |= (uint32_t)Structure->ClockDivision;
 8004800:	430b      	orrs	r3, r1
  MODIFY_REG(tmpcr1, TIM_CR1_ARPE, Structure->AutoReloadPreload);
 8004802:	f023 0380 	bic.w	r3, r3, #128	; 0x80
 8004806:	432b      	orrs	r3, r5
  TIMx->CR1 = tmpcr1;
 8004808:	6003      	str	r3, [r0, #0]
  TIMx->ARR = (uint32_t)Structure->Period ;
 800480a:	62c4      	str	r4, [r0, #44]	; 0x2c
  TIMx->PSC = Structure->Prescaler;
 800480c:	6282      	str	r2, [r0, #40]	; 0x28
  TIMx->EGR = TIM_EGR_UG;
 800480e:	2301      	movs	r3, #1
 8004810:	6143      	str	r3, [r0, #20]
}
 8004812:	bcf0      	pop	{r4, r5, r6, r7}
 8004814:	4770      	bx	lr
    tmpcr1 |= Structure->CounterMode;
 8004816:	684e      	ldr	r6, [r1, #4]
  if (IS_TIM_REPETITION_COUNTER_INSTANCE(TIMx))
 8004818:	4f13      	ldr	r7, [pc, #76]	; (8004868 <TIM_Base_SetConfig+0xe0>)
    tmpcr1 &= ~(TIM_CR1_DIR | TIM_CR1_CMS);
 800481a:	f023 0370 	bic.w	r3, r3, #112	; 0x70
    tmpcr1 |= Structure->CounterMode;
 800481e:	4333      	orrs	r3, r6
    tmpcr1 |= (uint32_t)Structure->ClockDivision;
 8004820:	68ce      	ldr	r6, [r1, #12]
    tmpcr1 &= ~TIM_CR1_CKD;
 8004822:	f423 7340 	bic.w	r3, r3, #768	; 0x300
    tmpcr1 |= (uint32_t)Structure->ClockDivision;
 8004826:	4333      	orrs	r3, r6
  MODIFY_REG(tmpcr1, TIM_CR1_ARPE, Structure->AutoReloadPreload);
 8004828:	f023 0380 	bic.w	r3, r3, #128	; 0x80
 800482c:	432b      	orrs	r3, r5
  if (IS_TIM_REPETITION_COUNTER_INSTANCE(TIMx))
 800482e:	42b8      	cmp	r0, r7
  TIMx->CR1 = tmpcr1;
 8004830:	6003      	str	r3, [r0, #0]
  TIMx->ARR = (uint32_t)Structure->Period ;
 8004832:	62c4      	str	r4, [r0, #44]	; 0x2c
  TIMx->PSC = Structure->Prescaler;
 8004834:	6282      	str	r2, [r0, #40]	; 0x28
  if (IS_TIM_REPETITION_COUNTER_INSTANCE(TIMx))
 8004836:	d1ea      	bne.n	800480e <TIM_Base_SetConfig+0x86>
    TIMx->RCR = Structure->RepetitionCounter;
 8004838:	690b      	ldr	r3, [r1, #16]
 800483a:	6303      	str	r3, [r0, #48]	; 0x30
  TIMx->EGR = TIM_EGR_UG;
 800483c:	2301      	movs	r3, #1
 800483e:	6143      	str	r3, [r0, #20]
}
 8004840:	bcf0      	pop	{r4, r5, r6, r7}
 8004842:	4770      	bx	lr
    tmpcr1 |= Structure->CounterMode;
 8004844:	684f      	ldr	r7, [r1, #4]
    tmpcr1 |= (uint32_t)Structure->ClockDivision;
 8004846:	68ce      	ldr	r6, [r1, #12]
    tmpcr1 &= ~(TIM_CR1_DIR | TIM_CR1_CMS);
 8004848:	f023 0370 	bic.w	r3, r3, #112	; 0x70
    tmpcr1 |= Structure->CounterMode;
 800484c:	433b      	orrs	r3, r7
    tmpcr1 &= ~TIM_CR1_CKD;
 800484e:	f423 7340 	bic.w	r3, r3, #768	; 0x300
    tmpcr1 |= (uint32_t)Structure->ClockDivision;
 8004852:	4333      	orrs	r3, r6
  MODIFY_REG(tmpcr1, TIM_CR1_ARPE, Structure->AutoReloadPreload);
 8004854:	f023 0380 	bic.w	r3, r3, #128	; 0x80
 8004858:	432b      	orrs	r3, r5
  TIMx->CR1 = tmpcr1;
 800485a:	6003      	str	r3, [r0, #0]
  TIMx->ARR = (uint32_t)Structure->Period ;
 800485c:	62c4      	str	r4, [r0, #44]	; 0x2c
  TIMx->PSC = Structure->Prescaler;
 800485e:	6282      	str	r2, [r0, #40]	; 0x28
 8004860:	e7ea      	b.n	8004838 <TIM_Base_SetConfig+0xb0>
 8004862:	bf00      	nop
 8004864:	40010000 	.word	0x40010000
 8004868:	40010400 	.word	0x40010400

0800486c <HAL_TIM_Base_Init>:
  if (htim == NULL)
 800486c:	b1b8      	cbz	r0, 800489e <HAL_TIM_Base_Init+0x32>
  if (htim->State == HAL_TIM_STATE_RESET)
 800486e:	f890 303d 	ldrb.w	r3, [r0, #61]	; 0x3d
{
 8004872:	b510      	push	{r4, lr}
  if (htim->State == HAL_TIM_STATE_RESET)
 8004874:	f003 02ff 	and.w	r2, r3, #255	; 0xff
 8004878:	4604      	mov	r4, r0
 800487a:	b15b      	cbz	r3, 8004894 <HAL_TIM_Base_Init+0x28>
  htim->State = HAL_TIM_STATE_BUSY;
 800487c:	2302      	movs	r3, #2
 800487e:	f884 303d 	strb.w	r3, [r4, #61]	; 0x3d
  TIM_Base_SetConfig(htim->Instance, &htim->Init);
 8004882:	6820      	ldr	r0, [r4, #0]
 8004884:	1d21      	adds	r1, r4, #4
 8004886:	f7ff ff7f 	bl	8004788 <TIM_Base_SetConfig>
  htim->State = HAL_TIM_STATE_READY;
 800488a:	2301      	movs	r3, #1
 800488c:	f884 303d 	strb.w	r3, [r4, #61]	; 0x3d
  return HAL_OK;
 8004890:	2000      	movs	r0, #0
}
 8004892:	bd10      	pop	{r4, pc}
    htim->Lock = HAL_UNLOCKED;
 8004894:	f880 203c 	strb.w	r2, [r0, #60]	; 0x3c
    HAL_TIM_Base_MspInit(htim);
 8004898:	f7fd fa78 	bl	8001d8c <HAL_TIM_Base_MspInit>
 800489c:	e7ee      	b.n	800487c <HAL_TIM_Base_Init+0x10>
    return HAL_ERROR;
 800489e:	2001      	movs	r0, #1
}
 80048a0:	4770      	bx	lr
 80048a2:	bf00      	nop

080048a4 <HAL_TIM_PWM_Init>:
  if (htim == NULL)
 80048a4:	b1b8      	cbz	r0, 80048d6 <HAL_TIM_PWM_Init+0x32>
  if (htim->State == HAL_TIM_STATE_RESET)
 80048a6:	f890 303d 	ldrb.w	r3, [r0, #61]	; 0x3d
{
 80048aa:	b510      	push	{r4, lr}
  if (htim->State == HAL_TIM_STATE_RESET)
 80048ac:	f003 02ff 	and.w	r2, r3, #255	; 0xff
 80048b0:	4604      	mov	r4, r0
 80048b2:	b15b      	cbz	r3, 80048cc <HAL_TIM_PWM_Init+0x28>
  htim->State = HAL_TIM_STATE_BUSY;
 80048b4:	2302      	movs	r3, #2
 80048b6:	f884 303d 	strb.w	r3, [r4, #61]	; 0x3d
  TIM_Base_SetConfig(htim->Instance, &htim->Init);
 80048ba:	6820      	ldr	r0, [r4, #0]
 80048bc:	1d21      	adds	r1, r4, #4
 80048be:	f7ff ff63 	bl	8004788 <TIM_Base_SetConfig>
  htim->State = HAL_TIM_STATE_READY;
 80048c2:	2301      	movs	r3, #1
 80048c4:	f884 303d 	strb.w	r3, [r4, #61]	; 0x3d
  return HAL_OK;
 80048c8:	2000      	movs	r0, #0
}
 80048ca:	bd10      	pop	{r4, pc}
    htim->Lock = HAL_UNLOCKED;
 80048cc:	f880 203c 	strb.w	r2, [r0, #60]	; 0x3c
    HAL_TIM_PWM_MspInit(htim);
 80048d0:	f7fd fa44 	bl	8001d5c <HAL_TIM_PWM_MspInit>
 80048d4:	e7ee      	b.n	80048b4 <HAL_TIM_PWM_Init+0x10>
    return HAL_ERROR;
 80048d6:	2001      	movs	r0, #1
}
 80048d8:	4770      	bx	lr
 80048da:	bf00      	nop

080048dc <TIM_OC2_SetConfig>:
{
 80048dc:	b4f0      	push	{r4, r5, r6, r7}
  TIMx->CCER &= ~TIM_CCER_CC2E;
 80048de:	6a04      	ldr	r4, [r0, #32]
  tmpccer |= (OC_Config->OCPolarity << 4U);
 80048e0:	688f      	ldr	r7, [r1, #8]
  tmpccmrx |= (OC_Config->OCMode << 8U);
 80048e2:	680e      	ldr	r6, [r1, #0]
  if (IS_TIM_CCXN_INSTANCE(TIMx, TIM_CHANNEL_2))
 80048e4:	4d15      	ldr	r5, [pc, #84]	; (800493c <TIM_OC2_SetConfig+0x60>)
  TIMx->CCER &= ~TIM_CCER_CC2E;
 80048e6:	f024 0410 	bic.w	r4, r4, #16
 80048ea:	6204      	str	r4, [r0, #32]
  tmpccer = TIMx->CCER;
 80048ec:	6a03      	ldr	r3, [r0, #32]
  tmpcr2 =  TIMx->CR2;
 80048ee:	6844      	ldr	r4, [r0, #4]
  tmpccmrx = TIMx->CCMR1;
 80048f0:	6982      	ldr	r2, [r0, #24]
  tmpccer &= ~TIM_CCER_CC2P;
 80048f2:	f023 0320 	bic.w	r3, r3, #32
  tmpccmrx &= ~TIM_CCMR1_CC2S;
 80048f6:	f422 42e6 	bic.w	r2, r2, #29440	; 0x7300
  if (IS_TIM_CCXN_INSTANCE(TIMx, TIM_CHANNEL_2))
 80048fa:	42a8      	cmp	r0, r5
  tmpccer |= (OC_Config->OCPolarity << 4U);
 80048fc:	ea43 1307 	orr.w	r3, r3, r7, lsl #4
  tmpccmrx |= (OC_Config->OCMode << 8U);
 8004900:	ea42 2206 	orr.w	r2, r2, r6, lsl #8
  if (IS_TIM_CCXN_INSTANCE(TIMx, TIM_CHANNEL_2))
 8004904:	d00a      	beq.n	800491c <TIM_OC2_SetConfig+0x40>
 8004906:	f505 6580 	add.w	r5, r5, #1024	; 0x400
 800490a:	42a8      	cmp	r0, r5
 800490c:	d006      	beq.n	800491c <TIM_OC2_SetConfig+0x40>
  TIMx->CCR2 = OC_Config->Pulse;
 800490e:	6849      	ldr	r1, [r1, #4]
  TIMx->CR2 = tmpcr2;
 8004910:	6044      	str	r4, [r0, #4]
  TIMx->CCMR1 = tmpccmrx;
 8004912:	6182      	str	r2, [r0, #24]
}
 8004914:	bcf0      	pop	{r4, r5, r6, r7}
  TIMx->CCR2 = OC_Config->Pulse;
 8004916:	6381      	str	r1, [r0, #56]	; 0x38
  TIMx->CCER = tmpccer;
 8004918:	6203      	str	r3, [r0, #32]
}
 800491a:	4770      	bx	lr
    tmpccer |= (OC_Config->OCNPolarity << 4U);
 800491c:	68cd      	ldr	r5, [r1, #12]
    tmpccer &= ~TIM_CCER_CC2NP;
 800491e:	f023 0380 	bic.w	r3, r3, #128	; 0x80
    tmpccer |= (OC_Config->OCNPolarity << 4U);
 8004922:	ea43 1305 	orr.w	r3, r3, r5, lsl #4
    tmpcr2 |= (OC_Config->OCNIdleState << 2U);
 8004926:	e9d1 5605 	ldrd	r5, r6, [r1, #20]
    tmpcr2 &= ~TIM_CR2_OIS2N;
 800492a:	f424 6440 	bic.w	r4, r4, #3072	; 0xc00
    tmpcr2 |= (OC_Config->OCNIdleState << 2U);
 800492e:	4335      	orrs	r5, r6
    tmpccer &= ~TIM_CCER_CC2NE;
 8004930:	f023 0340 	bic.w	r3, r3, #64	; 0x40
    tmpcr2 |= (OC_Config->OCNIdleState << 2U);
 8004934:	ea44 0485 	orr.w	r4, r4, r5, lsl #2
 8004938:	e7e9      	b.n	800490e <TIM_OC2_SetConfig+0x32>
 800493a:	bf00      	nop
 800493c:	40010000 	.word	0x40010000

08004940 <HAL_TIM_PWM_ConfigChannel>:
{
 8004940:	b538      	push	{r3, r4, r5, lr}
  __HAL_LOCK(htim);
 8004942:	f890 303c 	ldrb.w	r3, [r0, #60]	; 0x3c
 8004946:	2b01      	cmp	r3, #1
 8004948:	d074      	beq.n	8004a34 <HAL_TIM_PWM_ConfigChannel+0xf4>
 800494a:	460d      	mov	r5, r1
  htim->State = HAL_TIM_STATE_BUSY;
 800494c:	2302      	movs	r3, #2
  __HAL_LOCK(htim);
 800494e:	2101      	movs	r1, #1
 8004950:	4604      	mov	r4, r0
 8004952:	f880 103c 	strb.w	r1, [r0, #60]	; 0x3c
  htim->State = HAL_TIM_STATE_BUSY;
 8004956:	f880 303d 	strb.w	r3, [r0, #61]	; 0x3d
  switch (Channel)
 800495a:	2a0c      	cmp	r2, #12
 800495c:	d819      	bhi.n	8004992 <HAL_TIM_PWM_ConfigChannel+0x52>
 800495e:	e8df f002 	tbb	[pc, r2]
 8004962:	1807      	.short	0x1807
 8004964:	18381818 	.word	0x18381818
 8004968:	18511818 	.word	0x18511818
 800496c:	1818      	.short	0x1818
 800496e:	1f          	.byte	0x1f
 800496f:	00          	.byte	0x00
      TIM_OC1_SetConfig(htim->Instance, sConfig);
 8004970:	4629      	mov	r1, r5
 8004972:	6800      	ldr	r0, [r0, #0]
 8004974:	f7ff fd90 	bl	8004498 <TIM_OC1_SetConfig>
      htim->Instance->CCMR1 |= TIM_CCMR1_OC1PE;
 8004978:	6823      	ldr	r3, [r4, #0]
      htim->Instance->CCMR1 |= sConfig->OCFastMode;
 800497a:	6928      	ldr	r0, [r5, #16]
      htim->Instance->CCMR1 |= TIM_CCMR1_OC1PE;
 800497c:	6999      	ldr	r1, [r3, #24]
 800497e:	f041 0108 	orr.w	r1, r1, #8
 8004982:	6199      	str	r1, [r3, #24]
      htim->Instance->CCMR1 &= ~TIM_CCMR1_OC1FE;
 8004984:	6999      	ldr	r1, [r3, #24]
 8004986:	f021 0104 	bic.w	r1, r1, #4
 800498a:	6199      	str	r1, [r3, #24]
      htim->Instance->CCMR1 |= sConfig->OCFastMode;
 800498c:	699a      	ldr	r2, [r3, #24]
 800498e:	4302      	orrs	r2, r0
 8004990:	619a      	str	r2, [r3, #24]
  htim->State = HAL_TIM_STATE_READY;
 8004992:	2301      	movs	r3, #1
  __HAL_UNLOCK(htim);
 8004994:	2000      	movs	r0, #0
  htim->State = HAL_TIM_STATE_READY;
 8004996:	f884 303d 	strb.w	r3, [r4, #61]	; 0x3d
  __HAL_UNLOCK(htim);
 800499a:	f884 003c 	strb.w	r0, [r4, #60]	; 0x3c
}
 800499e:	bd38      	pop	{r3, r4, r5, pc}
      TIM_OC4_SetConfig(htim->Instance, sConfig);
 80049a0:	4629      	mov	r1, r5
 80049a2:	6800      	ldr	r0, [r0, #0]
 80049a4:	f7ff fdda 	bl	800455c <TIM_OC4_SetConfig>
      htim->Instance->CCMR2 |= TIM_CCMR2_OC4PE;
 80049a8:	6823      	ldr	r3, [r4, #0]
      htim->Instance->CCMR2 |= sConfig->OCFastMode << 8U;
 80049aa:	6928      	ldr	r0, [r5, #16]
      htim->Instance->CCMR2 |= TIM_CCMR2_OC4PE;
 80049ac:	69d9      	ldr	r1, [r3, #28]
 80049ae:	f441 6100 	orr.w	r1, r1, #2048	; 0x800
 80049b2:	61d9      	str	r1, [r3, #28]
      htim->Instance->CCMR2 &= ~TIM_CCMR2_OC4FE;
 80049b4:	69d9      	ldr	r1, [r3, #28]
 80049b6:	f421 6180 	bic.w	r1, r1, #1024	; 0x400
 80049ba:	61d9      	str	r1, [r3, #28]
      htim->Instance->CCMR2 |= sConfig->OCFastMode << 8U;
 80049bc:	69da      	ldr	r2, [r3, #28]
 80049be:	ea42 2200 	orr.w	r2, r2, r0, lsl #8
 80049c2:	61da      	str	r2, [r3, #28]
  __HAL_UNLOCK(htim);
 80049c4:	2000      	movs	r0, #0
  htim->State = HAL_TIM_STATE_READY;
 80049c6:	2301      	movs	r3, #1
 80049c8:	f884 303d 	strb.w	r3, [r4, #61]	; 0x3d
  __HAL_UNLOCK(htim);
 80049cc:	f884 003c 	strb.w	r0, [r4, #60]	; 0x3c
 80049d0:	e7e5      	b.n	800499e <HAL_TIM_PWM_ConfigChannel+0x5e>
      TIM_OC2_SetConfig(htim->Instance, sConfig);
 80049d2:	4629      	mov	r1, r5
 80049d4:	6800      	ldr	r0, [r0, #0]
 80049d6:	f7ff ff81 	bl	80048dc <TIM_OC2_SetConfig>
      htim->Instance->CCMR1 |= TIM_CCMR1_OC2PE;
 80049da:	6823      	ldr	r3, [r4, #0]
      htim->Instance->CCMR1 |= sConfig->OCFastMode << 8U;
 80049dc:	6928      	ldr	r0, [r5, #16]
      htim->Instance->CCMR1 |= TIM_CCMR1_OC2PE;
 80049de:	6999      	ldr	r1, [r3, #24]
 80049e0:	f441 6100 	orr.w	r1, r1, #2048	; 0x800
 80049e4:	6199      	str	r1, [r3, #24]
      htim->Instance->CCMR1 &= ~TIM_CCMR1_OC2FE;
 80049e6:	6999      	ldr	r1, [r3, #24]
 80049e8:	f421 6180 	bic.w	r1, r1, #1024	; 0x400
 80049ec:	6199      	str	r1, [r3, #24]
      htim->Instance->CCMR1 |= sConfig->OCFastMode << 8U;
 80049ee:	699a      	ldr	r2, [r3, #24]
 80049f0:	ea42 2200 	orr.w	r2, r2, r0, lsl #8
 80049f4:	619a      	str	r2, [r3, #24]
  __HAL_UNLOCK(htim);
 80049f6:	2000      	movs	r0, #0
  htim->State = HAL_TIM_STATE_READY;
 80049f8:	2301      	movs	r3, #1
 80049fa:	f884 303d 	strb.w	r3, [r4, #61]	; 0x3d
  __HAL_UNLOCK(htim);
 80049fe:	f884 003c 	strb.w	r0, [r4, #60]	; 0x3c
 8004a02:	e7cc      	b.n	800499e <HAL_TIM_PWM_ConfigChannel+0x5e>
      TIM_OC3_SetConfig(htim->Instance, sConfig);
 8004a04:	4629      	mov	r1, r5
 8004a06:	6800      	ldr	r0, [r0, #0]
 8004a08:	f7ff fd76 	bl	80044f8 <TIM_OC3_SetConfig>
      htim->Instance->CCMR2 |= TIM_CCMR2_OC3PE;
 8004a0c:	6823      	ldr	r3, [r4, #0]
      htim->Instance->CCMR2 |= sConfig->OCFastMode;
 8004a0e:	6928      	ldr	r0, [r5, #16]
      htim->Instance->CCMR2 |= TIM_CCMR2_OC3PE;
 8004a10:	69d9      	ldr	r1, [r3, #28]
 8004a12:	f041 0108 	orr.w	r1, r1, #8
 8004a16:	61d9      	str	r1, [r3, #28]
      htim->Instance->CCMR2 &= ~TIM_CCMR2_OC3FE;
 8004a18:	69d9      	ldr	r1, [r3, #28]
 8004a1a:	f021 0104 	bic.w	r1, r1, #4
 8004a1e:	61d9      	str	r1, [r3, #28]
      htim->Instance->CCMR2 |= sConfig->OCFastMode;
 8004a20:	69da      	ldr	r2, [r3, #28]
 8004a22:	4302      	orrs	r2, r0
 8004a24:	61da      	str	r2, [r3, #28]
  __HAL_UNLOCK(htim);
 8004a26:	2000      	movs	r0, #0
  htim->State = HAL_TIM_STATE_READY;
 8004a28:	2301      	movs	r3, #1
 8004a2a:	f884 303d 	strb.w	r3, [r4, #61]	; 0x3d
  __HAL_UNLOCK(htim);
 8004a2e:	f884 003c 	strb.w	r0, [r4, #60]	; 0x3c
 8004a32:	e7b4      	b.n	800499e <HAL_TIM_PWM_ConfigChannel+0x5e>
  __HAL_LOCK(htim);
 8004a34:	2002      	movs	r0, #2
}
 8004a36:	bd38      	pop	{r3, r4, r5, pc}

08004a38 <HAL_TIMEx_MasterConfigSynchronization>:
  assert_param(IS_TIM_MASTER_INSTANCE(htim->Instance));
  assert_param(IS_TIM_TRGO_SOURCE(sMasterConfig->MasterOutputTrigger));
  assert_param(IS_TIM_MSM_STATE(sMasterConfig->MasterSlaveMode));

  /* Check input state */
  __HAL_LOCK(htim);
 8004a38:	f890 303c 	ldrb.w	r3, [r0, #60]	; 0x3c
 8004a3c:	2b01      	cmp	r3, #1
 8004a3e:	d03a      	beq.n	8004ab6 <HAL_TIMEx_MasterConfigSynchronization+0x7e>

  /* Change the handler state */
  htim->State = HAL_TIM_STATE_BUSY;

  /* Get the TIMx CR2 register value */
  tmpcr2 = htim->Instance->CR2;
 8004a40:	6803      	ldr	r3, [r0, #0]
  htim->State = HAL_TIM_STATE_BUSY;
 8004a42:	2202      	movs	r2, #2
{
 8004a44:	b470      	push	{r4, r5, r6}
  htim->State = HAL_TIM_STATE_BUSY;
 8004a46:	f880 203d 	strb.w	r2, [r0, #61]	; 0x3d
  tmpcr2 = htim->Instance->CR2;
 8004a4a:	685a      	ldr	r2, [r3, #4]
  tmpsmcr = htim->Instance->SMCR;

  /* Reset the MMS Bits */
  tmpcr2 &= ~TIM_CR2_MMS;
  /* Select the TRGO source */
  tmpcr2 |=  sMasterConfig->MasterOutputTrigger;
 8004a4c:	680e      	ldr	r6, [r1, #0]

  /* Update TIMx CR2 */
  htim->Instance->CR2 = tmpcr2;

  if (IS_TIM_SLAVE_INSTANCE(htim->Instance))
 8004a4e:	4d1b      	ldr	r5, [pc, #108]	; (8004abc <HAL_TIMEx_MasterConfigSynchronization+0x84>)
  tmpsmcr = htim->Instance->SMCR;
 8004a50:	689c      	ldr	r4, [r3, #8]
  tmpcr2 &= ~TIM_CR2_MMS;
 8004a52:	f022 0270 	bic.w	r2, r2, #112	; 0x70
  tmpcr2 |=  sMasterConfig->MasterOutputTrigger;
 8004a56:	4332      	orrs	r2, r6
  if (IS_TIM_SLAVE_INSTANCE(htim->Instance))
 8004a58:	42ab      	cmp	r3, r5
  __HAL_LOCK(htim);
 8004a5a:	f04f 0601 	mov.w	r6, #1
 8004a5e:	f880 603c 	strb.w	r6, [r0, #60]	; 0x3c
  htim->Instance->CR2 = tmpcr2;
 8004a62:	605a      	str	r2, [r3, #4]
  if (IS_TIM_SLAVE_INSTANCE(htim->Instance))
 8004a64:	d019      	beq.n	8004a9a <HAL_TIMEx_MasterConfigSynchronization+0x62>
 8004a66:	f1b3 4f80 	cmp.w	r3, #1073741824	; 0x40000000
 8004a6a:	d016      	beq.n	8004a9a <HAL_TIMEx_MasterConfigSynchronization+0x62>
 8004a6c:	4a14      	ldr	r2, [pc, #80]	; (8004ac0 <HAL_TIMEx_MasterConfigSynchronization+0x88>)
 8004a6e:	4293      	cmp	r3, r2
 8004a70:	d013      	beq.n	8004a9a <HAL_TIMEx_MasterConfigSynchronization+0x62>
 8004a72:	f502 6280 	add.w	r2, r2, #1024	; 0x400
 8004a76:	4293      	cmp	r3, r2
 8004a78:	d00f      	beq.n	8004a9a <HAL_TIMEx_MasterConfigSynchronization+0x62>
 8004a7a:	f502 6280 	add.w	r2, r2, #1024	; 0x400
 8004a7e:	4293      	cmp	r3, r2
 8004a80:	d00b      	beq.n	8004a9a <HAL_TIMEx_MasterConfigSynchronization+0x62>
 8004a82:	f502 4278 	add.w	r2, r2, #63488	; 0xf800
 8004a86:	4293      	cmp	r3, r2
 8004a88:	d007      	beq.n	8004a9a <HAL_TIMEx_MasterConfigSynchronization+0x62>
 8004a8a:	f502 5270 	add.w	r2, r2, #15360	; 0x3c00
 8004a8e:	4293      	cmp	r3, r2
 8004a90:	d003      	beq.n	8004a9a <HAL_TIMEx_MasterConfigSynchronization+0x62>
 8004a92:	f5a2 3294 	sub.w	r2, r2, #75776	; 0x12800
 8004a96:	4293      	cmp	r3, r2
 8004a98:	d104      	bne.n	8004aa4 <HAL_TIMEx_MasterConfigSynchronization+0x6c>
  {
    /* Reset the MSM Bit */
    tmpsmcr &= ~TIM_SMCR_MSM;
    /* Set master mode */
    tmpsmcr |= sMasterConfig->MasterSlaveMode;
 8004a9a:	684a      	ldr	r2, [r1, #4]
    tmpsmcr &= ~TIM_SMCR_MSM;
 8004a9c:	f024 0480 	bic.w	r4, r4, #128	; 0x80
    tmpsmcr |= sMasterConfig->MasterSlaveMode;
 8004aa0:	4314      	orrs	r4, r2

    /* Update TIMx SMCR */
    htim->Instance->SMCR = tmpsmcr;
 8004aa2:	609c      	str	r4, [r3, #8]
  }

  /* Change the htim state */
  htim->State = HAL_TIM_STATE_READY;

  __HAL_UNLOCK(htim);
 8004aa4:	2300      	movs	r3, #0
  htim->State = HAL_TIM_STATE_READY;
 8004aa6:	2201      	movs	r2, #1
 8004aa8:	f880 203d 	strb.w	r2, [r0, #61]	; 0x3d
  __HAL_UNLOCK(htim);
 8004aac:	f880 303c 	strb.w	r3, [r0, #60]	; 0x3c

  return HAL_OK;
}
 8004ab0:	bc70      	pop	{r4, r5, r6}
  return HAL_OK;
 8004ab2:	4618      	mov	r0, r3
}
 8004ab4:	4770      	bx	lr
  __HAL_LOCK(htim);
 8004ab6:	2002      	movs	r0, #2
}
 8004ab8:	4770      	bx	lr
 8004aba:	bf00      	nop
 8004abc:	40010000 	.word	0x40010000
 8004ac0:	40000400 	.word	0x40000400

08004ac4 <HAL_TIMEx_CommutCallback>:
 8004ac4:	4770      	bx	lr
 8004ac6:	bf00      	nop

08004ac8 <HAL_TIMEx_BreakCallback>:
 8004ac8:	4770      	bx	lr
 8004aca:	bf00      	nop

08004acc <UART_SetConfig>:
  assert_param(IS_UART_MODE(huart->Init.Mode));

  /*-------------------------- USART CR2 Configuration -----------------------*/
  /* Configure the UART Stop Bits: Set STOP[13:12] bits
     according to huart->Init.StopBits value */
  MODIFY_REG(huart->Instance->CR2, USART_CR2_STOP, huart->Init.StopBits);
 8004acc:	6802      	ldr	r2, [r0, #0]
     Set the M bits according to huart->Init.WordLength value
     Set PCE and PS bits according to huart->Init.Parity value
     Set TE and RE bits according to huart->Init.Mode value
     Set OVER8 bit according to huart->Init.OverSampling value */

  tmpreg = (uint32_t)huart->Init.WordLength | huart->Init.Parity | huart->Init.Mode | huart->Init.OverSampling;
 8004ace:	6883      	ldr	r3, [r0, #8]
  MODIFY_REG(huart->Instance->CR2, USART_CR2_STOP, huart->Init.StopBits);
 8004ad0:	6911      	ldr	r1, [r2, #16]
{
 8004ad2:	b570      	push	{r4, r5, r6, lr}
  MODIFY_REG(huart->Instance->CR2, USART_CR2_STOP, huart->Init.StopBits);
 8004ad4:	68c5      	ldr	r5, [r0, #12]
 8004ad6:	f421 5140 	bic.w	r1, r1, #12288	; 0x3000
{
 8004ada:	4604      	mov	r4, r0
  MODIFY_REG(huart->Instance->CR2, USART_CR2_STOP, huart->Init.StopBits);
 8004adc:	4329      	orrs	r1, r5
  tmpreg = (uint32_t)huart->Init.WordLength | huart->Init.Parity | huart->Init.Mode | huart->Init.OverSampling;
 8004ade:	6900      	ldr	r0, [r0, #16]
  MODIFY_REG(huart->Instance->CR2, USART_CR2_STOP, huart->Init.StopBits);
 8004ae0:	6111      	str	r1, [r2, #16]
  MODIFY_REG(huart->Instance->CR1,
 8004ae2:	68d1      	ldr	r1, [r2, #12]
  tmpreg = (uint32_t)huart->Init.WordLength | huart->Init.Parity | huart->Init.Mode | huart->Init.OverSampling;
 8004ae4:	6965      	ldr	r5, [r4, #20]
 8004ae6:	4303      	orrs	r3, r0
 8004ae8:	69e0      	ldr	r0, [r4, #28]
  MODIFY_REG(huart->Instance->CR1,
 8004aea:	f421 4116 	bic.w	r1, r1, #38400	; 0x9600
  tmpreg = (uint32_t)huart->Init.WordLength | huart->Init.Parity | huart->Init.Mode | huart->Init.OverSampling;
 8004aee:	432b      	orrs	r3, r5
  MODIFY_REG(huart->Instance->CR1,
 8004af0:	f021 010c 	bic.w	r1, r1, #12
  tmpreg = (uint32_t)huart->Init.WordLength | huart->Init.Parity | huart->Init.Mode | huart->Init.OverSampling;
 8004af4:	4303      	orrs	r3, r0
  MODIFY_REG(huart->Instance->CR1,
 8004af6:	430b      	orrs	r3, r1
 8004af8:	60d3      	str	r3, [r2, #12]
             (uint32_t)(USART_CR1_M | USART_CR1_PCE | USART_CR1_PS | USART_CR1_TE | USART_CR1_RE | USART_CR1_OVER8),
             tmpreg);

  /*-------------------------- USART CR3 Configuration -----------------------*/
  /* Configure the UART HFC: Set CTSE and RTSE bits according to huart->Init.HwFlowCtl value */
  MODIFY_REG(huart->Instance->CR3, (USART_CR3_RTSE | USART_CR3_CTSE), huart->Init.HwFlowCtl);
 8004afa:	6953      	ldr	r3, [r2, #20]
 8004afc:	69a1      	ldr	r1, [r4, #24]
 8004afe:	f423 7340 	bic.w	r3, r3, #768	; 0x300
 8004b02:	430b      	orrs	r3, r1

  /* Check the Over Sampling */
  if (huart->Init.OverSampling == UART_OVERSAMPLING_8)
 8004b04:	f5b0 4f00 	cmp.w	r0, #32768	; 0x8000
  MODIFY_REG(huart->Instance->CR3, (USART_CR3_RTSE | USART_CR3_CTSE), huart->Init.HwFlowCtl);
 8004b08:	6153      	str	r3, [r2, #20]
    {
      pclk = HAL_RCC_GetPCLK2Freq();
      huart->Instance->BRR = UART_BRR_SAMPLING8(pclk, huart->Init.BaudRate);
    }
#elif defined(USART6)
    if ((huart->Instance == USART1) || (huart->Instance == USART6))
 8004b0a:	4b2a      	ldr	r3, [pc, #168]	; (8004bb4 <UART_SetConfig+0xe8>)
  if (huart->Init.OverSampling == UART_OVERSAMPLING_8)
 8004b0c:	d023      	beq.n	8004b56 <UART_SetConfig+0x8a>
    {
      pclk = HAL_RCC_GetPCLK2Freq();
      huart->Instance->BRR = UART_BRR_SAMPLING16(pclk, huart->Init.BaudRate);
    }
#elif defined(USART6)
    if ((huart->Instance == USART1) || (huart->Instance == USART6))
 8004b0e:	429a      	cmp	r2, r3
 8004b10:	d01e      	beq.n	8004b50 <UART_SetConfig+0x84>
 8004b12:	f503 6380 	add.w	r3, r3, #1024	; 0x400
 8004b16:	429a      	cmp	r2, r3
 8004b18:	d01a      	beq.n	8004b50 <UART_SetConfig+0x84>
      huart->Instance->BRR = UART_BRR_SAMPLING16(pclk, huart->Init.BaudRate);
    }
#endif /* USART6 */
    else
    {
      pclk = HAL_RCC_GetPCLK1Freq();
 8004b1a:	f7ff fb8d 	bl	8004238 <HAL_RCC_GetPCLK1Freq>
      huart->Instance->BRR = UART_BRR_SAMPLING16(pclk, huart->Init.BaudRate);
 8004b1e:	6863      	ldr	r3, [r4, #4]
 8004b20:	2219      	movs	r2, #25
 8004b22:	fba0 0102 	umull	r0, r1, r0, r2
 8004b26:	009a      	lsls	r2, r3, #2
 8004b28:	0f9b      	lsrs	r3, r3, #30
 8004b2a:	f7fc f8ad 	bl	8000c88 <__aeabi_uldivmod>
 8004b2e:	4922      	ldr	r1, [pc, #136]	; (8004bb8 <UART_SetConfig+0xec>)
 8004b30:	6824      	ldr	r4, [r4, #0]
 8004b32:	fba1 3200 	umull	r3, r2, r1, r0
 8004b36:	0952      	lsrs	r2, r2, #5
 8004b38:	2364      	movs	r3, #100	; 0x64
 8004b3a:	fb03 0312 	mls	r3, r3, r2, r0
 8004b3e:	011b      	lsls	r3, r3, #4
 8004b40:	3332      	adds	r3, #50	; 0x32
 8004b42:	fba1 1303 	umull	r1, r3, r1, r3
 8004b46:	0112      	lsls	r2, r2, #4
 8004b48:	eb02 1353 	add.w	r3, r2, r3, lsr #5
 8004b4c:	60a3      	str	r3, [r4, #8]
    }
  }
}
 8004b4e:	bd70      	pop	{r4, r5, r6, pc}
      pclk = HAL_RCC_GetPCLK2Freq();
 8004b50:	f7ff fb82 	bl	8004258 <HAL_RCC_GetPCLK2Freq>
 8004b54:	e7e3      	b.n	8004b1e <UART_SetConfig+0x52>
    if ((huart->Instance == USART1) || (huart->Instance == USART6))
 8004b56:	429a      	cmp	r2, r3
 8004b58:	d028      	beq.n	8004bac <UART_SetConfig+0xe0>
 8004b5a:	f503 6380 	add.w	r3, r3, #1024	; 0x400
 8004b5e:	429a      	cmp	r2, r3
 8004b60:	d024      	beq.n	8004bac <UART_SetConfig+0xe0>
      pclk = HAL_RCC_GetPCLK1Freq();
 8004b62:	f7ff fb69 	bl	8004238 <HAL_RCC_GetPCLK1Freq>
      huart->Instance->BRR = UART_BRR_SAMPLING8(pclk, huart->Init.BaudRate);
 8004b66:	6862      	ldr	r2, [r4, #4]
 8004b68:	4d13      	ldr	r5, [pc, #76]	; (8004bb8 <UART_SetConfig+0xec>)
 8004b6a:	1892      	adds	r2, r2, r2
 8004b6c:	f04f 0119 	mov.w	r1, #25
 8004b70:	f04f 0600 	mov.w	r6, #0
 8004b74:	eb46 0306 	adc.w	r3, r6, r6
 8004b78:	fba0 0101 	umull	r0, r1, r0, r1
 8004b7c:	f7fc f884 	bl	8000c88 <__aeabi_uldivmod>
 8004b80:	fba5 3200 	umull	r3, r2, r5, r0
 8004b84:	0951      	lsrs	r1, r2, #5
 8004b86:	2364      	movs	r3, #100	; 0x64
 8004b88:	fb03 0311 	mls	r3, r3, r1, r0
 8004b8c:	00db      	lsls	r3, r3, #3
 8004b8e:	3332      	adds	r3, #50	; 0x32
 8004b90:	fba5 2303 	umull	r2, r3, r5, r3
 8004b94:	095b      	lsrs	r3, r3, #5
 8004b96:	f003 0207 	and.w	r2, r3, #7
 8004b9a:	005b      	lsls	r3, r3, #1
 8004b9c:	6824      	ldr	r4, [r4, #0]
 8004b9e:	eb02 1201 	add.w	r2, r2, r1, lsl #4
 8004ba2:	f403 73f8 	and.w	r3, r3, #496	; 0x1f0
 8004ba6:	4413      	add	r3, r2
 8004ba8:	60a3      	str	r3, [r4, #8]
}
 8004baa:	bd70      	pop	{r4, r5, r6, pc}
      pclk = HAL_RCC_GetPCLK2Freq();
 8004bac:	f7ff fb54 	bl	8004258 <HAL_RCC_GetPCLK2Freq>
 8004bb0:	e7d9      	b.n	8004b66 <UART_SetConfig+0x9a>
 8004bb2:	bf00      	nop
 8004bb4:	40011000 	.word	0x40011000
 8004bb8:	51eb851f 	.word	0x51eb851f

08004bbc <HAL_UART_Init>:
  if (huart == NULL)
 8004bbc:	b360      	cbz	r0, 8004c18 <HAL_UART_Init+0x5c>
{
 8004bbe:	b538      	push	{r3, r4, r5, lr}
  if (huart->gState == HAL_UART_STATE_RESET)
 8004bc0:	f890 3039 	ldrb.w	r3, [r0, #57]	; 0x39
 8004bc4:	4604      	mov	r4, r0
 8004bc6:	f003 02ff 	and.w	r2, r3, #255	; 0xff
 8004bca:	b303      	cbz	r3, 8004c0e <HAL_UART_Init+0x52>
  __HAL_UART_DISABLE(huart);
 8004bcc:	6822      	ldr	r2, [r4, #0]
  huart->gState = HAL_UART_STATE_BUSY;
 8004bce:	2324      	movs	r3, #36	; 0x24
 8004bd0:	f884 3039 	strb.w	r3, [r4, #57]	; 0x39
  __HAL_UART_DISABLE(huart);
 8004bd4:	68d3      	ldr	r3, [r2, #12]
 8004bd6:	f423 5300 	bic.w	r3, r3, #8192	; 0x2000
 8004bda:	60d3      	str	r3, [r2, #12]
  UART_SetConfig(huart);
 8004bdc:	4620      	mov	r0, r4
 8004bde:	f7ff ff75 	bl	8004acc <UART_SetConfig>
  CLEAR_BIT(huart->Instance->CR2, (USART_CR2_LINEN | USART_CR2_CLKEN));
 8004be2:	6823      	ldr	r3, [r4, #0]
 8004be4:	691a      	ldr	r2, [r3, #16]
 8004be6:	f422 4290 	bic.w	r2, r2, #18432	; 0x4800
 8004bea:	611a      	str	r2, [r3, #16]
  CLEAR_BIT(huart->Instance->CR3, (USART_CR3_SCEN | USART_CR3_HDSEL | USART_CR3_IREN));
 8004bec:	695a      	ldr	r2, [r3, #20]
 8004bee:	f022 022a 	bic.w	r2, r2, #42	; 0x2a
 8004bf2:	615a      	str	r2, [r3, #20]
  __HAL_UART_ENABLE(huart);
 8004bf4:	68da      	ldr	r2, [r3, #12]
  huart->ErrorCode = HAL_UART_ERROR_NONE;
 8004bf6:	2500      	movs	r5, #0
  huart->gState = HAL_UART_STATE_READY;
 8004bf8:	2120      	movs	r1, #32
  __HAL_UART_ENABLE(huart);
 8004bfa:	f442 5200 	orr.w	r2, r2, #8192	; 0x2000
 8004bfe:	60da      	str	r2, [r3, #12]
  return HAL_OK;
 8004c00:	4628      	mov	r0, r5
  huart->ErrorCode = HAL_UART_ERROR_NONE;
 8004c02:	63e5      	str	r5, [r4, #60]	; 0x3c
  huart->gState = HAL_UART_STATE_READY;
 8004c04:	f884 1039 	strb.w	r1, [r4, #57]	; 0x39
  huart->RxState = HAL_UART_STATE_READY;
 8004c08:	f884 103a 	strb.w	r1, [r4, #58]	; 0x3a
}
 8004c0c:	bd38      	pop	{r3, r4, r5, pc}
    huart->Lock = HAL_UNLOCKED;
 8004c0e:	f880 2038 	strb.w	r2, [r0, #56]	; 0x38
    HAL_UART_MspInit(huart);
 8004c12:	f7fd f905 	bl	8001e20 <HAL_UART_MspInit>
 8004c16:	e7d9      	b.n	8004bcc <HAL_UART_Init+0x10>
    return HAL_ERROR;
 8004c18:	2001      	movs	r0, #1
}
 8004c1a:	4770      	bx	lr

08004c1c <HAL_UART_Transmit_IT>:
  if (huart->gState == HAL_UART_STATE_READY)
 8004c1c:	f890 3039 	ldrb.w	r3, [r0, #57]	; 0x39
 8004c20:	2b20      	cmp	r3, #32
 8004c22:	d118      	bne.n	8004c56 <HAL_UART_Transmit_IT+0x3a>
    if ((pData == NULL) || (Size == 0U))
 8004c24:	b1c9      	cbz	r1, 8004c5a <HAL_UART_Transmit_IT+0x3e>
 8004c26:	b1c2      	cbz	r2, 8004c5a <HAL_UART_Transmit_IT+0x3e>
    __HAL_LOCK(huart);
 8004c28:	f890 3038 	ldrb.w	r3, [r0, #56]	; 0x38
 8004c2c:	2b01      	cmp	r3, #1
 8004c2e:	d012      	beq.n	8004c56 <HAL_UART_Transmit_IT+0x3a>
{
 8004c30:	b430      	push	{r4, r5}
    huart->ErrorCode = HAL_UART_ERROR_NONE;
 8004c32:	2300      	movs	r3, #0
    __HAL_UART_ENABLE_IT(huart, UART_IT_TXE);
 8004c34:	6805      	ldr	r5, [r0, #0]
    huart->TxXferCount = Size;
 8004c36:	84c2      	strh	r2, [r0, #38]	; 0x26
    huart->gState = HAL_UART_STATE_BUSY_TX;
 8004c38:	2421      	movs	r4, #33	; 0x21
    huart->ErrorCode = HAL_UART_ERROR_NONE;
 8004c3a:	63c3      	str	r3, [r0, #60]	; 0x3c
    huart->gState = HAL_UART_STATE_BUSY_TX;
 8004c3c:	f880 4039 	strb.w	r4, [r0, #57]	; 0x39
    __HAL_UART_ENABLE_IT(huart, UART_IT_TXE);
 8004c40:	68ec      	ldr	r4, [r5, #12]
    huart->pTxBuffPtr = pData;
 8004c42:	6201      	str	r1, [r0, #32]
    __HAL_UART_ENABLE_IT(huart, UART_IT_TXE);
 8004c44:	f044 0480 	orr.w	r4, r4, #128	; 0x80
    huart->TxXferSize = Size;
 8004c48:	8482      	strh	r2, [r0, #36]	; 0x24
    __HAL_UNLOCK(huart);
 8004c4a:	f880 3038 	strb.w	r3, [r0, #56]	; 0x38
    return HAL_OK;
 8004c4e:	4618      	mov	r0, r3
    __HAL_UART_ENABLE_IT(huart, UART_IT_TXE);
 8004c50:	60ec      	str	r4, [r5, #12]
}
 8004c52:	bc30      	pop	{r4, r5}
 8004c54:	4770      	bx	lr
    return HAL_BUSY;
 8004c56:	2002      	movs	r0, #2
}
 8004c58:	4770      	bx	lr
      return HAL_ERROR;
 8004c5a:	2001      	movs	r0, #1
 8004c5c:	4770      	bx	lr
 8004c5e:	bf00      	nop

08004c60 <HAL_UART_Receive_IT>:
  if (huart->RxState == HAL_UART_STATE_READY)
 8004c60:	f890 303a 	ldrb.w	r3, [r0, #58]	; 0x3a
 8004c64:	2b20      	cmp	r3, #32
 8004c66:	d120      	bne.n	8004caa <HAL_UART_Receive_IT+0x4a>
    if ((pData == NULL) || (Size == 0U))
 8004c68:	b309      	cbz	r1, 8004cae <HAL_UART_Receive_IT+0x4e>
 8004c6a:	b302      	cbz	r2, 8004cae <HAL_UART_Receive_IT+0x4e>
    __HAL_LOCK(huart);
 8004c6c:	f890 3038 	ldrb.w	r3, [r0, #56]	; 0x38
 8004c70:	2b01      	cmp	r3, #1
 8004c72:	d01a      	beq.n	8004caa <HAL_UART_Receive_IT+0x4a>
{
 8004c74:	b430      	push	{r4, r5}
    huart->ErrorCode = HAL_UART_ERROR_NONE;
 8004c76:	2300      	movs	r3, #0
    __HAL_UART_ENABLE_IT(huart, UART_IT_PE);
 8004c78:	6804      	ldr	r4, [r0, #0]
    huart->RxXferCount = Size;
 8004c7a:	85c2      	strh	r2, [r0, #46]	; 0x2e
    huart->RxState = HAL_UART_STATE_BUSY_RX;
 8004c7c:	2522      	movs	r5, #34	; 0x22
    huart->ErrorCode = HAL_UART_ERROR_NONE;
 8004c7e:	63c3      	str	r3, [r0, #60]	; 0x3c
    huart->RxState = HAL_UART_STATE_BUSY_RX;
 8004c80:	f880 503a 	strb.w	r5, [r0, #58]	; 0x3a
    __HAL_UART_ENABLE_IT(huart, UART_IT_PE);
 8004c84:	68e5      	ldr	r5, [r4, #12]
    huart->RxXferSize = Size;
 8004c86:	8582      	strh	r2, [r0, #44]	; 0x2c
    __HAL_UART_ENABLE_IT(huart, UART_IT_PE);
 8004c88:	f445 7580 	orr.w	r5, r5, #256	; 0x100
    huart->pRxBuffPtr = pData;
 8004c8c:	6281      	str	r1, [r0, #40]	; 0x28
    __HAL_UNLOCK(huart);
 8004c8e:	f880 3038 	strb.w	r3, [r0, #56]	; 0x38
    __HAL_UART_ENABLE_IT(huart, UART_IT_PE);
 8004c92:	60e5      	str	r5, [r4, #12]
    __HAL_UART_ENABLE_IT(huart, UART_IT_ERR);
 8004c94:	6962      	ldr	r2, [r4, #20]
 8004c96:	f042 0201 	orr.w	r2, r2, #1
 8004c9a:	6162      	str	r2, [r4, #20]
    __HAL_UART_ENABLE_IT(huart, UART_IT_RXNE);
 8004c9c:	68e2      	ldr	r2, [r4, #12]
 8004c9e:	f042 0220 	orr.w	r2, r2, #32
    return HAL_OK;
 8004ca2:	4618      	mov	r0, r3
    __HAL_UART_ENABLE_IT(huart, UART_IT_RXNE);
 8004ca4:	60e2      	str	r2, [r4, #12]
}
 8004ca6:	bc30      	pop	{r4, r5}
 8004ca8:	4770      	bx	lr
    return HAL_BUSY;
 8004caa:	2002      	movs	r0, #2
}
 8004cac:	4770      	bx	lr
      return HAL_ERROR;
 8004cae:	2001      	movs	r0, #1
 8004cb0:	4770      	bx	lr
 8004cb2:	bf00      	nop

08004cb4 <UART_Receive_IT.part.1>:
static HAL_StatusTypeDef UART_Receive_IT(UART_HandleTypeDef *huart)
 8004cb4:	b510      	push	{r4, lr}
    if (huart->Init.WordLength == UART_WORDLENGTH_9B)
 8004cb6:	6884      	ldr	r4, [r0, #8]
 8004cb8:	6901      	ldr	r1, [r0, #16]
 8004cba:	6a83      	ldr	r3, [r0, #40]	; 0x28
 8004cbc:	6802      	ldr	r2, [r0, #0]
 8004cbe:	f5b4 5f80 	cmp.w	r4, #4096	; 0x1000
 8004cc2:	d020      	beq.n	8004d06 <UART_Receive_IT.part.1+0x52>
 8004cc4:	1c5c      	adds	r4, r3, #1
        *huart->pRxBuffPtr++ = (uint8_t)(huart->Instance->DR & (uint8_t)0x00FF);
 8004cc6:	6852      	ldr	r2, [r2, #4]
 8004cc8:	6284      	str	r4, [r0, #40]	; 0x28
      if (huart->Init.Parity == UART_PARITY_NONE)
 8004cca:	b9c9      	cbnz	r1, 8004d00 <UART_Receive_IT.part.1+0x4c>
        *huart->pRxBuffPtr++ = (uint8_t)(huart->Instance->DR & (uint8_t)0x007F);
 8004ccc:	701a      	strb	r2, [r3, #0]
    if (--huart->RxXferCount == 0U)
 8004cce:	8dc3      	ldrh	r3, [r0, #46]	; 0x2e
 8004cd0:	3b01      	subs	r3, #1
 8004cd2:	b29b      	uxth	r3, r3
 8004cd4:	85c3      	strh	r3, [r0, #46]	; 0x2e
 8004cd6:	b98b      	cbnz	r3, 8004cfc <UART_Receive_IT.part.1+0x48>
      __HAL_UART_DISABLE_IT(huart, UART_IT_RXNE);
 8004cd8:	6802      	ldr	r2, [r0, #0]
 8004cda:	68d1      	ldr	r1, [r2, #12]
 8004cdc:	f021 0120 	bic.w	r1, r1, #32
 8004ce0:	60d1      	str	r1, [r2, #12]
      __HAL_UART_DISABLE_IT(huart, UART_IT_PE);
 8004ce2:	68d1      	ldr	r1, [r2, #12]
 8004ce4:	f421 7180 	bic.w	r1, r1, #256	; 0x100
 8004ce8:	60d1      	str	r1, [r2, #12]
      __HAL_UART_DISABLE_IT(huart, UART_IT_ERR);
 8004cea:	6951      	ldr	r1, [r2, #20]
      huart->RxState = HAL_UART_STATE_READY;
 8004cec:	2420      	movs	r4, #32
      __HAL_UART_DISABLE_IT(huart, UART_IT_ERR);
 8004cee:	f021 0101 	bic.w	r1, r1, #1
 8004cf2:	6151      	str	r1, [r2, #20]
      huart->RxState = HAL_UART_STATE_READY;
 8004cf4:	f880 403a 	strb.w	r4, [r0, #58]	; 0x3a
      HAL_UART_RxCpltCallback(huart);
 8004cf8:	f7fc feee 	bl	8001ad8 <HAL_UART_RxCpltCallback>
}
 8004cfc:	2000      	movs	r0, #0
 8004cfe:	bd10      	pop	{r4, pc}
        *huart->pRxBuffPtr++ = (uint8_t)(huart->Instance->DR & (uint8_t)0x007F);
 8004d00:	f002 027f 	and.w	r2, r2, #127	; 0x7f
 8004d04:	e7e2      	b.n	8004ccc <UART_Receive_IT.part.1+0x18>
        *tmp = (uint16_t)(huart->Instance->DR & (uint16_t)0x01FF);
 8004d06:	6852      	ldr	r2, [r2, #4]
      if (huart->Init.Parity == UART_PARITY_NONE)
 8004d08:	b929      	cbnz	r1, 8004d16 <UART_Receive_IT.part.1+0x62>
        *tmp = (uint16_t)(huart->Instance->DR & (uint16_t)0x01FF);
 8004d0a:	f3c2 0208 	ubfx	r2, r2, #0, #9
 8004d0e:	f823 2b02 	strh.w	r2, [r3], #2
        huart->pRxBuffPtr += 2U;
 8004d12:	6283      	str	r3, [r0, #40]	; 0x28
 8004d14:	e7db      	b.n	8004cce <UART_Receive_IT.part.1+0x1a>
        *tmp = (uint16_t)(huart->Instance->DR & (uint16_t)0x00FF);
 8004d16:	b2d2      	uxtb	r2, r2
 8004d18:	f823 2b01 	strh.w	r2, [r3], #1
        huart->pRxBuffPtr += 1U;
 8004d1c:	6283      	str	r3, [r0, #40]	; 0x28
 8004d1e:	e7d6      	b.n	8004cce <UART_Receive_IT.part.1+0x1a>

08004d20 <HAL_UART_ErrorCallback>:
 8004d20:	4770      	bx	lr
 8004d22:	bf00      	nop

08004d24 <HAL_UART_IRQHandler>:
  uint32_t isrflags   = READ_REG(huart->Instance->SR);
 8004d24:	6803      	ldr	r3, [r0, #0]
 8004d26:	681a      	ldr	r2, [r3, #0]
{
 8004d28:	b570      	push	{r4, r5, r6, lr}
  if (errorflags == RESET)
 8004d2a:	0716      	lsls	r6, r2, #28
  uint32_t cr1its     = READ_REG(huart->Instance->CR1);
 8004d2c:	68dd      	ldr	r5, [r3, #12]
  uint32_t cr3its     = READ_REG(huart->Instance->CR3);
 8004d2e:	6959      	ldr	r1, [r3, #20]
{
 8004d30:	4604      	mov	r4, r0
  if (errorflags == RESET)
 8004d32:	d047      	beq.n	8004dc4 <HAL_UART_IRQHandler+0xa0>
  if ((errorflags != RESET) && (((cr3its & USART_CR3_EIE) != RESET) || ((cr1its & (USART_CR1_RXNEIE | USART_CR1_PEIE)) != RESET)))
 8004d34:	f011 0101 	ands.w	r1, r1, #1
 8004d38:	461e      	mov	r6, r3
 8004d3a:	d04c      	beq.n	8004dd6 <HAL_UART_IRQHandler+0xb2>
    if (((isrflags & USART_SR_PE) != RESET) && ((cr1its & USART_CR1_PEIE) != RESET))
 8004d3c:	07d3      	lsls	r3, r2, #31
 8004d3e:	d505      	bpl.n	8004d4c <HAL_UART_IRQHandler+0x28>
 8004d40:	05e8      	lsls	r0, r5, #23
 8004d42:	d503      	bpl.n	8004d4c <HAL_UART_IRQHandler+0x28>
      huart->ErrorCode |= HAL_UART_ERROR_PE;
 8004d44:	6be3      	ldr	r3, [r4, #60]	; 0x3c
 8004d46:	f043 0301 	orr.w	r3, r3, #1
 8004d4a:	63e3      	str	r3, [r4, #60]	; 0x3c
    if (((isrflags & USART_SR_NE) != RESET) && ((cr3its & USART_CR3_EIE) != RESET))
 8004d4c:	0753      	lsls	r3, r2, #29
 8004d4e:	d574      	bpl.n	8004e3a <HAL_UART_IRQHandler+0x116>
 8004d50:	b129      	cbz	r1, 8004d5e <HAL_UART_IRQHandler+0x3a>
      huart->ErrorCode |= HAL_UART_ERROR_NE;
 8004d52:	6be3      	ldr	r3, [r4, #60]	; 0x3c
    if (((isrflags & USART_SR_FE) != RESET) && ((cr3its & USART_CR3_EIE) != RESET))
 8004d54:	0790      	lsls	r0, r2, #30
      huart->ErrorCode |= HAL_UART_ERROR_NE;
 8004d56:	f043 0302 	orr.w	r3, r3, #2
 8004d5a:	63e3      	str	r3, [r4, #60]	; 0x3c
    if (((isrflags & USART_SR_FE) != RESET) && ((cr3its & USART_CR3_EIE) != RESET))
 8004d5c:	d471      	bmi.n	8004e42 <HAL_UART_IRQHandler+0x11e>
    if (((isrflags & USART_SR_ORE) != RESET) && (((cr1its & USART_CR1_RXNEIE) != RESET) || ((cr3its & USART_CR3_EIE) != RESET)))
 8004d5e:	0710      	lsls	r0, r2, #28
 8004d60:	d503      	bpl.n	8004d6a <HAL_UART_IRQHandler+0x46>
 8004d62:	06ab      	lsls	r3, r5, #26
 8004d64:	d472      	bmi.n	8004e4c <HAL_UART_IRQHandler+0x128>
 8004d66:	2900      	cmp	r1, #0
 8004d68:	d170      	bne.n	8004e4c <HAL_UART_IRQHandler+0x128>
    if (huart->ErrorCode != HAL_UART_ERROR_NONE)
 8004d6a:	6be3      	ldr	r3, [r4, #60]	; 0x3c
 8004d6c:	2b00      	cmp	r3, #0
 8004d6e:	d031      	beq.n	8004dd4 <HAL_UART_IRQHandler+0xb0>
      if (((isrflags & USART_SR_RXNE) != RESET) && ((cr1its & USART_CR1_RXNEIE) != RESET))
 8004d70:	0690      	lsls	r0, r2, #26
 8004d72:	d501      	bpl.n	8004d78 <HAL_UART_IRQHandler+0x54>
 8004d74:	06a9      	lsls	r1, r5, #26
 8004d76:	d472      	bmi.n	8004e5e <HAL_UART_IRQHandler+0x13a>
      dmarequest = HAL_IS_BIT_SET(huart->Instance->CR3, USART_CR3_DMAR);
 8004d78:	6975      	ldr	r5, [r6, #20]
      if (((huart->ErrorCode & HAL_UART_ERROR_ORE) != RESET) || dmarequest)
 8004d7a:	6be2      	ldr	r2, [r4, #60]	; 0x3c
 8004d7c:	0712      	lsls	r2, r2, #28
 8004d7e:	d402      	bmi.n	8004d86 <HAL_UART_IRQHandler+0x62>
 8004d80:	f015 0540 	ands.w	r5, r5, #64	; 0x40
 8004d84:	d078      	beq.n	8004e78 <HAL_UART_IRQHandler+0x154>
  CLEAR_BIT(huart->Instance->CR1, (USART_CR1_RXNEIE | USART_CR1_PEIE));
 8004d86:	68f3      	ldr	r3, [r6, #12]
 8004d88:	f423 7390 	bic.w	r3, r3, #288	; 0x120
 8004d8c:	60f3      	str	r3, [r6, #12]
  CLEAR_BIT(huart->Instance->CR3, USART_CR3_EIE);
 8004d8e:	6973      	ldr	r3, [r6, #20]
  huart->RxState = HAL_UART_STATE_READY;
 8004d90:	2220      	movs	r2, #32
  CLEAR_BIT(huart->Instance->CR3, USART_CR3_EIE);
 8004d92:	f023 0301 	bic.w	r3, r3, #1
 8004d96:	6173      	str	r3, [r6, #20]
  huart->RxState = HAL_UART_STATE_READY;
 8004d98:	f884 203a 	strb.w	r2, [r4, #58]	; 0x3a
        if (HAL_IS_BIT_SET(huart->Instance->CR3, USART_CR3_DMAR))
 8004d9c:	6973      	ldr	r3, [r6, #20]
 8004d9e:	065b      	lsls	r3, r3, #25
 8004da0:	d559      	bpl.n	8004e56 <HAL_UART_IRQHandler+0x132>
          CLEAR_BIT(huart->Instance->CR3, USART_CR3_DMAR);
 8004da2:	6973      	ldr	r3, [r6, #20]
          if (huart->hdmarx != NULL)
 8004da4:	6b60      	ldr	r0, [r4, #52]	; 0x34
          CLEAR_BIT(huart->Instance->CR3, USART_CR3_DMAR);
 8004da6:	f023 0340 	bic.w	r3, r3, #64	; 0x40
 8004daa:	6173      	str	r3, [r6, #20]
          if (huart->hdmarx != NULL)
 8004dac:	2800      	cmp	r0, #0
 8004dae:	d052      	beq.n	8004e56 <HAL_UART_IRQHandler+0x132>
            huart->hdmarx->XferAbortCallback = UART_DMAAbortOnError;
 8004db0:	4b3a      	ldr	r3, [pc, #232]	; (8004e9c <HAL_UART_IRQHandler+0x178>)
 8004db2:	6503      	str	r3, [r0, #80]	; 0x50
            if (HAL_DMA_Abort_IT(huart->hdmarx) != HAL_OK)
 8004db4:	f7fd fd6e 	bl	8002894 <HAL_DMA_Abort_IT>
 8004db8:	b160      	cbz	r0, 8004dd4 <HAL_UART_IRQHandler+0xb0>
              huart->hdmarx->XferAbortCallback(huart->hdmarx);
 8004dba:	6b60      	ldr	r0, [r4, #52]	; 0x34
}
 8004dbc:	e8bd 4070 	ldmia.w	sp!, {r4, r5, r6, lr}
              huart->hdmarx->XferAbortCallback(huart->hdmarx);
 8004dc0:	6d03      	ldr	r3, [r0, #80]	; 0x50
 8004dc2:	4718      	bx	r3
    if (((isrflags & USART_SR_RXNE) != RESET) && ((cr1its & USART_CR1_RXNEIE) != RESET))
 8004dc4:	0696      	lsls	r6, r2, #26
 8004dc6:	d509      	bpl.n	8004ddc <HAL_UART_IRQHandler+0xb8>
 8004dc8:	06a9      	lsls	r1, r5, #26
 8004dca:	d507      	bpl.n	8004ddc <HAL_UART_IRQHandler+0xb8>
  if (huart->RxState == HAL_UART_STATE_BUSY_RX)
 8004dcc:	f890 303a 	ldrb.w	r3, [r0, #58]	; 0x3a
 8004dd0:	2b22      	cmp	r3, #34	; 0x22
 8004dd2:	d04d      	beq.n	8004e70 <HAL_UART_IRQHandler+0x14c>
}
 8004dd4:	bd70      	pop	{r4, r5, r6, pc}
  if ((errorflags != RESET) && (((cr3its & USART_CR3_EIE) != RESET) || ((cr1its & (USART_CR1_RXNEIE | USART_CR1_PEIE)) != RESET)))
 8004dd6:	f415 7f90 	tst.w	r5, #288	; 0x120
 8004dda:	d1af      	bne.n	8004d3c <HAL_UART_IRQHandler+0x18>
  if (((isrflags & USART_SR_TXE) != RESET) && ((cr1its & USART_CR1_TXEIE) != RESET))
 8004ddc:	0616      	lsls	r6, r2, #24
 8004dde:	d40e      	bmi.n	8004dfe <HAL_UART_IRQHandler+0xda>
  if (((isrflags & USART_SR_TC) != RESET) && ((cr1its & USART_CR1_TCIE) != RESET))
 8004de0:	0651      	lsls	r1, r2, #25
 8004de2:	d5f7      	bpl.n	8004dd4 <HAL_UART_IRQHandler+0xb0>
 8004de4:	066a      	lsls	r2, r5, #25
 8004de6:	d5f5      	bpl.n	8004dd4 <HAL_UART_IRQHandler+0xb0>
  __HAL_UART_DISABLE_IT(huart, UART_IT_TC);
 8004de8:	68da      	ldr	r2, [r3, #12]
  huart->gState = HAL_UART_STATE_READY;
 8004dea:	2120      	movs	r1, #32
  __HAL_UART_DISABLE_IT(huart, UART_IT_TC);
 8004dec:	f022 0240 	bic.w	r2, r2, #64	; 0x40
 8004df0:	60da      	str	r2, [r3, #12]
  HAL_UART_TxCpltCallback(huart);
 8004df2:	4620      	mov	r0, r4
  huart->gState = HAL_UART_STATE_READY;
 8004df4:	f884 1039 	strb.w	r1, [r4, #57]	; 0x39
  HAL_UART_TxCpltCallback(huart);
 8004df8:	f7fc fe6c 	bl	8001ad4 <HAL_UART_TxCpltCallback>
}
 8004dfc:	bd70      	pop	{r4, r5, r6, pc}
  if (((isrflags & USART_SR_TXE) != RESET) && ((cr1its & USART_CR1_TXEIE) != RESET))
 8004dfe:	0628      	lsls	r0, r5, #24
 8004e00:	d5ee      	bpl.n	8004de0 <HAL_UART_IRQHandler+0xbc>
  if (huart->gState == HAL_UART_STATE_BUSY_TX)
 8004e02:	f894 2039 	ldrb.w	r2, [r4, #57]	; 0x39
 8004e06:	2a21      	cmp	r2, #33	; 0x21
 8004e08:	d1e4      	bne.n	8004dd4 <HAL_UART_IRQHandler+0xb0>
    if (huart->Init.WordLength == UART_WORDLENGTH_9B)
 8004e0a:	68a1      	ldr	r1, [r4, #8]
 8004e0c:	6a22      	ldr	r2, [r4, #32]
 8004e0e:	f5b1 5f80 	cmp.w	r1, #4096	; 0x1000
 8004e12:	d036      	beq.n	8004e82 <HAL_UART_IRQHandler+0x15e>
      huart->Instance->DR = (uint8_t)(*huart->pTxBuffPtr++ & (uint8_t)0x00FF);
 8004e14:	1c51      	adds	r1, r2, #1
 8004e16:	6221      	str	r1, [r4, #32]
 8004e18:	7812      	ldrb	r2, [r2, #0]
 8004e1a:	605a      	str	r2, [r3, #4]
    if (--huart->TxXferCount == 0U)
 8004e1c:	8ce2      	ldrh	r2, [r4, #38]	; 0x26
 8004e1e:	3a01      	subs	r2, #1
 8004e20:	b292      	uxth	r2, r2
 8004e22:	84e2      	strh	r2, [r4, #38]	; 0x26
 8004e24:	2a00      	cmp	r2, #0
 8004e26:	d1d5      	bne.n	8004dd4 <HAL_UART_IRQHandler+0xb0>
      __HAL_UART_DISABLE_IT(huart, UART_IT_TXE);
 8004e28:	68da      	ldr	r2, [r3, #12]
 8004e2a:	f022 0280 	bic.w	r2, r2, #128	; 0x80
 8004e2e:	60da      	str	r2, [r3, #12]
      __HAL_UART_ENABLE_IT(huart, UART_IT_TC);
 8004e30:	68da      	ldr	r2, [r3, #12]
 8004e32:	f042 0240 	orr.w	r2, r2, #64	; 0x40
 8004e36:	60da      	str	r2, [r3, #12]
}
 8004e38:	bd70      	pop	{r4, r5, r6, pc}
    if (((isrflags & USART_SR_FE) != RESET) && ((cr3its & USART_CR3_EIE) != RESET))
 8004e3a:	0793      	lsls	r3, r2, #30
 8004e3c:	d58f      	bpl.n	8004d5e <HAL_UART_IRQHandler+0x3a>
 8004e3e:	2900      	cmp	r1, #0
 8004e40:	d08d      	beq.n	8004d5e <HAL_UART_IRQHandler+0x3a>
      huart->ErrorCode |= HAL_UART_ERROR_FE;
 8004e42:	6be3      	ldr	r3, [r4, #60]	; 0x3c
 8004e44:	f043 0304 	orr.w	r3, r3, #4
 8004e48:	63e3      	str	r3, [r4, #60]	; 0x3c
 8004e4a:	e788      	b.n	8004d5e <HAL_UART_IRQHandler+0x3a>
      huart->ErrorCode |= HAL_UART_ERROR_ORE;
 8004e4c:	6be3      	ldr	r3, [r4, #60]	; 0x3c
 8004e4e:	f043 0308 	orr.w	r3, r3, #8
 8004e52:	63e3      	str	r3, [r4, #60]	; 0x3c
 8004e54:	e789      	b.n	8004d6a <HAL_UART_IRQHandler+0x46>
            HAL_UART_ErrorCallback(huart);
 8004e56:	4620      	mov	r0, r4
 8004e58:	f7ff ff62 	bl	8004d20 <HAL_UART_ErrorCallback>
}
 8004e5c:	bd70      	pop	{r4, r5, r6, pc}
  if (huart->RxState == HAL_UART_STATE_BUSY_RX)
 8004e5e:	f894 303a 	ldrb.w	r3, [r4, #58]	; 0x3a
 8004e62:	2b22      	cmp	r3, #34	; 0x22
 8004e64:	d188      	bne.n	8004d78 <HAL_UART_IRQHandler+0x54>
 8004e66:	4620      	mov	r0, r4
 8004e68:	f7ff ff24 	bl	8004cb4 <UART_Receive_IT.part.1>
 8004e6c:	6826      	ldr	r6, [r4, #0]
 8004e6e:	e783      	b.n	8004d78 <HAL_UART_IRQHandler+0x54>
}
 8004e70:	e8bd 4070 	ldmia.w	sp!, {r4, r5, r6, lr}
 8004e74:	f7ff bf1e 	b.w	8004cb4 <UART_Receive_IT.part.1>
        HAL_UART_ErrorCallback(huart);
 8004e78:	4620      	mov	r0, r4
 8004e7a:	f7ff ff51 	bl	8004d20 <HAL_UART_ErrorCallback>
        huart->ErrorCode = HAL_UART_ERROR_NONE;
 8004e7e:	63e5      	str	r5, [r4, #60]	; 0x3c
}
 8004e80:	bd70      	pop	{r4, r5, r6, pc}
      huart->Instance->DR = (uint16_t)(*tmp & (uint16_t)0x01FF);
 8004e82:	8811      	ldrh	r1, [r2, #0]
      if (huart->Init.Parity == UART_PARITY_NONE)
 8004e84:	6920      	ldr	r0, [r4, #16]
      huart->Instance->DR = (uint16_t)(*tmp & (uint16_t)0x01FF);
 8004e86:	f3c1 0108 	ubfx	r1, r1, #0, #9
 8004e8a:	6059      	str	r1, [r3, #4]
      if (huart->Init.Parity == UART_PARITY_NONE)
 8004e8c:	b910      	cbnz	r0, 8004e94 <HAL_UART_IRQHandler+0x170>
        huart->pTxBuffPtr += 2U;
 8004e8e:	3202      	adds	r2, #2
 8004e90:	6222      	str	r2, [r4, #32]
 8004e92:	e7c3      	b.n	8004e1c <HAL_UART_IRQHandler+0xf8>
        huart->pTxBuffPtr += 1U;
 8004e94:	3201      	adds	r2, #1
 8004e96:	6222      	str	r2, [r4, #32]
 8004e98:	e7c0      	b.n	8004e1c <HAL_UART_IRQHandler+0xf8>
 8004e9a:	bf00      	nop
 8004e9c:	08004ea1 	.word	0x08004ea1

08004ea0 <UART_DMAAbortOnError>:
{
 8004ea0:	b508      	push	{r3, lr}
  UART_HandleTypeDef *huart = (UART_HandleTypeDef *)((DMA_HandleTypeDef *)hdma)->Parent;
 8004ea2:	6b83      	ldr	r3, [r0, #56]	; 0x38
  huart->RxXferCount = 0x00U;
 8004ea4:	2200      	movs	r2, #0
 8004ea6:	85da      	strh	r2, [r3, #46]	; 0x2e
  HAL_UART_ErrorCallback(huart);
 8004ea8:	4618      	mov	r0, r3
  huart->TxXferCount = 0x00U;
 8004eaa:	84da      	strh	r2, [r3, #38]	; 0x26
  HAL_UART_ErrorCallback(huart);
 8004eac:	f7ff ff38 	bl	8004d20 <HAL_UART_ErrorCallback>
}
 8004eb0:	bd08      	pop	{r3, pc}
 8004eb2:	bf00      	nop

08004eb4 <USB_CoreReset>:
  * @brief  Reset the USB Core (needed after USB clock settings change)
  * @param  USBx  Selected device
  * @retval HAL status
  */
static HAL_StatusTypeDef USB_CoreReset(USB_OTG_GlobalTypeDef *USBx)
{
 8004eb4:	4b0b      	ldr	r3, [pc, #44]	; (8004ee4 <USB_CoreReset+0x30>)
 8004eb6:	e001      	b.n	8004ebc <USB_CoreReset+0x8>
  uint32_t count = 0U;

  /* Wait for AHB master IDLE state. */
  do
  {
    if (++count > 200000U)
 8004eb8:	3b01      	subs	r3, #1
 8004eba:	d010      	beq.n	8004ede <USB_CoreReset+0x2a>
    {
      return HAL_TIMEOUT;
    }
  }
  while ((USBx->GRSTCTL & USB_OTG_GRSTCTL_AHBIDL) == 0U);
 8004ebc:	6902      	ldr	r2, [r0, #16]
 8004ebe:	2a00      	cmp	r2, #0
 8004ec0:	dafa      	bge.n	8004eb8 <USB_CoreReset+0x4>

  /* Core Soft Reset */
  count = 0U;
  USBx->GRSTCTL |= USB_OTG_GRSTCTL_CSRST;
 8004ec2:	6903      	ldr	r3, [r0, #16]
 8004ec4:	4a07      	ldr	r2, [pc, #28]	; (8004ee4 <USB_CoreReset+0x30>)
 8004ec6:	f043 0301 	orr.w	r3, r3, #1
 8004eca:	6103      	str	r3, [r0, #16]
 8004ecc:	e001      	b.n	8004ed2 <USB_CoreReset+0x1e>

  do
  {
    if (++count > 200000U)
 8004ece:	3a01      	subs	r2, #1
 8004ed0:	d005      	beq.n	8004ede <USB_CoreReset+0x2a>
    {
      return HAL_TIMEOUT;
    }
  }
  while ((USBx->GRSTCTL & USB_OTG_GRSTCTL_CSRST) == USB_OTG_GRSTCTL_CSRST);
 8004ed2:	6903      	ldr	r3, [r0, #16]
 8004ed4:	f013 0301 	ands.w	r3, r3, #1
 8004ed8:	d1f9      	bne.n	8004ece <USB_CoreReset+0x1a>

  return HAL_OK;
 8004eda:	4618      	mov	r0, r3
}
 8004edc:	4770      	bx	lr
      return HAL_TIMEOUT;
 8004ede:	2003      	movs	r0, #3
 8004ee0:	4770      	bx	lr
 8004ee2:	bf00      	nop
 8004ee4:	00030d40 	.word	0x00030d40

08004ee8 <USB_CoreInit>:
{
 8004ee8:	b084      	sub	sp, #16
 8004eea:	b538      	push	{r3, r4, r5, lr}
  if (cfg.phy_itface == USB_OTG_ULPI_PHY)
 8004eec:	9d0a      	ldr	r5, [sp, #40]	; 0x28
{
 8004eee:	ac05      	add	r4, sp, #20
  if (cfg.phy_itface == USB_OTG_ULPI_PHY)
 8004ef0:	2d01      	cmp	r5, #1
{
 8004ef2:	e884 000e 	stmia.w	r4, {r1, r2, r3}
 8004ef6:	4601      	mov	r1, r0
  if (cfg.phy_itface == USB_OTG_ULPI_PHY)
 8004ef8:	d122      	bne.n	8004f40 <USB_CoreInit+0x58>
    USBx->GCCFG &= ~(USB_OTG_GCCFG_PWRDWN);
 8004efa:	6b83      	ldr	r3, [r0, #56]	; 0x38
    if (cfg.use_external_vbus == 1U)
 8004efc:	9a11      	ldr	r2, [sp, #68]	; 0x44
    USBx->GCCFG &= ~(USB_OTG_GCCFG_PWRDWN);
 8004efe:	f423 3380 	bic.w	r3, r3, #65536	; 0x10000
 8004f02:	6383      	str	r3, [r0, #56]	; 0x38
    USBx->GUSBCFG &= ~(USB_OTG_GUSBCFG_TSDPS | USB_OTG_GUSBCFG_ULPIFSLS | USB_OTG_GUSBCFG_PHYSEL);
 8004f04:	68c3      	ldr	r3, [r0, #12]
 8004f06:	f423 0384 	bic.w	r3, r3, #4325376	; 0x420000
 8004f0a:	f023 0340 	bic.w	r3, r3, #64	; 0x40
 8004f0e:	60c3      	str	r3, [r0, #12]
    USBx->GUSBCFG &= ~(USB_OTG_GUSBCFG_ULPIEVBUSD | USB_OTG_GUSBCFG_ULPIEVBUSI);
 8004f10:	68c3      	ldr	r3, [r0, #12]
    if (cfg.use_external_vbus == 1U)
 8004f12:	2a01      	cmp	r2, #1
    USBx->GUSBCFG &= ~(USB_OTG_GUSBCFG_ULPIEVBUSD | USB_OTG_GUSBCFG_ULPIEVBUSI);
 8004f14:	f423 1340 	bic.w	r3, r3, #3145728	; 0x300000
 8004f18:	60c3      	str	r3, [r0, #12]
    if (cfg.use_external_vbus == 1U)
 8004f1a:	d023      	beq.n	8004f64 <USB_CoreInit+0x7c>
    ret = USB_CoreReset(USBx);
 8004f1c:	4608      	mov	r0, r1
 8004f1e:	f7ff ffc9 	bl	8004eb4 <USB_CoreReset>
  if (cfg.dma_enable == 1U)
 8004f22:	9b08      	ldr	r3, [sp, #32]
 8004f24:	2b01      	cmp	r3, #1
 8004f26:	d107      	bne.n	8004f38 <USB_CoreInit+0x50>
    USBx->GAHBCFG |= USB_OTG_GAHBCFG_HBSTLEN_2;
 8004f28:	688b      	ldr	r3, [r1, #8]
 8004f2a:	f043 0306 	orr.w	r3, r3, #6
 8004f2e:	608b      	str	r3, [r1, #8]
    USBx->GAHBCFG |= USB_OTG_GAHBCFG_DMAEN;
 8004f30:	688b      	ldr	r3, [r1, #8]
 8004f32:	f043 0320 	orr.w	r3, r3, #32
 8004f36:	608b      	str	r3, [r1, #8]
}
 8004f38:	e8bd 4038 	ldmia.w	sp!, {r3, r4, r5, lr}
 8004f3c:	b004      	add	sp, #16
 8004f3e:	4770      	bx	lr
    USBx->GUSBCFG |= USB_OTG_GUSBCFG_PHYSEL;
 8004f40:	68c3      	ldr	r3, [r0, #12]
 8004f42:	f043 0340 	orr.w	r3, r3, #64	; 0x40
 8004f46:	60c3      	str	r3, [r0, #12]
    ret = USB_CoreReset(USBx);
 8004f48:	f7ff ffb4 	bl	8004eb4 <USB_CoreReset>
    if (cfg.battery_charging_enable == 0U)
 8004f4c:	9b0e      	ldr	r3, [sp, #56]	; 0x38
 8004f4e:	b923      	cbnz	r3, 8004f5a <USB_CoreInit+0x72>
      USBx->GCCFG |= USB_OTG_GCCFG_PWRDWN;
 8004f50:	6b8b      	ldr	r3, [r1, #56]	; 0x38
 8004f52:	f443 3380 	orr.w	r3, r3, #65536	; 0x10000
 8004f56:	638b      	str	r3, [r1, #56]	; 0x38
 8004f58:	e7e3      	b.n	8004f22 <USB_CoreInit+0x3a>
      USBx->GCCFG &= ~(USB_OTG_GCCFG_PWRDWN);
 8004f5a:	6b8b      	ldr	r3, [r1, #56]	; 0x38
 8004f5c:	f423 3380 	bic.w	r3, r3, #65536	; 0x10000
 8004f60:	638b      	str	r3, [r1, #56]	; 0x38
 8004f62:	e7de      	b.n	8004f22 <USB_CoreInit+0x3a>
      USBx->GUSBCFG |= USB_OTG_GUSBCFG_ULPIEVBUSD;
 8004f64:	68c3      	ldr	r3, [r0, #12]
 8004f66:	f443 1380 	orr.w	r3, r3, #1048576	; 0x100000
 8004f6a:	60c3      	str	r3, [r0, #12]
 8004f6c:	e7d6      	b.n	8004f1c <USB_CoreInit+0x34>
 8004f6e:	bf00      	nop

08004f70 <USB_EnableGlobalInt>:
{
 8004f70:	4602      	mov	r2, r0
}
 8004f72:	2000      	movs	r0, #0
  USBx->GAHBCFG |= USB_OTG_GAHBCFG_GINT;
 8004f74:	6893      	ldr	r3, [r2, #8]
 8004f76:	f043 0301 	orr.w	r3, r3, #1
 8004f7a:	6093      	str	r3, [r2, #8]
}
 8004f7c:	4770      	bx	lr
 8004f7e:	bf00      	nop

08004f80 <USB_DisableGlobalInt>:
{
 8004f80:	4602      	mov	r2, r0
}
 8004f82:	2000      	movs	r0, #0
  USBx->GAHBCFG &= ~USB_OTG_GAHBCFG_GINT;
 8004f84:	6893      	ldr	r3, [r2, #8]
 8004f86:	f023 0301 	bic.w	r3, r3, #1
 8004f8a:	6093      	str	r3, [r2, #8]
}
 8004f8c:	4770      	bx	lr
 8004f8e:	bf00      	nop

08004f90 <USB_SetCurrentMode>:
{
 8004f90:	b508      	push	{r3, lr}
  USBx->GUSBCFG &= ~(USB_OTG_GUSBCFG_FHMOD | USB_OTG_GUSBCFG_FDMOD);
 8004f92:	68c3      	ldr	r3, [r0, #12]
  if (mode == USB_HOST_MODE)
 8004f94:	2901      	cmp	r1, #1
  USBx->GUSBCFG &= ~(USB_OTG_GUSBCFG_FHMOD | USB_OTG_GUSBCFG_FDMOD);
 8004f96:	f023 43c0 	bic.w	r3, r3, #1610612736	; 0x60000000
 8004f9a:	60c3      	str	r3, [r0, #12]
  if (mode == USB_HOST_MODE)
 8004f9c:	d00b      	beq.n	8004fb6 <USB_SetCurrentMode+0x26>
  else if (mode == USB_DEVICE_MODE)
 8004f9e:	b941      	cbnz	r1, 8004fb2 <USB_SetCurrentMode+0x22>
    USBx->GUSBCFG |= USB_OTG_GUSBCFG_FDMOD;
 8004fa0:	68c3      	ldr	r3, [r0, #12]
 8004fa2:	f043 4380 	orr.w	r3, r3, #1073741824	; 0x40000000
 8004fa6:	60c3      	str	r3, [r0, #12]
  HAL_Delay(50U);
 8004fa8:	2032      	movs	r0, #50	; 0x32
 8004faa:	f7fd f8cf 	bl	800214c <HAL_Delay>
  return HAL_OK;
 8004fae:	2000      	movs	r0, #0
}
 8004fb0:	bd08      	pop	{r3, pc}
    return HAL_ERROR;
 8004fb2:	2001      	movs	r0, #1
}
 8004fb4:	bd08      	pop	{r3, pc}
    USBx->GUSBCFG |= USB_OTG_GUSBCFG_FHMOD;
 8004fb6:	68c3      	ldr	r3, [r0, #12]
 8004fb8:	f043 5300 	orr.w	r3, r3, #536870912	; 0x20000000
 8004fbc:	60c3      	str	r3, [r0, #12]
 8004fbe:	e7f3      	b.n	8004fa8 <USB_SetCurrentMode+0x18>

08004fc0 <USB_ReadPacket>:
  uint32_t count32b = ((uint32_t)len + 3U) / 4U;
 8004fc0:	3203      	adds	r2, #3
  for (i = 0U; i < count32b; i++)
 8004fc2:	0892      	lsrs	r2, r2, #2
 8004fc4:	d00c      	beq.n	8004fe0 <USB_ReadPacket+0x20>
{
 8004fc6:	b410      	push	{r4}
 8004fc8:	f500 5480 	add.w	r4, r0, #4096	; 0x1000
 8004fcc:	eb01 0082 	add.w	r0, r1, r2, lsl #2
    __UNALIGNED_UINT32_WRITE(pDest, USBx_DFIFO(0U));
 8004fd0:	6823      	ldr	r3, [r4, #0]
 8004fd2:	f841 3b04 	str.w	r3, [r1], #4
  for (i = 0U; i < count32b; i++)
 8004fd6:	4281      	cmp	r1, r0
 8004fd8:	d1fa      	bne.n	8004fd0 <USB_ReadPacket+0x10>
}
 8004fda:	f85d 4b04 	ldr.w	r4, [sp], #4
 8004fde:	4770      	bx	lr
  uint32_t *pDest = (uint32_t *)dest;
 8004fe0:	4608      	mov	r0, r1
}
 8004fe2:	4770      	bx	lr

08004fe4 <USB_ReadInterrupts>:
  tmpreg = USBx->GINTSTS;
 8004fe4:	6942      	ldr	r2, [r0, #20]
  tmpreg &= USBx->GINTMSK;
 8004fe6:	6980      	ldr	r0, [r0, #24]
}
 8004fe8:	4010      	ands	r0, r2
 8004fea:	4770      	bx	lr

08004fec <USB_GetMode>:
  return ((USBx->GINTSTS) & 0x1U);
 8004fec:	6940      	ldr	r0, [r0, #20]
}
 8004fee:	f000 0001 	and.w	r0, r0, #1
 8004ff2:	4770      	bx	lr

08004ff4 <USB_InitFSLSPClkSel>:
  */
HAL_StatusTypeDef USB_InitFSLSPClkSel(USB_OTG_GlobalTypeDef *USBx, uint8_t freq)
{
  uint32_t USBx_BASE = (uint32_t)USBx;

  USBx_HOST->HCFG &= ~(USB_OTG_HCFG_FSLSPCS);
 8004ff4:	f8d0 3400 	ldr.w	r3, [r0, #1024]	; 0x400
 8004ff8:	f023 0303 	bic.w	r3, r3, #3
 8004ffc:	f8c0 3400 	str.w	r3, [r0, #1024]	; 0x400
  USBx_HOST->HCFG |= (uint32_t)freq & USB_OTG_HCFG_FSLSPCS;
 8005000:	f8d0 2400 	ldr.w	r2, [r0, #1024]	; 0x400
 8005004:	f001 0303 	and.w	r3, r1, #3
 8005008:	4313      	orrs	r3, r2

  if (freq == HCFG_48_MHZ)
 800500a:	2901      	cmp	r1, #1
  USBx_HOST->HCFG |= (uint32_t)freq & USB_OTG_HCFG_FSLSPCS;
 800500c:	f8c0 3400 	str.w	r3, [r0, #1024]	; 0x400
  USBx_HOST->HCFG &= ~(USB_OTG_HCFG_FSLSPCS);
 8005010:	f500 6080 	add.w	r0, r0, #1024	; 0x400
  if (freq == HCFG_48_MHZ)
 8005014:	d006      	beq.n	8005024 <USB_InitFSLSPClkSel+0x30>
  {
    USBx_HOST->HFIR = 48000U;
  }
  else if (freq == HCFG_6_MHZ)
 8005016:	2902      	cmp	r1, #2
  {
    USBx_HOST->HFIR = 6000U;
 8005018:	bf04      	itt	eq
 800501a:	f241 7370 	movweq	r3, #6000	; 0x1770
 800501e:	6043      	streq	r3, [r0, #4]
  {
    /* ... */
  }

  return HAL_OK;
}
 8005020:	2000      	movs	r0, #0
 8005022:	4770      	bx	lr
    USBx_HOST->HFIR = 48000U;
 8005024:	f64b 3380 	movw	r3, #48000	; 0xbb80
 8005028:	6043      	str	r3, [r0, #4]
}
 800502a:	2000      	movs	r0, #0
 800502c:	4770      	bx	lr
 800502e:	bf00      	nop

08005030 <USB_ResetPort>:
  * @retval HAL status
  * @note (1)The application must wait at least 10 ms
  *   before clearing the reset bit.
  */
HAL_StatusTypeDef USB_ResetPort(USB_OTG_GlobalTypeDef *USBx)
{
 8005030:	b530      	push	{r4, r5, lr}
 8005032:	b083      	sub	sp, #12
  uint32_t USBx_BASE = (uint32_t)USBx;

  __IO uint32_t hprt0 = 0U;
 8005034:	2500      	movs	r5, #0
 8005036:	9501      	str	r5, [sp, #4]

  hprt0 = USBx_HPRT0;
 8005038:	f8d0 3440 	ldr.w	r3, [r0, #1088]	; 0x440
 800503c:	9301      	str	r3, [sp, #4]

  hprt0 &= ~(USB_OTG_HPRT_PENA | USB_OTG_HPRT_PCDET |
 800503e:	9b01      	ldr	r3, [sp, #4]
 8005040:	f023 032e 	bic.w	r3, r3, #46	; 0x2e
 8005044:	9301      	str	r3, [sp, #4]
             USB_OTG_HPRT_PENCHNG | USB_OTG_HPRT_POCCHNG);

  USBx_HPRT0 = (USB_OTG_HPRT_PRST | hprt0);
 8005046:	9b01      	ldr	r3, [sp, #4]
 8005048:	f443 7380 	orr.w	r3, r3, #256	; 0x100
{
 800504c:	4604      	mov	r4, r0
  USBx_HPRT0 = (USB_OTG_HPRT_PRST | hprt0);
 800504e:	f8c0 3440 	str.w	r3, [r0, #1088]	; 0x440
  HAL_Delay(100U);                                 /* See Note #1 */
 8005052:	2064      	movs	r0, #100	; 0x64
 8005054:	f7fd f87a 	bl	800214c <HAL_Delay>
  USBx_HPRT0 = ((~USB_OTG_HPRT_PRST) & hprt0);
 8005058:	9b01      	ldr	r3, [sp, #4]
 800505a:	f423 7380 	bic.w	r3, r3, #256	; 0x100
 800505e:	f8c4 3440 	str.w	r3, [r4, #1088]	; 0x440
  HAL_Delay(10U);
 8005062:	200a      	movs	r0, #10
 8005064:	f7fd f872 	bl	800214c <HAL_Delay>

  return HAL_OK;
}
 8005068:	4628      	mov	r0, r5
 800506a:	b003      	add	sp, #12
 800506c:	bd30      	pop	{r4, r5, pc}
 800506e:	bf00      	nop

08005070 <USB_DriveVbus>:
  *           0 : VBUS Active
  *           1 : VBUS Inactive
  * @retval HAL status
*/
HAL_StatusTypeDef USB_DriveVbus(USB_OTG_GlobalTypeDef *USBx, uint8_t state)
{
 8005070:	b082      	sub	sp, #8
  uint32_t USBx_BASE = (uint32_t)USBx;
  __IO uint32_t hprt0 = 0U;
 8005072:	2300      	movs	r3, #0
 8005074:	9301      	str	r3, [sp, #4]

  hprt0 = USBx_HPRT0;
 8005076:	f8d0 3440 	ldr.w	r3, [r0, #1088]	; 0x440
 800507a:	9301      	str	r3, [sp, #4]

  hprt0 &= ~(USB_OTG_HPRT_PENA | USB_OTG_HPRT_PCDET |
 800507c:	9b01      	ldr	r3, [sp, #4]
 800507e:	f023 032e 	bic.w	r3, r3, #46	; 0x2e
 8005082:	9301      	str	r3, [sp, #4]
             USB_OTG_HPRT_PENCHNG | USB_OTG_HPRT_POCCHNG);

  if (((hprt0 & USB_OTG_HPRT_PPWR) == 0U) && (state == 1U))
 8005084:	9b01      	ldr	r3, [sp, #4]
 8005086:	f413 5f80 	tst.w	r3, #4096	; 0x1000
  {
    USBx_HPRT0 = (USB_OTG_HPRT_PPWR | hprt0);
 800508a:	9b01      	ldr	r3, [sp, #4]
  if (((hprt0 & USB_OTG_HPRT_PPWR) == 0U) && (state == 1U))
 800508c:	d101      	bne.n	8005092 <USB_DriveVbus+0x22>
 800508e:	2901      	cmp	r1, #1
 8005090:	d00a      	beq.n	80050a8 <USB_DriveVbus+0x38>
  }
  if (((hprt0 & USB_OTG_HPRT_PPWR) == USB_OTG_HPRT_PPWR) && (state == 0U))
 8005092:	04db      	lsls	r3, r3, #19
 8005094:	d505      	bpl.n	80050a2 <USB_DriveVbus+0x32>
 8005096:	b921      	cbnz	r1, 80050a2 <USB_DriveVbus+0x32>
  {
    USBx_HPRT0 = ((~USB_OTG_HPRT_PPWR) & hprt0);
 8005098:	9b01      	ldr	r3, [sp, #4]
 800509a:	f423 5380 	bic.w	r3, r3, #4096	; 0x1000
 800509e:	f8c0 3440 	str.w	r3, [r0, #1088]	; 0x440
  }
  return HAL_OK;
}
 80050a2:	2000      	movs	r0, #0
 80050a4:	b002      	add	sp, #8
 80050a6:	4770      	bx	lr
    USBx_HPRT0 = (USB_OTG_HPRT_PPWR | hprt0);
 80050a8:	f443 5380 	orr.w	r3, r3, #4096	; 0x1000
 80050ac:	f8c0 3440 	str.w	r3, [r0, #1088]	; 0x440
  if (((hprt0 & USB_OTG_HPRT_PPWR) == USB_OTG_HPRT_PPWR) && (state == 0U))
 80050b0:	9b01      	ldr	r3, [sp, #4]
}
 80050b2:	2000      	movs	r0, #0
 80050b4:	b002      	add	sp, #8
 80050b6:	4770      	bx	lr

080050b8 <USB_HostInit>:
{
 80050b8:	b084      	sub	sp, #16
 80050ba:	b538      	push	{r3, r4, r5, lr}
 80050bc:	4604      	mov	r4, r0
  USBx_PCGCCTL = 0U;
 80050be:	2000      	movs	r0, #0
 80050c0:	f8c4 0e00 	str.w	r0, [r4, #3584]	; 0xe00
  USBx->GCCFG |= USB_OTG_GCCFG_NOVBUSSENS;
 80050c4:	6ba0      	ldr	r0, [r4, #56]	; 0x38
 80050c6:	f440 1000 	orr.w	r0, r0, #2097152	; 0x200000
 80050ca:	63a0      	str	r0, [r4, #56]	; 0x38
  USBx->GCCFG &= ~USB_OTG_GCCFG_VBUSBSEN;
 80050cc:	6ba0      	ldr	r0, [r4, #56]	; 0x38
 80050ce:	f420 2000 	bic.w	r0, r0, #524288	; 0x80000
 80050d2:	63a0      	str	r0, [r4, #56]	; 0x38
  USBx->GCCFG &= ~USB_OTG_GCCFG_VBUSASEN;
 80050d4:	6ba0      	ldr	r0, [r4, #56]	; 0x38
{
 80050d6:	ad05      	add	r5, sp, #20
  USBx->GCCFG &= ~USB_OTG_GCCFG_VBUSASEN;
 80050d8:	f420 2080 	bic.w	r0, r0, #262144	; 0x40000
{
 80050dc:	e885 000e 	stmia.w	r5, {r1, r2, r3}
  USBx->GCCFG &= ~USB_OTG_GCCFG_VBUSASEN;
 80050e0:	63a0      	str	r0, [r4, #56]	; 0x38
  if ((USBx->CID & (0x1U << 8)) != 0U)
 80050e2:	6be3      	ldr	r3, [r4, #60]	; 0x3c
 80050e4:	9906      	ldr	r1, [sp, #24]
 80050e6:	05dd      	lsls	r5, r3, #23
 80050e8:	d557      	bpl.n	800519a <USB_HostInit+0xe2>
    if (cfg.speed == USB_OTG_SPEED_FULL)
 80050ea:	9b07      	ldr	r3, [sp, #28]
 80050ec:	2b03      	cmp	r3, #3
      USBx_HOST->HCFG |= USB_OTG_HCFG_FSLSS;
 80050ee:	f8d4 3400 	ldr.w	r3, [r4, #1024]	; 0x400
    if (cfg.speed == USB_OTG_SPEED_FULL)
 80050f2:	d055      	beq.n	80051a0 <USB_HostInit+0xe8>
    USBx_HOST->HCFG &= ~(USB_OTG_HCFG_FSLSS);
 80050f4:	f023 0304 	bic.w	r3, r3, #4
 80050f8:	f8c4 3400 	str.w	r3, [r4, #1024]	; 0x400
  USBx->GRSTCTL = (USB_OTG_GRSTCTL_TXFFLSH | (num << 6));
 80050fc:	f44f 6384 	mov.w	r3, #1056	; 0x420
 8005100:	6123      	str	r3, [r4, #16]
 8005102:	4b2a      	ldr	r3, [pc, #168]	; (80051ac <USB_HostInit+0xf4>)
 8005104:	e001      	b.n	800510a <USB_HostInit+0x52>
    if (++count > 200000U)
 8005106:	3b01      	subs	r3, #1
 8005108:	d002      	beq.n	8005110 <USB_HostInit+0x58>
  while ((USBx->GRSTCTL & USB_OTG_GRSTCTL_TXFFLSH) == USB_OTG_GRSTCTL_TXFFLSH);
 800510a:	6922      	ldr	r2, [r4, #16]
 800510c:	0690      	lsls	r0, r2, #26
 800510e:	d4fa      	bmi.n	8005106 <USB_HostInit+0x4e>
  USBx->GRSTCTL = USB_OTG_GRSTCTL_RXFFLSH;
 8005110:	2310      	movs	r3, #16
 8005112:	6123      	str	r3, [r4, #16]
 8005114:	4b25      	ldr	r3, [pc, #148]	; (80051ac <USB_HostInit+0xf4>)
 8005116:	e001      	b.n	800511c <USB_HostInit+0x64>
    if (++count > 200000U)
 8005118:	3b01      	subs	r3, #1
 800511a:	d002      	beq.n	8005122 <USB_HostInit+0x6a>
  while ((USBx->GRSTCTL & USB_OTG_GRSTCTL_RXFFLSH) == USB_OTG_GRSTCTL_RXFFLSH);
 800511c:	6922      	ldr	r2, [r4, #16]
 800511e:	06d2      	lsls	r2, r2, #27
 8005120:	d4fa      	bmi.n	8005118 <USB_HostInit+0x60>
  for (i = 0U; i < cfg.Host_channels; i++)
 8005122:	b161      	cbz	r1, 800513e <USB_HostInit+0x86>
 8005124:	2200      	movs	r2, #0
    USBx_HC(i)->HCINTMSK = 0U;
 8005126:	4615      	mov	r5, r2
 8005128:	f504 63a0 	add.w	r3, r4, #1280	; 0x500
    USBx_HC(i)->HCINT = 0xFFFFFFFFU;
 800512c:	f04f 30ff 	mov.w	r0, #4294967295
  for (i = 0U; i < cfg.Host_channels; i++)
 8005130:	3201      	adds	r2, #1
 8005132:	428a      	cmp	r2, r1
    USBx_HC(i)->HCINT = 0xFFFFFFFFU;
 8005134:	6098      	str	r0, [r3, #8]
    USBx_HC(i)->HCINTMSK = 0U;
 8005136:	60dd      	str	r5, [r3, #12]
 8005138:	f103 0320 	add.w	r3, r3, #32
  for (i = 0U; i < cfg.Host_channels; i++)
 800513c:	d1f8      	bne.n	8005130 <USB_HostInit+0x78>
  (void)USB_DriveVbus(USBx, 1U);
 800513e:	2101      	movs	r1, #1
 8005140:	4620      	mov	r0, r4
 8005142:	f7ff ff95 	bl	8005070 <USB_DriveVbus>
  HAL_Delay(200U);
 8005146:	20c8      	movs	r0, #200	; 0xc8
 8005148:	f7fd f800 	bl	800214c <HAL_Delay>
  USBx->GINTSTS = 0xFFFFFFFFU;
 800514c:	f04f 33ff 	mov.w	r3, #4294967295
  USBx->GINTMSK = 0U;
 8005150:	2200      	movs	r2, #0
 8005152:	61a2      	str	r2, [r4, #24]
  USBx->GINTSTS = 0xFFFFFFFFU;
 8005154:	6163      	str	r3, [r4, #20]
  if ((USBx->CID & (0x1U << 8)) != 0U)
 8005156:	6be3      	ldr	r3, [r4, #60]	; 0x3c
 8005158:	05db      	lsls	r3, r3, #23
 800515a:	d516      	bpl.n	800518a <USB_HostInit+0xd2>
    USBx->GRXFSIZ  = 0x200U;
 800515c:	f44f 7100 	mov.w	r1, #512	; 0x200
    USBx->DIEPTXF0_HNPTXFSIZ = (uint32_t)(((0x100U << 16) & USB_OTG_NPTXFD) | 0x200U);
 8005160:	4a13      	ldr	r2, [pc, #76]	; (80051b0 <USB_HostInit+0xf8>)
    USBx->HPTXFSIZ = (uint32_t)(((0xE0U << 16) & USB_OTG_HPTXFSIZ_PTXFD) | 0x300U);
 8005162:	4b14      	ldr	r3, [pc, #80]	; (80051b4 <USB_HostInit+0xfc>)
    USBx->GRXFSIZ  = 0x200U;
 8005164:	6261      	str	r1, [r4, #36]	; 0x24
    USBx->DIEPTXF0_HNPTXFSIZ = (uint32_t)(((0x100U << 16) & USB_OTG_NPTXFD) | 0x200U);
 8005166:	62a2      	str	r2, [r4, #40]	; 0x28
    USBx->HPTXFSIZ = (uint32_t)(((0xE0U << 16) & USB_OTG_HPTXFSIZ_PTXFD) | 0x300U);
 8005168:	f8c4 3100 	str.w	r3, [r4, #256]	; 0x100
  if (cfg.dma_enable == 0U)
 800516c:	9b08      	ldr	r3, [sp, #32]
 800516e:	b91b      	cbnz	r3, 8005178 <USB_HostInit+0xc0>
    USBx->GINTMSK |= USB_OTG_GINTMSK_RXFLVLM;
 8005170:	69a3      	ldr	r3, [r4, #24]
 8005172:	f043 0310 	orr.w	r3, r3, #16
 8005176:	61a3      	str	r3, [r4, #24]
  USBx->GINTMSK |= (USB_OTG_GINTMSK_PRTIM            | USB_OTG_GINTMSK_HCIM | \
 8005178:	69a2      	ldr	r2, [r4, #24]
 800517a:	4b0f      	ldr	r3, [pc, #60]	; (80051b8 <USB_HostInit+0x100>)
 800517c:	4313      	orrs	r3, r2
 800517e:	61a3      	str	r3, [r4, #24]
}
 8005180:	e8bd 4038 	ldmia.w	sp!, {r3, r4, r5, lr}
 8005184:	2000      	movs	r0, #0
 8005186:	b004      	add	sp, #16
 8005188:	4770      	bx	lr
    USBx->GRXFSIZ  = 0x80U;
 800518a:	2180      	movs	r1, #128	; 0x80
    USBx->DIEPTXF0_HNPTXFSIZ = (uint32_t)(((0x60U << 16) & USB_OTG_NPTXFD) | 0x80U);
 800518c:	4a0b      	ldr	r2, [pc, #44]	; (80051bc <USB_HostInit+0x104>)
    USBx->HPTXFSIZ = (uint32_t)(((0x40U << 16)& USB_OTG_HPTXFSIZ_PTXFD) | 0xE0U);
 800518e:	4b0c      	ldr	r3, [pc, #48]	; (80051c0 <USB_HostInit+0x108>)
    USBx->GRXFSIZ  = 0x80U;
 8005190:	6261      	str	r1, [r4, #36]	; 0x24
    USBx->DIEPTXF0_HNPTXFSIZ = (uint32_t)(((0x60U << 16) & USB_OTG_NPTXFD) | 0x80U);
 8005192:	62a2      	str	r2, [r4, #40]	; 0x28
    USBx->HPTXFSIZ = (uint32_t)(((0x40U << 16)& USB_OTG_HPTXFSIZ_PTXFD) | 0xE0U);
 8005194:	f8c4 3100 	str.w	r3, [r4, #256]	; 0x100
 8005198:	e7e8      	b.n	800516c <USB_HostInit+0xb4>
    USBx_HOST->HCFG &= ~(USB_OTG_HCFG_FSLSS);
 800519a:	f8d4 3400 	ldr.w	r3, [r4, #1024]	; 0x400
 800519e:	e7a9      	b.n	80050f4 <USB_HostInit+0x3c>
      USBx_HOST->HCFG |= USB_OTG_HCFG_FSLSS;
 80051a0:	f043 0304 	orr.w	r3, r3, #4
 80051a4:	f8c4 3400 	str.w	r3, [r4, #1024]	; 0x400
 80051a8:	e7a8      	b.n	80050fc <USB_HostInit+0x44>
 80051aa:	bf00      	nop
 80051ac:	00030d40 	.word	0x00030d40
 80051b0:	01000200 	.word	0x01000200
 80051b4:	00e00300 	.word	0x00e00300
 80051b8:	a3200008 	.word	0xa3200008
 80051bc:	00600080 	.word	0x00600080
 80051c0:	004000e0 	.word	0x004000e0

080051c4 <USB_GetHostSpeed>:
  *            @arg HCD_SPEED_HIGH: High speed mode
  *            @arg HCD_SPEED_FULL: Full speed mode
  *            @arg HCD_SPEED_LOW: Low speed mode
  */
uint32_t USB_GetHostSpeed(USB_OTG_GlobalTypeDef *USBx)
{
 80051c4:	b082      	sub	sp, #8
  uint32_t USBx_BASE = (uint32_t)USBx;
  __IO uint32_t hprt0 = 0U;
 80051c6:	2300      	movs	r3, #0
 80051c8:	9301      	str	r3, [sp, #4]

  hprt0 = USBx_HPRT0;
 80051ca:	f8d0 3440 	ldr.w	r3, [r0, #1088]	; 0x440
 80051ce:	9301      	str	r3, [sp, #4]
  return ((hprt0 & USB_OTG_HPRT_PSPD) >> 17);
 80051d0:	9801      	ldr	r0, [sp, #4]
}
 80051d2:	f3c0 4041 	ubfx	r0, r0, #17, #2
 80051d6:	b002      	add	sp, #8
 80051d8:	4770      	bx	lr
 80051da:	bf00      	nop

080051dc <USB_GetCurrentFrame>:
*/
uint32_t USB_GetCurrentFrame(USB_OTG_GlobalTypeDef *USBx)
{
  uint32_t USBx_BASE = (uint32_t)USBx;

  return (USBx_HOST->HFNUM & USB_OTG_HFNUM_FRNUM);
 80051dc:	f500 6080 	add.w	r0, r0, #1024	; 0x400
 80051e0:	6880      	ldr	r0, [r0, #8]
}
 80051e2:	b280      	uxth	r0, r0
 80051e4:	4770      	bx	lr
 80051e6:	bf00      	nop

080051e8 <USB_HC_Init>:
                              uint8_t epnum,
                              uint8_t dev_address,
                              uint8_t speed,
                              uint8_t ep_type,
                              uint16_t mps)
{
 80051e8:	e92d 43f0 	stmdb	sp!, {r4, r5, r6, r7, r8, r9, lr}
  HAL_StatusTypeDef ret = HAL_OK;
  uint32_t USBx_BASE = (uint32_t)USBx;
  uint32_t HCcharEpDir, HCcharLowSpeed;

  /* Clear old interrupt conditions for this host channel. */
  USBx_HC((uint32_t)ch_num)->HCINT = 0xFFFFFFFFU;
 80051ec:	eb00 1541 	add.w	r5, r0, r1, lsl #5
 80051f0:	f505 6ca0 	add.w	ip, r5, #1280	; 0x500
{
 80051f4:	f89d 4020 	ldrb.w	r4, [sp, #32]
 80051f8:	f89d 601c 	ldrb.w	r6, [sp, #28]
 80051fc:	f8bd 7024 	ldrh.w	r7, [sp, #36]	; 0x24
  USBx_HC((uint32_t)ch_num)->HCINT = 0xFFFFFFFFU;
 8005200:	f04f 3eff 	mov.w	lr, #4294967295
 8005204:	f001 010f 	and.w	r1, r1, #15
 8005208:	f04f 0801 	mov.w	r8, #1
 800520c:	f8cc e008 	str.w	lr, [ip, #8]
 8005210:	fa08 f101 	lsl.w	r1, r8, r1
 8005214:	fa4f fe82 	sxtb.w	lr, r2
 8005218:	f500 6980 	add.w	r9, r0, #1024	; 0x400

  /* Enable channel interrupts required for this transfer. */
  switch (ep_type)
 800521c:	2c03      	cmp	r4, #3
 800521e:	d85d      	bhi.n	80052dc <USB_HC_Init+0xf4>
 8005220:	e8df f004 	tbb	[pc, r4]
 8005224:	02493b49 	.word	0x02493b49
        }
      }
      break;

    case EP_TYPE_INTR:
      USBx_HC((uint32_t)ch_num)->HCINTMSK = USB_OTG_HCINTMSK_XFRCM  |
 8005228:	f240 689d 	movw	r8, #1693	; 0x69d
                                            USB_OTG_HCINTMSK_DTERRM |
                                            USB_OTG_HCINTMSK_NAKM   |
                                            USB_OTG_HCINTMSK_AHBERR |
                                            USB_OTG_HCINTMSK_FRMORM;

      if ((epnum & 0x80U) == 0x80U)
 800522c:	f1be 0f00 	cmp.w	lr, #0
      USBx_HC((uint32_t)ch_num)->HCINTMSK = USB_OTG_HCINTMSK_XFRCM  |
 8005230:	f8cc 800c 	str.w	r8, [ip, #12]
      if ((epnum & 0x80U) == 0x80U)
 8005234:	db64      	blt.n	8005300 <USB_HC_Init+0x118>
      ret = HAL_ERROR;
      break;
  }

  /* Enable the top level host channel interrupt. */
  USBx_HOST->HAINTMSK |= 1UL << (ch_num & 0xFU);
 8005236:	f8d9 8018 	ldr.w	r8, [r9, #24]
 800523a:	ea48 0101 	orr.w	r1, r8, r1
 800523e:	f8c9 1018 	str.w	r1, [r9, #24]

  /* Make sure host channel interrupts are enabled. */
  USBx->GINTMSK |= USB_OTG_GINTMSK_HCIM;
 8005242:	f8d0 c018 	ldr.w	ip, [r0, #24]
 8005246:	2100      	movs	r1, #0
 8005248:	f04c 7c00 	orr.w	ip, ip, #33554432	; 0x2000000
 800524c:	f8c0 c018 	str.w	ip, [r0, #24]
  {
    HCcharEpDir = (0x1U << 15) & USB_OTG_HCCHAR_EPDIR;
  }
  else
  {
    HCcharEpDir = 0U;
 8005250:	4608      	mov	r0, r1
  else
  {
    HCcharLowSpeed = 0U;
  }

  USBx_HC((uint32_t)ch_num)->HCCHAR = (((uint32_t)dev_address << 22) & USB_OTG_HCCHAR_DAD) |
 8005252:	059b      	lsls	r3, r3, #22
                                      ((((uint32_t)epnum & 0x7FU) << 11) & USB_OTG_HCCHAR_EPNUM) |
                                      (((uint32_t)ep_type << 18) & USB_OTG_HCCHAR_EPTYP) |
                                      ((uint32_t)mps & USB_OTG_HCCHAR_MPSIZ) | HCcharEpDir | HCcharLowSpeed;
 8005254:	f3c7 070a 	ubfx	r7, r7, #0, #11
                                      ((((uint32_t)epnum & 0x7FU) << 11) & USB_OTG_HCCHAR_EPNUM) |
 8005258:	02d2      	lsls	r2, r2, #11
  USBx_HC((uint32_t)ch_num)->HCCHAR = (((uint32_t)dev_address << 22) & USB_OTG_HCCHAR_DAD) |
 800525a:	f003 53fe 	and.w	r3, r3, #532676608	; 0x1fc00000
                                      (((uint32_t)ep_type << 18) & USB_OTG_HCCHAR_EPTYP) |
 800525e:	433b      	orrs	r3, r7
                                      ((((uint32_t)epnum & 0x7FU) << 11) & USB_OTG_HCCHAR_EPNUM) |
 8005260:	f402 47f0 	and.w	r7, r2, #30720	; 0x7800
                                      (((uint32_t)ep_type << 18) & USB_OTG_HCCHAR_EPTYP) |
 8005264:	04a2      	lsls	r2, r4, #18
 8005266:	f402 2240 	and.w	r2, r2, #786432	; 0xc0000
 800526a:	433b      	orrs	r3, r7
    HCcharLowSpeed = (0x1U << 17) & USB_OTG_HCCHAR_LSDEV;
 800526c:	2e02      	cmp	r6, #2
                                      (((uint32_t)ep_type << 18) & USB_OTG_HCCHAR_EPTYP) |
 800526e:	ea43 0302 	orr.w	r3, r3, r2
                                      ((uint32_t)mps & USB_OTG_HCCHAR_MPSIZ) | HCcharEpDir | HCcharLowSpeed;
 8005272:	ea43 0300 	orr.w	r3, r3, r0
    HCcharLowSpeed = (0x1U << 17) & USB_OTG_HCCHAR_LSDEV;
 8005276:	bf14      	ite	ne
 8005278:	2200      	movne	r2, #0
 800527a:	f44f 3200 	moveq.w	r2, #131072	; 0x20000
                                      ((uint32_t)mps & USB_OTG_HCCHAR_MPSIZ) | HCcharEpDir | HCcharLowSpeed;
 800527e:	4313      	orrs	r3, r2

  if (ep_type == EP_TYPE_INTR)
 8005280:	2c03      	cmp	r4, #3
  USBx_HC((uint32_t)ch_num)->HCCHAR = (((uint32_t)dev_address << 22) & USB_OTG_HCCHAR_DAD) |
 8005282:	f8c5 3500 	str.w	r3, [r5, #1280]	; 0x500
  if (ep_type == EP_TYPE_INTR)
 8005286:	d105      	bne.n	8005294 <USB_HC_Init+0xac>
  {
    USBx_HC((uint32_t)ch_num)->HCCHAR |= USB_OTG_HCCHAR_ODDFRM ;
 8005288:	f8d5 3500 	ldr.w	r3, [r5, #1280]	; 0x500
 800528c:	f043 5300 	orr.w	r3, r3, #536870912	; 0x20000000
 8005290:	f8c5 3500 	str.w	r3, [r5, #1280]	; 0x500
  }

  return ret;
}
 8005294:	4608      	mov	r0, r1
 8005296:	e8bd 83f0 	ldmia.w	sp!, {r4, r5, r6, r7, r8, r9, pc}
      USBx_HC((uint32_t)ch_num)->HCINTMSK = USB_OTG_HCINTMSK_XFRCM  |
 800529a:	f240 2825 	movw	r8, #549	; 0x225
      if ((epnum & 0x80U) == 0x80U)
 800529e:	f1be 0f00 	cmp.w	lr, #0
      USBx_HC((uint32_t)ch_num)->HCINTMSK = USB_OTG_HCINTMSK_XFRCM  |
 80052a2:	f8cc 800c 	str.w	r8, [ip, #12]
      if ((epnum & 0x80U) == 0x80U)
 80052a6:	dac6      	bge.n	8005236 <USB_HC_Init+0x4e>
        USBx_HC((uint32_t)ch_num)->HCINTMSK |= (USB_OTG_HCINTMSK_TXERRM | USB_OTG_HCINTMSK_BBERRM);
 80052a8:	f8dc e00c 	ldr.w	lr, [ip, #12]
 80052ac:	f44e 7ec0 	orr.w	lr, lr, #384	; 0x180
 80052b0:	f8cc e00c 	str.w	lr, [ip, #12]
 80052b4:	e02a      	b.n	800530c <USB_HC_Init+0x124>
      USBx_HC((uint32_t)ch_num)->HCINTMSK = USB_OTG_HCINTMSK_XFRCM  |
 80052b6:	f240 489d 	movw	r8, #1181	; 0x49d
      if ((epnum & 0x80U) == 0x80U)
 80052ba:	f1be 0f00 	cmp.w	lr, #0
      USBx_HC((uint32_t)ch_num)->HCINTMSK = USB_OTG_HCINTMSK_XFRCM  |
 80052be:	f8cc 800c 	str.w	r8, [ip, #12]
      if ((epnum & 0x80U) == 0x80U)
 80052c2:	db1d      	blt.n	8005300 <USB_HC_Init+0x118>
        if ((USBx->CID & (0x1U << 8)) != 0U)
 80052c4:	f8d0 e03c 	ldr.w	lr, [r0, #60]	; 0x3c
 80052c8:	f41e 7f80 	tst.w	lr, #256	; 0x100
 80052cc:	d0b3      	beq.n	8005236 <USB_HC_Init+0x4e>
          USBx_HC((uint32_t)ch_num)->HCINTMSK |= (USB_OTG_HCINTMSK_NYET | USB_OTG_HCINTMSK_ACKM);
 80052ce:	f8dc e00c 	ldr.w	lr, [ip, #12]
 80052d2:	f04e 0e60 	orr.w	lr, lr, #96	; 0x60
 80052d6:	f8cc e00c 	str.w	lr, [ip, #12]
 80052da:	e7ac      	b.n	8005236 <USB_HC_Init+0x4e>
  USBx_HOST->HAINTMSK |= 1UL << (ch_num & 0xFU);
 80052dc:	f8d9 8018 	ldr.w	r8, [r9, #24]
 80052e0:	ea48 0101 	orr.w	r1, r8, r1
 80052e4:	f8c9 1018 	str.w	r1, [r9, #24]
  USBx->GINTMSK |= USB_OTG_GINTMSK_HCIM;
 80052e8:	6981      	ldr	r1, [r0, #24]
      ret = HAL_ERROR;
 80052ea:	f1be 0f00 	cmp.w	lr, #0
  USBx->GINTMSK |= USB_OTG_GINTMSK_HCIM;
 80052ee:	f041 7100 	orr.w	r1, r1, #33554432	; 0x2000000
 80052f2:	6181      	str	r1, [r0, #24]
      ret = HAL_ERROR;
 80052f4:	bfac      	ite	ge
 80052f6:	2000      	movge	r0, #0
 80052f8:	f44f 4000 	movlt.w	r0, #32768	; 0x8000
 80052fc:	2101      	movs	r1, #1
 80052fe:	e7a8      	b.n	8005252 <USB_HC_Init+0x6a>
        USBx_HC((uint32_t)ch_num)->HCINTMSK |= USB_OTG_HCINTMSK_BBERRM;
 8005300:	f8dc e00c 	ldr.w	lr, [ip, #12]
 8005304:	f44e 7e80 	orr.w	lr, lr, #256	; 0x100
 8005308:	f8cc e00c 	str.w	lr, [ip, #12]
  USBx_HOST->HAINTMSK |= 1UL << (ch_num & 0xFU);
 800530c:	f8d9 8018 	ldr.w	r8, [r9, #24]
 8005310:	ea41 0108 	orr.w	r1, r1, r8
 8005314:	f8c9 1018 	str.w	r1, [r9, #24]
  USBx->GINTMSK |= USB_OTG_GINTMSK_HCIM;
 8005318:	6981      	ldr	r1, [r0, #24]
 800531a:	f041 7100 	orr.w	r1, r1, #33554432	; 0x2000000
 800531e:	6181      	str	r1, [r0, #24]
 8005320:	2100      	movs	r1, #0
    HCcharEpDir = (0x1U << 15) & USB_OTG_HCCHAR_EPDIR;
 8005322:	f44f 4000 	mov.w	r0, #32768	; 0x8000
 8005326:	e794      	b.n	8005252 <USB_HC_Init+0x6a>

08005328 <USB_HC_StartXfer>:
  *           0 : DMA feature not used
  *           1 : DMA feature used
  * @retval HAL state
  */
HAL_StatusTypeDef USB_HC_StartXfer(USB_OTG_GlobalTypeDef *USBx, USB_OTG_HCTypeDef *hc, uint8_t dma)
{
 8005328:	e92d 41f0 	stmdb	sp!, {r4, r5, r6, r7, r8, lr}
  uint8_t  is_oddframe;
  uint16_t len_words;
  uint16_t num_packets;
  uint16_t max_hc_pkt_count = 256U;

  if (((USBx->CID & (0x1U << 8)) != 0U) && (hc->speed == USBH_HS_SPEED))
 800532c:	6bc3      	ldr	r3, [r0, #60]	; 0x3c
  uint32_t ch_num = (uint32_t)hc->ch_num;
 800532e:	784f      	ldrb	r7, [r1, #1]
  if (((USBx->CID & (0x1U << 8)) != 0U) && (hc->speed == USBH_HS_SPEED))
 8005330:	05db      	lsls	r3, r3, #23
 8005332:	eb00 1447 	add.w	r4, r0, r7, lsl #5
 8005336:	f504 6ca0 	add.w	ip, r4, #1280	; 0x500
 800533a:	d50d      	bpl.n	8005358 <USB_HC_StartXfer+0x30>
 800533c:	790b      	ldrb	r3, [r1, #4]
 800533e:	b95b      	cbnz	r3, 8005358 <USB_HC_StartXfer+0x30>
  {
    if ((dma == 0U) && (hc->do_ping == 1U))
 8005340:	2a00      	cmp	r2, #0
 8005342:	f000 808b 	beq.w	800545c <USB_HC_StartXfer+0x134>
    {
      (void)USB_DoPing(USBx, hc->ch_num);
      return HAL_OK;
    }
    else if (dma == 1U)
 8005346:	2a01      	cmp	r2, #1
 8005348:	d106      	bne.n	8005358 <USB_HC_StartXfer+0x30>
    {
      USBx_HC(ch_num)->HCINTMSK &= ~(USB_OTG_HCINTMSK_NYET | USB_OTG_HCINTMSK_ACKM);
 800534a:	f8dc 500c 	ldr.w	r5, [ip, #12]
 800534e:	f025 0560 	bic.w	r5, r5, #96	; 0x60
 8005352:	f8cc 500c 	str.w	r5, [ip, #12]
      hc->do_ping = 0U;
 8005356:	714b      	strb	r3, [r1, #5]
      /* ... */
    }
  }

  /* Compute the expected number of packets associated to the transfer */
  if (hc->xfer_len > 0U)
 8005358:	690b      	ldr	r3, [r1, #16]
 800535a:	2b00      	cmp	r3, #0
 800535c:	d14a      	bne.n	80053f4 <USB_HC_StartXfer+0xcc>
 800535e:	f44f 2e00 	mov.w	lr, #524288	; 0x80000
 8005362:	2501      	movs	r5, #1
  }
  else
  {
    num_packets = 1U;
  }
  if (hc->ep_is_in != 0U)
 8005364:	78ce      	ldrb	r6, [r1, #3]
 8005366:	2e00      	cmp	r6, #0
 8005368:	d153      	bne.n	8005412 <USB_HC_StartXfer+0xea>
 800536a:	690d      	ldr	r5, [r1, #16]
  }

  /* Initialize the HCTSIZn register */
  USBx_HC(ch_num)->HCTSIZ = (hc->xfer_len & USB_OTG_HCTSIZ_XFRSIZ) |
                            (((uint32_t)num_packets << 19) & USB_OTG_HCTSIZ_PKTCNT) |
                            (((uint32_t)hc->data_pid << 29) & USB_OTG_HCTSIZ_DPID);
 800536c:	7a8b      	ldrb	r3, [r1, #10]
 800536e:	075b      	lsls	r3, r3, #29
 8005370:	f003 43c0 	and.w	r3, r3, #1610612736	; 0x60000000
                            (((uint32_t)num_packets << 19) & USB_OTG_HCTSIZ_PKTCNT) |
 8005374:	ea43 030e 	orr.w	r3, r3, lr
  USBx_HC(ch_num)->HCTSIZ = (hc->xfer_len & USB_OTG_HCTSIZ_XFRSIZ) |
 8005378:	f3c5 0e12 	ubfx	lr, r5, #0, #19
                            (((uint32_t)num_packets << 19) & USB_OTG_HCTSIZ_PKTCNT) |
 800537c:	ea43 030e 	orr.w	r3, r3, lr
  USBx_HC(ch_num)->HCTSIZ = (hc->xfer_len & USB_OTG_HCTSIZ_XFRSIZ) |
 8005380:	f8cc 3010 	str.w	r3, [ip, #16]

  if (dma != 0U)
 8005384:	b112      	cbz	r2, 800538c <USB_HC_StartXfer+0x64>
  {
    /* xfer_buff MUST be 32-bits aligned */
    USBx_HC(ch_num)->HCDMA = (uint32_t)hc->xfer_buff;
 8005386:	68cb      	ldr	r3, [r1, #12]
 8005388:	f8cc 3014 	str.w	r3, [ip, #20]
  }

  is_oddframe = (((uint32_t)USBx_HOST->HFNUM & 0x01U) != 0U) ? 0U : 1U;
 800538c:	f500 6e80 	add.w	lr, r0, #1024	; 0x400
 8005390:	f8de 3008 	ldr.w	r3, [lr, #8]
  USBx_HC(ch_num)->HCCHAR &= ~USB_OTG_HCCHAR_ODDFRM;
 8005394:	f8d4 8500 	ldr.w	r8, [r4, #1280]	; 0x500
  USBx_HC(ch_num)->HCCHAR |= (uint32_t)is_oddframe << 29;

  /* Set host channel enable */
  tmpreg = USBx_HC(ch_num)->HCCHAR;
 8005398:	f8df c13c 	ldr.w	ip, [pc, #316]	; 80054d8 <USB_HC_StartXfer+0x1b0>
  USBx_HC(ch_num)->HCCHAR &= ~USB_OTG_HCCHAR_ODDFRM;
 800539c:	f028 5800 	bic.w	r8, r8, #536870912	; 0x20000000
 80053a0:	f8c4 8500 	str.w	r8, [r4, #1280]	; 0x500
  USBx_HC(ch_num)->HCCHAR |= (uint32_t)is_oddframe << 29;
 80053a4:	43db      	mvns	r3, r3
 80053a6:	f8d4 8500 	ldr.w	r8, [r4, #1280]	; 0x500
 80053aa:	075b      	lsls	r3, r3, #29
 80053ac:	f003 5300 	and.w	r3, r3, #536870912	; 0x20000000
 80053b0:	ea43 0308 	orr.w	r3, r3, r8
 80053b4:	f8c4 3500 	str.w	r3, [r4, #1280]	; 0x500
  tmpreg = USBx_HC(ch_num)->HCCHAR;
 80053b8:	f8d4 3500 	ldr.w	r3, [r4, #1280]	; 0x500
 80053bc:	f8cc 3000 	str.w	r3, [ip]
  tmpreg &= ~USB_OTG_HCCHAR_CHDIS;
 80053c0:	f8dc 3000 	ldr.w	r3, [ip]
 80053c4:	f023 4380 	bic.w	r3, r3, #1073741824	; 0x40000000
 80053c8:	f8cc 3000 	str.w	r3, [ip]

  /* make sure to set the correct ep direction */
  if (hc->ep_is_in != 0U)
  {
    tmpreg |= USB_OTG_HCCHAR_EPDIR;
 80053cc:	f8dc 3000 	ldr.w	r3, [ip]
  if (hc->ep_is_in != 0U)
 80053d0:	b326      	cbz	r6, 800541c <USB_HC_StartXfer+0xf4>
    tmpreg |= USB_OTG_HCCHAR_EPDIR;
 80053d2:	f443 4300 	orr.w	r3, r3, #32768	; 0x8000
 80053d6:	f8cc 3000 	str.w	r3, [ip]
  }
  else
  {
    tmpreg &= ~USB_OTG_HCCHAR_EPDIR;
  }
  tmpreg |= USB_OTG_HCCHAR_CHENA;
 80053da:	f8dc 3000 	ldr.w	r3, [ip]
 80053de:	f043 4300 	orr.w	r3, r3, #2147483648	; 0x80000000
 80053e2:	f8cc 3000 	str.w	r3, [ip]
  USBx_HC(ch_num)->HCCHAR = tmpreg;
 80053e6:	f8dc 3000 	ldr.w	r3, [ip]
 80053ea:	f8c4 3500 	str.w	r3, [r4, #1280]	; 0x500
      (void)USB_WritePacket(USBx, hc->xfer_buff, hc->ch_num, (uint16_t)hc->xfer_len, 0);
    }
  }

  return HAL_OK;
}
 80053ee:	2000      	movs	r0, #0
 80053f0:	e8bd 81f0 	ldmia.w	sp!, {r4, r5, r6, r7, r8, pc}
    num_packets = (uint16_t)((hc->xfer_len + hc->max_packet - 1U) / hc->max_packet);
 80053f4:	890d      	ldrh	r5, [r1, #8]
 80053f6:	3b01      	subs	r3, #1
 80053f8:	442b      	add	r3, r5
 80053fa:	fbb3 f3f5 	udiv	r3, r3, r5
    if (num_packets > max_hc_pkt_count)
 80053fe:	b29e      	uxth	r6, r3
 8005400:	f5b6 7f80 	cmp.w	r6, #256	; 0x100
 8005404:	d823      	bhi.n	800544e <USB_HC_StartXfer+0x126>
 8005406:	4635      	mov	r5, r6
  if (hc->ep_is_in != 0U)
 8005408:	78ce      	ldrb	r6, [r1, #3]
 800540a:	ea4f 4ec3 	mov.w	lr, r3, lsl #19
 800540e:	2e00      	cmp	r6, #0
 8005410:	d0ab      	beq.n	800536a <USB_HC_StartXfer+0x42>
    hc->xfer_len = (uint32_t)num_packets * hc->max_packet;
 8005412:	890b      	ldrh	r3, [r1, #8]
 8005414:	fb05 f503 	mul.w	r5, r5, r3
 8005418:	610d      	str	r5, [r1, #16]
 800541a:	e7a7      	b.n	800536c <USB_HC_StartXfer+0x44>
    tmpreg &= ~USB_OTG_HCCHAR_EPDIR;
 800541c:	f423 4300 	bic.w	r3, r3, #32768	; 0x8000
 8005420:	f8cc 3000 	str.w	r3, [ip]
  tmpreg |= USB_OTG_HCCHAR_CHENA;
 8005424:	f8dc 3000 	ldr.w	r3, [ip]
 8005428:	f043 4300 	orr.w	r3, r3, #2147483648	; 0x80000000
 800542c:	f8cc 3000 	str.w	r3, [ip]
  USBx_HC(ch_num)->HCCHAR = tmpreg;
 8005430:	f8dc 3000 	ldr.w	r3, [ip]
 8005434:	f8c4 3500 	str.w	r3, [r4, #1280]	; 0x500
  if (dma == 0U) /* Slave mode */
 8005438:	2a00      	cmp	r2, #0
 800543a:	d1d8      	bne.n	80053ee <USB_HC_StartXfer+0xc6>
    if ((hc->ep_is_in == 0U) && (hc->xfer_len > 0U))
 800543c:	2d00      	cmp	r5, #0
 800543e:	d0d6      	beq.n	80053ee <USB_HC_StartXfer+0xc6>
      switch (hc->ep_type)
 8005440:	79cb      	ldrb	r3, [r1, #7]
 8005442:	2b03      	cmp	r3, #3
 8005444:	d822      	bhi.n	800548c <USB_HC_StartXfer+0x164>
 8005446:	e8df f003 	tbb	[pc, r3]
 800544a:	1934      	.short	0x1934
 800544c:	1934      	.short	0x1934
      hc->xfer_len = (uint32_t)num_packets * hc->max_packet;
 800544e:	022d      	lsls	r5, r5, #8
 8005450:	610d      	str	r5, [r1, #16]
 8005452:	f04f 6e00 	mov.w	lr, #134217728	; 0x8000000
 8005456:	f44f 7580 	mov.w	r5, #256	; 0x100
 800545a:	e783      	b.n	8005364 <USB_HC_StartXfer+0x3c>
    if ((dma == 0U) && (hc->do_ping == 1U))
 800545c:	794b      	ldrb	r3, [r1, #5]
 800545e:	2b01      	cmp	r3, #1
 8005460:	f47f af7a 	bne.w	8005358 <USB_HC_StartXfer+0x30>
  uint32_t USBx_BASE = (uint32_t)USBx;
  uint32_t chnum = (uint32_t)ch_num;
  uint32_t num_packets = 1U;
  uint32_t tmpreg;

  USBx_HC(chnum)->HCTSIZ = ((num_packets << 19) & USB_OTG_HCTSIZ_PKTCNT) |
 8005464:	4b1b      	ldr	r3, [pc, #108]	; (80054d4 <USB_HC_StartXfer+0x1ac>)
 8005466:	f8cc 3010 	str.w	r3, [ip, #16]
                           USB_OTG_HCTSIZ_DOPING;

  /* Set host channel enable */
  tmpreg = USBx_HC(chnum)->HCCHAR;
 800546a:	f8d4 3500 	ldr.w	r3, [r4, #1280]	; 0x500
  tmpreg &= ~USB_OTG_HCCHAR_CHDIS;
 800546e:	f023 4380 	bic.w	r3, r3, #1073741824	; 0x40000000
  tmpreg |= USB_OTG_HCCHAR_CHENA;
 8005472:	f043 4300 	orr.w	r3, r3, #2147483648	; 0x80000000
  USBx_HC(chnum)->HCCHAR = tmpreg;
 8005476:	f8c4 3500 	str.w	r3, [r4, #1280]	; 0x500
      return HAL_OK;
 800547a:	e7b8      	b.n	80053ee <USB_HC_StartXfer+0xc6>
          if (len_words > (USBx_HOST->HPTXSTS & 0xFFFFU)) /* split the transfer */
 800547c:	f8de 2010 	ldr.w	r2, [lr, #16]
          len_words = (uint16_t)((hc->xfer_len + 3U) / 4U);
 8005480:	1ceb      	adds	r3, r5, #3
          if (len_words > (USBx_HOST->HPTXSTS & 0xFFFFU)) /* split the transfer */
 8005482:	b292      	uxth	r2, r2
 8005484:	f3c3 038f 	ubfx	r3, r3, #2, #16
 8005488:	429a      	cmp	r2, r3
 800548a:	d31e      	bcc.n	80054ca <USB_HC_StartXfer+0x1a2>
    count32b = ((uint32_t)len + 3U) / 4U;
 800548c:	b2ab      	uxth	r3, r5
 800548e:	3303      	adds	r3, #3
    for (i = 0U; i < count32b; i++)
 8005490:	089b      	lsrs	r3, r3, #2
      (void)USB_WritePacket(USBx, hc->xfer_buff, hc->ch_num, (uint16_t)hc->xfer_len, 0);
 8005492:	68ca      	ldr	r2, [r1, #12]
    for (i = 0U; i < count32b; i++)
 8005494:	d0ab      	beq.n	80053ee <USB_HC_StartXfer+0xc6>
      USBx_DFIFO((uint32_t)ch_ep_num) = __UNALIGNED_UINT32_READ(pSrc);
 8005496:	eb00 3007 	add.w	r0, r0, r7, lsl #12
 800549a:	f500 5080 	add.w	r0, r0, #4096	; 0x1000
 800549e:	eb02 0383 	add.w	r3, r2, r3, lsl #2
 80054a2:	f852 1b04 	ldr.w	r1, [r2], #4
 80054a6:	6001      	str	r1, [r0, #0]
    for (i = 0U; i < count32b; i++)
 80054a8:	4293      	cmp	r3, r2
 80054aa:	d1fa      	bne.n	80054a2 <USB_HC_StartXfer+0x17a>
}
 80054ac:	2000      	movs	r0, #0
 80054ae:	e8bd 81f0 	ldmia.w	sp!, {r4, r5, r6, r7, r8, pc}
          if (len_words > (USBx->HNPTXSTS & 0xFFFFU))
 80054b2:	6ac2      	ldr	r2, [r0, #44]	; 0x2c
          len_words = (uint16_t)((hc->xfer_len + 3U) / 4U);
 80054b4:	1ceb      	adds	r3, r5, #3
          if (len_words > (USBx->HNPTXSTS & 0xFFFFU))
 80054b6:	b292      	uxth	r2, r2
 80054b8:	f3c3 038f 	ubfx	r3, r3, #2, #16
 80054bc:	429a      	cmp	r2, r3
 80054be:	d2e5      	bcs.n	800548c <USB_HC_StartXfer+0x164>
            USBx->GINTMSK |= USB_OTG_GINTMSK_NPTXFEM;
 80054c0:	6983      	ldr	r3, [r0, #24]
 80054c2:	f043 0320 	orr.w	r3, r3, #32
 80054c6:	6183      	str	r3, [r0, #24]
 80054c8:	e7e0      	b.n	800548c <USB_HC_StartXfer+0x164>
            USBx->GINTMSK |= USB_OTG_GINTMSK_PTXFEM;
 80054ca:	6983      	ldr	r3, [r0, #24]
 80054cc:	f043 6380 	orr.w	r3, r3, #67108864	; 0x4000000
 80054d0:	6183      	str	r3, [r0, #24]
 80054d2:	e7db      	b.n	800548c <USB_HC_StartXfer+0x164>
 80054d4:	80080000 	.word	0x80080000
 80054d8:	2000023c 	.word	0x2000023c

080054dc <USB_HC_ReadInterrupt>:
  return ((USBx_HOST->HAINT) & 0xFFFFU);
 80054dc:	f500 6080 	add.w	r0, r0, #1024	; 0x400
 80054e0:	6940      	ldr	r0, [r0, #20]
}
 80054e2:	b280      	uxth	r0, r0
 80054e4:	4770      	bx	lr
 80054e6:	bf00      	nop

080054e8 <USB_HC_Halt>:
  uint32_t HcEpType = (USBx_HC(hcnum)->HCCHAR & USB_OTG_HCCHAR_EPTYP) >> 18;
 80054e8:	eb00 1141 	add.w	r1, r0, r1, lsl #5
{
 80054ec:	b410      	push	{r4}
  uint32_t HcEpType = (USBx_HC(hcnum)->HCCHAR & USB_OTG_HCCHAR_EPTYP) >> 18;
 80054ee:	f8d1 3500 	ldr.w	r3, [r1, #1280]	; 0x500
  if ((HcEpType == HCCHAR_CTRL) || (HcEpType == HCCHAR_BULK))
 80054f2:	f413 2f80 	tst.w	r3, #262144	; 0x40000
    USBx_HC(hcnum)->HCCHAR |= USB_OTG_HCCHAR_CHDIS;
 80054f6:	f8d1 3500 	ldr.w	r3, [r1, #1280]	; 0x500
 80054fa:	f043 4380 	orr.w	r3, r3, #1073741824	; 0x40000000
  uint32_t HcEpType = (USBx_HC(hcnum)->HCCHAR & USB_OTG_HCCHAR_EPTYP) >> 18;
 80054fe:	f501 64a0 	add.w	r4, r1, #1280	; 0x500
    USBx_HC(hcnum)->HCCHAR |= USB_OTG_HCCHAR_CHDIS;
 8005502:	f8c1 3500 	str.w	r3, [r1, #1280]	; 0x500
  if ((HcEpType == HCCHAR_CTRL) || (HcEpType == HCCHAR_BULK))
 8005506:	d022      	beq.n	800554e <USB_HC_Halt+0x66>
    if ((USBx_HOST->HPTXSTS & (0xFFU << 16)) == 0U)
 8005508:	f8d0 3410 	ldr.w	r3, [r0, #1040]	; 0x410
 800550c:	f413 0f7f 	tst.w	r3, #16711680	; 0xff0000
      USBx_HC(hcnum)->HCCHAR &= ~USB_OTG_HCCHAR_CHENA;
 8005510:	f8d1 3500 	ldr.w	r3, [r1, #1280]	; 0x500
    if ((USBx_HOST->HPTXSTS & (0xFFU << 16)) == 0U)
 8005514:	d13d      	bne.n	8005592 <USB_HC_Halt+0xaa>
      USBx_HC(hcnum)->HCCHAR &= ~USB_OTG_HCCHAR_CHENA;
 8005516:	f023 4300 	bic.w	r3, r3, #2147483648	; 0x80000000
 800551a:	f8c1 3500 	str.w	r3, [r1, #1280]	; 0x500
      USBx_HC(hcnum)->HCCHAR |= USB_OTG_HCCHAR_CHENA;
 800551e:	f8d1 3500 	ldr.w	r3, [r1, #1280]	; 0x500
 8005522:	f043 4300 	orr.w	r3, r3, #2147483648	; 0x80000000
 8005526:	f8c1 3500 	str.w	r3, [r1, #1280]	; 0x500
      USBx_HC(hcnum)->HCCHAR &= ~USB_OTG_HCCHAR_EPDIR;
 800552a:	f8d1 3500 	ldr.w	r3, [r1, #1280]	; 0x500
 800552e:	f423 4300 	bic.w	r3, r3, #32768	; 0x8000
 8005532:	f8c1 3500 	str.w	r3, [r1, #1280]	; 0x500
 8005536:	f44f 737a 	mov.w	r3, #1000	; 0x3e8
 800553a:	e001      	b.n	8005540 <USB_HC_Halt+0x58>
        if (++count > 1000U)
 800553c:	3b01      	subs	r3, #1
 800553e:	d002      	beq.n	8005546 <USB_HC_Halt+0x5e>
      while ((USBx_HC(hcnum)->HCCHAR & USB_OTG_HCCHAR_CHENA) == USB_OTG_HCCHAR_CHENA);
 8005540:	6822      	ldr	r2, [r4, #0]
 8005542:	2a00      	cmp	r2, #0
 8005544:	dbfa      	blt.n	800553c <USB_HC_Halt+0x54>
}
 8005546:	2000      	movs	r0, #0
 8005548:	f85d 4b04 	ldr.w	r4, [sp], #4
 800554c:	4770      	bx	lr
    if ((USBx->HNPTXSTS & (0xFFU << 16)) == 0U)
 800554e:	6ac3      	ldr	r3, [r0, #44]	; 0x2c
 8005550:	f413 0f7f 	tst.w	r3, #16711680	; 0xff0000
      USBx_HC(hcnum)->HCCHAR &= ~USB_OTG_HCCHAR_CHENA;
 8005554:	f8d1 3500 	ldr.w	r3, [r1, #1280]	; 0x500
    if ((USBx->HNPTXSTS & (0xFFU << 16)) == 0U)
 8005558:	d11b      	bne.n	8005592 <USB_HC_Halt+0xaa>
      USBx_HC(hcnum)->HCCHAR &= ~USB_OTG_HCCHAR_CHENA;
 800555a:	f023 4300 	bic.w	r3, r3, #2147483648	; 0x80000000
 800555e:	f8c1 3500 	str.w	r3, [r1, #1280]	; 0x500
      USBx_HC(hcnum)->HCCHAR |= USB_OTG_HCCHAR_CHENA;
 8005562:	f8d1 3500 	ldr.w	r3, [r1, #1280]	; 0x500
 8005566:	f043 4300 	orr.w	r3, r3, #2147483648	; 0x80000000
 800556a:	f8c1 3500 	str.w	r3, [r1, #1280]	; 0x500
      USBx_HC(hcnum)->HCCHAR &= ~USB_OTG_HCCHAR_EPDIR;
 800556e:	f8d1 3500 	ldr.w	r3, [r1, #1280]	; 0x500
 8005572:	f423 4300 	bic.w	r3, r3, #32768	; 0x8000
 8005576:	f8c1 3500 	str.w	r3, [r1, #1280]	; 0x500
 800557a:	f44f 737a 	mov.w	r3, #1000	; 0x3e8
 800557e:	e001      	b.n	8005584 <USB_HC_Halt+0x9c>
        if (++count > 1000U)
 8005580:	3b01      	subs	r3, #1
 8005582:	d0e0      	beq.n	8005546 <USB_HC_Halt+0x5e>
      while ((USBx_HC(hcnum)->HCCHAR & USB_OTG_HCCHAR_CHENA) == USB_OTG_HCCHAR_CHENA);
 8005584:	6822      	ldr	r2, [r4, #0]
 8005586:	2a00      	cmp	r2, #0
 8005588:	dbfa      	blt.n	8005580 <USB_HC_Halt+0x98>
}
 800558a:	2000      	movs	r0, #0
 800558c:	f85d 4b04 	ldr.w	r4, [sp], #4
 8005590:	4770      	bx	lr
      USBx_HC(hcnum)->HCCHAR |= USB_OTG_HCCHAR_CHENA;
 8005592:	f043 4300 	orr.w	r3, r3, #2147483648	; 0x80000000
}
 8005596:	2000      	movs	r0, #0
      USBx_HC(hcnum)->HCCHAR |= USB_OTG_HCCHAR_CHENA;
 8005598:	f8c1 3500 	str.w	r3, [r1, #1280]	; 0x500
}
 800559c:	f85d 4b04 	ldr.w	r4, [sp], #4
 80055a0:	4770      	bx	lr
 80055a2:	bf00      	nop

080055a4 <USB_StopHost>:
  USBx->GAHBCFG &= ~USB_OTG_GAHBCFG_GINT;
 80055a4:	6882      	ldr	r2, [r0, #8]
  USBx->GRSTCTL = (USB_OTG_GRSTCTL_TXFFLSH | (num << 6));
 80055a6:	4b22      	ldr	r3, [pc, #136]	; (8005630 <USB_StopHost+0x8c>)
 80055a8:	f44f 6184 	mov.w	r1, #1056	; 0x420
  USBx->GAHBCFG &= ~USB_OTG_GAHBCFG_GINT;
 80055ac:	f022 0201 	bic.w	r2, r2, #1
  * @brief  Stop Host Core
  * @param  USBx  Selected device
  * @retval HAL state
  */
HAL_StatusTypeDef USB_StopHost(USB_OTG_GlobalTypeDef *USBx)
{
 80055b0:	b410      	push	{r4}
  USBx->GAHBCFG &= ~USB_OTG_GAHBCFG_GINT;
 80055b2:	6082      	str	r2, [r0, #8]
  USBx->GRSTCTL = (USB_OTG_GRSTCTL_TXFFLSH | (num << 6));
 80055b4:	6101      	str	r1, [r0, #16]
 80055b6:	e001      	b.n	80055bc <USB_StopHost+0x18>
    if (++count > 200000U)
 80055b8:	3b01      	subs	r3, #1
 80055ba:	d002      	beq.n	80055c2 <USB_StopHost+0x1e>
  while ((USBx->GRSTCTL & USB_OTG_GRSTCTL_TXFFLSH) == USB_OTG_GRSTCTL_TXFFLSH);
 80055bc:	6902      	ldr	r2, [r0, #16]
 80055be:	0691      	lsls	r1, r2, #26
 80055c0:	d4fa      	bmi.n	80055b8 <USB_StopHost+0x14>
  USBx->GRSTCTL = USB_OTG_GRSTCTL_RXFFLSH;
 80055c2:	2310      	movs	r3, #16
 80055c4:	6103      	str	r3, [r0, #16]
 80055c6:	4b1a      	ldr	r3, [pc, #104]	; (8005630 <USB_StopHost+0x8c>)
 80055c8:	e001      	b.n	80055ce <USB_StopHost+0x2a>
    if (++count > 200000U)
 80055ca:	3b01      	subs	r3, #1
 80055cc:	d002      	beq.n	80055d4 <USB_StopHost+0x30>
  while ((USBx->GRSTCTL & USB_OTG_GRSTCTL_RXFFLSH) == USB_OTG_GRSTCTL_RXFFLSH);
 80055ce:	6902      	ldr	r2, [r0, #16]
 80055d0:	06d2      	lsls	r2, r2, #27
 80055d2:	d4fa      	bmi.n	80055ca <USB_StopHost+0x26>
 80055d4:	f500 61a0 	add.w	r1, r0, #1280	; 0x500
  USBx->GRSTCTL = USB_OTG_GRSTCTL_RXFFLSH;
 80055d8:	460c      	mov	r4, r1
 80055da:	f500 62e0 	add.w	r2, r0, #1792	; 0x700
  (void)USB_FlushRxFifo(USBx);

  /* Flush out any leftover queued requests. */
  for (i = 0U; i <= 15U; i++)
  {
    value = USBx_HC(i)->HCCHAR;
 80055de:	6823      	ldr	r3, [r4, #0]
 80055e0:	f023 2380 	bic.w	r3, r3, #2147516416	; 0x80008000
    value |=  USB_OTG_HCCHAR_CHDIS;
    value &= ~USB_OTG_HCCHAR_CHENA;
    value &= ~USB_OTG_HCCHAR_EPDIR;
 80055e4:	f043 4380 	orr.w	r3, r3, #1073741824	; 0x40000000
    USBx_HC(i)->HCCHAR = value;
 80055e8:	f844 3b20 	str.w	r3, [r4], #32
  for (i = 0U; i <= 15U; i++)
 80055ec:	4294      	cmp	r4, r2
 80055ee:	d1f6      	bne.n	80055de <USB_StopHost+0x3a>
  uint32_t count = 0U;
 80055f0:	2300      	movs	r3, #0
  }

  /* Halt all channels to put them into a known state. */
  for (i = 0U; i <= 15U; i++)
  {
    value = USBx_HC(i)->HCCHAR;
 80055f2:	680a      	ldr	r2, [r1, #0]
 80055f4:	f422 4200 	bic.w	r2, r2, #32768	; 0x8000
    value |= USB_OTG_HCCHAR_CHDIS;
    value |= USB_OTG_HCCHAR_CHENA;
    value &= ~USB_OTG_HCCHAR_EPDIR;
 80055f8:	f042 4240 	orr.w	r2, r2, #3221225472	; 0xc0000000
    USBx_HC(i)->HCCHAR = value;
 80055fc:	600a      	str	r2, [r1, #0]
 80055fe:	e002      	b.n	8005606 <USB_StopHost+0x62>
      if (++count > 1000U)
      {
        break;
      }
    }
    while ((USBx_HC(i)->HCCHAR & USB_OTG_HCCHAR_CHENA) == USB_OTG_HCCHAR_CHENA);
 8005600:	680a      	ldr	r2, [r1, #0]
 8005602:	2a00      	cmp	r2, #0
 8005604:	da03      	bge.n	800560e <USB_StopHost+0x6a>
      if (++count > 1000U)
 8005606:	3301      	adds	r3, #1
 8005608:	f5b3 7f7a 	cmp.w	r3, #1000	; 0x3e8
 800560c:	d9f8      	bls.n	8005600 <USB_StopHost+0x5c>
 800560e:	3120      	adds	r1, #32
  for (i = 0U; i <= 15U; i++)
 8005610:	42a1      	cmp	r1, r4
 8005612:	d1ee      	bne.n	80055f2 <USB_StopHost+0x4e>
  }

  /* Clear any pending Host interrupts */
  USBx_HOST->HAINT = 0xFFFFFFFFU;
 8005614:	f04f 33ff 	mov.w	r3, #4294967295
 8005618:	f8c0 3414 	str.w	r3, [r0, #1044]	; 0x414
  USBx->GINTSTS = 0xFFFFFFFFU;
 800561c:	6143      	str	r3, [r0, #20]
  USBx->GAHBCFG |= USB_OTG_GAHBCFG_GINT;
 800561e:	6883      	ldr	r3, [r0, #8]
  (void)USB_EnableGlobalInt(USBx);

  return HAL_OK;
}
 8005620:	f85d 4b04 	ldr.w	r4, [sp], #4
  USBx->GAHBCFG |= USB_OTG_GAHBCFG_GINT;
 8005624:	f043 0301 	orr.w	r3, r3, #1
 8005628:	6083      	str	r3, [r0, #8]
}
 800562a:	2000      	movs	r0, #0
 800562c:	4770      	bx	lr
 800562e:	bf00      	nop
 8005630:	00030d40 	.word	0x00030d40

08005634 <USBH_CDC_SOFProcess>:
  * @retval USBH Status
  */
static USBH_StatusTypeDef USBH_CDC_SOFProcess (USBH_HandleTypeDef *phost)
{
  return USBH_OK;
}
 8005634:	2000      	movs	r0, #0
 8005636:	4770      	bx	lr

08005638 <USBH_CDC_ClassRequest>:
  CDC_HandleTypeDef *CDC_Handle =  (CDC_HandleTypeDef*) phost->pActiveClass->pData;
 8005638:	f8d0 2378 	ldr.w	r2, [r0, #888]	; 0x378
{
 800563c:	b538      	push	{r3, r4, r5, lr}
  CDC_HandleTypeDef *CDC_Handle =  (CDC_HandleTypeDef*) phost->pActiveClass->pData;
 800563e:	69d1      	ldr	r1, [r2, #28]
  * @retval USBH_StatusTypeDef : USB ctl xfer status
  */
static USBH_StatusTypeDef GetLineCoding(USBH_HandleTypeDef *phost, CDC_LineCodingTypeDef *linecoding)
{

  phost->Control.setup.b.bmRequestType = USB_D2H | USB_REQ_TYPE_CLASS | \
 8005640:	f242 13a1 	movw	r3, #8609	; 0x21a1
 8005644:	6103      	str	r3, [r0, #16]
                              USB_REQ_RECIPIENT_INTERFACE;

  phost->Control.setup.b.bRequest = CDC_GET_LINE_CODING;
  phost->Control.setup.b.wValue.w = 0U;
 8005646:	f44f 23e0 	mov.w	r3, #458752	; 0x70000
  phost->Control.setup.b.wIndex.w = 0U;
  phost->Control.setup.b.wLength.w = LINE_CODING_STRUCTURE_SIZE;

  return USBH_CtlReq(phost, linecoding->Array, LINE_CODING_STRUCTURE_SIZE);
 800564a:	3140      	adds	r1, #64	; 0x40
  phost->Control.setup.b.wValue.w = 0U;
 800564c:	6143      	str	r3, [r0, #20]
  return USBH_CtlReq(phost, linecoding->Array, LINE_CODING_STRUCTURE_SIZE);
 800564e:	2207      	movs	r2, #7
{
 8005650:	4604      	mov	r4, r0
  return USBH_CtlReq(phost, linecoding->Array, LINE_CODING_STRUCTURE_SIZE);
 8005652:	f000 fe7f 	bl	8006354 <USBH_CtlReq>
  if(status == USBH_OK)
 8005656:	4605      	mov	r5, r0
 8005658:	b920      	cbnz	r0, 8005664 <USBH_CDC_ClassRequest+0x2c>
    phost->pUser(phost, HOST_USER_CLASS_ACTIVE);
 800565a:	f8d4 33c8 	ldr.w	r3, [r4, #968]	; 0x3c8
 800565e:	4620      	mov	r0, r4
 8005660:	2102      	movs	r1, #2
 8005662:	4798      	blx	r3
}
 8005664:	4628      	mov	r0, r5
 8005666:	bd38      	pop	{r3, r4, r5, pc}

08005668 <USBH_CDC_InterfaceDeInit>:
{
 8005668:	b538      	push	{r3, r4, r5, lr}
  CDC_HandleTypeDef *CDC_Handle =  (CDC_HandleTypeDef*) phost->pActiveClass->pData;
 800566a:	f8d0 3378 	ldr.w	r3, [r0, #888]	; 0x378
 800566e:	69dc      	ldr	r4, [r3, #28]
  if ( CDC_Handle->CommItf.NotifPipe)
 8005670:	7821      	ldrb	r1, [r4, #0]
{
 8005672:	4605      	mov	r5, r0
  if ( CDC_Handle->CommItf.NotifPipe)
 8005674:	b979      	cbnz	r1, 8005696 <USBH_CDC_InterfaceDeInit+0x2e>
  if ( CDC_Handle->DataItf.InPipe)
 8005676:	7b21      	ldrb	r1, [r4, #12]
 8005678:	b9c1      	cbnz	r1, 80056ac <USBH_CDC_InterfaceDeInit+0x44>
  if ( CDC_Handle->DataItf.OutPipe)
 800567a:	7b61      	ldrb	r1, [r4, #13]
 800567c:	bb11      	cbnz	r1, 80056c4 <USBH_CDC_InterfaceDeInit+0x5c>
  if(phost->pActiveClass->pData)
 800567e:	f8d5 3378 	ldr.w	r3, [r5, #888]	; 0x378
 8005682:	69d8      	ldr	r0, [r3, #28]
 8005684:	b128      	cbz	r0, 8005692 <USBH_CDC_InterfaceDeInit+0x2a>
    USBH_free (phost->pActiveClass->pData);
 8005686:	f001 f8bd 	bl	8006804 <free>
    phost->pActiveClass->pData = 0U;
 800568a:	f8d5 3378 	ldr.w	r3, [r5, #888]	; 0x378
 800568e:	2200      	movs	r2, #0
 8005690:	61da      	str	r2, [r3, #28]
}
 8005692:	2000      	movs	r0, #0
 8005694:	bd38      	pop	{r3, r4, r5, pc}
    USBH_ClosePipe(phost, CDC_Handle->CommItf.NotifPipe);
 8005696:	f000 fedf 	bl	8006458 <USBH_ClosePipe>
    USBH_FreePipe  (phost, CDC_Handle->CommItf.NotifPipe);
 800569a:	7821      	ldrb	r1, [r4, #0]
 800569c:	4628      	mov	r0, r5
 800569e:	f000 fef9 	bl	8006494 <USBH_FreePipe>
  if ( CDC_Handle->DataItf.InPipe)
 80056a2:	7b21      	ldrb	r1, [r4, #12]
    CDC_Handle->CommItf.NotifPipe = 0U;     /* Reset the Channel as Free */
 80056a4:	2300      	movs	r3, #0
 80056a6:	7023      	strb	r3, [r4, #0]
  if ( CDC_Handle->DataItf.InPipe)
 80056a8:	2900      	cmp	r1, #0
 80056aa:	d0e6      	beq.n	800567a <USBH_CDC_InterfaceDeInit+0x12>
    USBH_ClosePipe(phost, CDC_Handle->DataItf.InPipe);
 80056ac:	4628      	mov	r0, r5
 80056ae:	f000 fed3 	bl	8006458 <USBH_ClosePipe>
    USBH_FreePipe  (phost, CDC_Handle->DataItf.InPipe);
 80056b2:	7b21      	ldrb	r1, [r4, #12]
 80056b4:	4628      	mov	r0, r5
 80056b6:	f000 feed 	bl	8006494 <USBH_FreePipe>
  if ( CDC_Handle->DataItf.OutPipe)
 80056ba:	7b61      	ldrb	r1, [r4, #13]
    CDC_Handle->DataItf.InPipe = 0U;     /* Reset the Channel as Free */
 80056bc:	2300      	movs	r3, #0
 80056be:	7323      	strb	r3, [r4, #12]
  if ( CDC_Handle->DataItf.OutPipe)
 80056c0:	2900      	cmp	r1, #0
 80056c2:	d0dc      	beq.n	800567e <USBH_CDC_InterfaceDeInit+0x16>
    USBH_ClosePipe(phost, CDC_Handle->DataItf.OutPipe);
 80056c4:	4628      	mov	r0, r5
 80056c6:	f000 fec7 	bl	8006458 <USBH_ClosePipe>
    USBH_FreePipe  (phost, CDC_Handle->DataItf.OutPipe);
 80056ca:	7b61      	ldrb	r1, [r4, #13]
 80056cc:	4628      	mov	r0, r5
 80056ce:	f000 fee1 	bl	8006494 <USBH_FreePipe>
    CDC_Handle->DataItf.OutPipe = 0U;    /* Reset the Channel as Free */
 80056d2:	2300      	movs	r3, #0
 80056d4:	7363      	strb	r3, [r4, #13]
 80056d6:	e7d2      	b.n	800567e <USBH_CDC_InterfaceDeInit+0x16>

080056d8 <USBH_CDC_InterfaceInit>:
{
 80056d8:	b5f0      	push	{r4, r5, r6, r7, lr}
  interface = USBH_FindInterface(phost,
 80056da:	2202      	movs	r2, #2
{
 80056dc:	b085      	sub	sp, #20
  interface = USBH_FindInterface(phost,
 80056de:	4611      	mov	r1, r2
 80056e0:	2301      	movs	r3, #1
{
 80056e2:	4605      	mov	r5, r0
  interface = USBH_FindInterface(phost,
 80056e4:	f000 f9b2 	bl	8005a4c <USBH_FindInterface>
  if(interface == 0xFFU) /* No Valid Interface */
 80056e8:	28ff      	cmp	r0, #255	; 0xff
 80056ea:	f000 8089 	beq.w	8005800 <USBH_CDC_InterfaceInit+0x128>
    USBH_SelectInterface (phost, interface);
 80056ee:	4601      	mov	r1, r0
 80056f0:	4606      	mov	r6, r0
 80056f2:	4628      	mov	r0, r5
 80056f4:	f000 f9a0 	bl	8005a38 <USBH_SelectInterface>
    phost->pActiveClass->pData = (CDC_HandleTypeDef *)USBH_malloc (sizeof(CDC_HandleTypeDef));
 80056f8:	2050      	movs	r0, #80	; 0x50
 80056fa:	f8d5 7378 	ldr.w	r7, [r5, #888]	; 0x378
 80056fe:	f001 f879 	bl	80067f4 <malloc>
    if(phost->device.CfgDesc.Itf_Desc[interface].Ep_Desc[0].bEndpointAddress & 0x80U)
 8005702:	231a      	movs	r3, #26
 8005704:	fb03 5606 	mla	r6, r3, r6, r5
    phost->pActiveClass->pData = (CDC_HandleTypeDef *)USBH_malloc (sizeof(CDC_HandleTypeDef));
 8005708:	61f8      	str	r0, [r7, #28]
    if(phost->device.CfgDesc.Itf_Desc[interface].Ep_Desc[0].bEndpointAddress & 0x80U)
 800570a:	f896 134a 	ldrb.w	r1, [r6, #842]	; 0x34a
    phost->pActiveClass->pData = (CDC_HandleTypeDef *)USBH_malloc (sizeof(CDC_HandleTypeDef));
 800570e:	4604      	mov	r4, r0
    if(phost->device.CfgDesc.Itf_Desc[interface].Ep_Desc[0].bEndpointAddress & 0x80U)
 8005710:	0608      	lsls	r0, r1, #24
      CDC_Handle->CommItf.NotifEpSize  = phost->device.CfgDesc.Itf_Desc[interface].Ep_Desc[0].wMaxPacketSize;
 8005712:	bf4a      	itet	mi
 8005714:	f8b6 334c 	ldrhmi.w	r3, [r6, #844]	; 0x34c
 8005718:	7861      	ldrbpl	r1, [r4, #1]
 800571a:	8163      	strhmi	r3, [r4, #10]
    CDC_Handle->CommItf.NotifPipe = USBH_AllocPipe(phost, CDC_Handle->CommItf.NotifEp);
 800571c:	4628      	mov	r0, r5
      CDC_Handle->CommItf.NotifEp = phost->device.CfgDesc.Itf_Desc[interface].Ep_Desc[0].bEndpointAddress;
 800571e:	bf48      	it	mi
 8005720:	7061      	strbmi	r1, [r4, #1]
    CDC_Handle->CommItf.NotifPipe = USBH_AllocPipe(phost, CDC_Handle->CommItf.NotifEp);
 8005722:	f000 fe9f 	bl	8006464 <USBH_AllocPipe>
    USBH_OpenPipe  (phost,
 8005726:	f895 131d 	ldrb.w	r1, [r5, #797]	; 0x31d
 800572a:	f895 331c 	ldrb.w	r3, [r5, #796]	; 0x31c
 800572e:	7862      	ldrb	r2, [r4, #1]
    CDC_Handle->CommItf.NotifPipe = USBH_AllocPipe(phost, CDC_Handle->CommItf.NotifEp);
 8005730:	4606      	mov	r6, r0
    USBH_OpenPipe  (phost,
 8005732:	8960      	ldrh	r0, [r4, #10]
 8005734:	9002      	str	r0, [sp, #8]
 8005736:	2003      	movs	r0, #3
 8005738:	e9cd 1000 	strd	r1, r0, [sp]
 800573c:	4631      	mov	r1, r6
 800573e:	4628      	mov	r0, r5
    CDC_Handle->CommItf.NotifPipe = USBH_AllocPipe(phost, CDC_Handle->CommItf.NotifEp);
 8005740:	7026      	strb	r6, [r4, #0]
    USBH_OpenPipe  (phost,
 8005742:	f000 fe79 	bl	8006438 <USBH_OpenPipe>
    USBH_LL_SetToggle (phost, CDC_Handle->CommItf.NotifPipe, 0U);
 8005746:	2200      	movs	r2, #0
 8005748:	7821      	ldrb	r1, [r4, #0]
 800574a:	4628      	mov	r0, r5
 800574c:	f001 f806 	bl	800675c <USBH_LL_SetToggle>
    interface = USBH_FindInterface(phost,
 8005750:	2300      	movs	r3, #0
 8005752:	461a      	mov	r2, r3
 8005754:	210a      	movs	r1, #10
 8005756:	4628      	mov	r0, r5
 8005758:	f000 f978 	bl	8005a4c <USBH_FindInterface>
    if(interface == 0xFFU) /* No Valid Interface */
 800575c:	28ff      	cmp	r0, #255	; 0xff
 800575e:	d04f      	beq.n	8005800 <USBH_CDC_InterfaceInit+0x128>
      if(phost->device.CfgDesc.Itf_Desc[interface].Ep_Desc[0].bEndpointAddress & 0x80U)
 8005760:	231a      	movs	r3, #26
 8005762:	fb03 5300 	mla	r3, r3, r0, r5
 8005766:	f893 234a 	ldrb.w	r2, [r3, #842]	; 0x34a
 800576a:	f8b3 334c 	ldrh.w	r3, [r3, #844]	; 0x34c
 800576e:	0611      	lsls	r1, r2, #24
        CDC_Handle->DataItf.InEpSize  = phost->device.CfgDesc.Itf_Desc[interface].Ep_Desc[0].wMaxPacketSize;
 8005770:	bf4c      	ite	mi
 8005772:	8363      	strhmi	r3, [r4, #26]
        CDC_Handle->DataItf.OutEpSize  = phost->device.CfgDesc.Itf_Desc[interface].Ep_Desc[0].wMaxPacketSize;
 8005774:	8323      	strhpl	r3, [r4, #24]
      if(phost->device.CfgDesc.Itf_Desc[interface].Ep_Desc[1].bEndpointAddress & 0x80U)
 8005776:	f04f 031a 	mov.w	r3, #26
 800577a:	fb03 5000 	mla	r0, r3, r0, r5
        CDC_Handle->DataItf.InEp = phost->device.CfgDesc.Itf_Desc[interface].Ep_Desc[0].bEndpointAddress;
 800577e:	bf48      	it	mi
 8005780:	73e2      	strbmi	r2, [r4, #15]
      if(phost->device.CfgDesc.Itf_Desc[interface].Ep_Desc[1].bEndpointAddress & 0x80U)
 8005782:	f890 1352 	ldrb.w	r1, [r0, #850]	; 0x352
        CDC_Handle->DataItf.OutEp = phost->device.CfgDesc.Itf_Desc[interface].Ep_Desc[0].bEndpointAddress;
 8005786:	bf58      	it	pl
 8005788:	73a2      	strbpl	r2, [r4, #14]
      if(phost->device.CfgDesc.Itf_Desc[interface].Ep_Desc[1].bEndpointAddress & 0x80U)
 800578a:	060a      	lsls	r2, r1, #24
 800578c:	f8b0 3354 	ldrh.w	r3, [r0, #852]	; 0x354
 8005790:	d439      	bmi.n	8005806 <USBH_CDC_InterfaceInit+0x12e>
        CDC_Handle->DataItf.OutEp = phost->device.CfgDesc.Itf_Desc[interface].Ep_Desc[1].bEndpointAddress;
 8005792:	73a1      	strb	r1, [r4, #14]
        CDC_Handle->DataItf.OutEpSize  = phost->device.CfgDesc.Itf_Desc[interface].Ep_Desc[1].wMaxPacketSize;
 8005794:	8323      	strh	r3, [r4, #24]
      CDC_Handle->DataItf.OutPipe = USBH_AllocPipe(phost, CDC_Handle->DataItf.OutEp);
 8005796:	4628      	mov	r0, r5
 8005798:	f000 fe64 	bl	8006464 <USBH_AllocPipe>
      CDC_Handle->DataItf.InPipe = USBH_AllocPipe(phost, CDC_Handle->DataItf.InEp);
 800579c:	7be1      	ldrb	r1, [r4, #15]
      CDC_Handle->DataItf.OutPipe = USBH_AllocPipe(phost, CDC_Handle->DataItf.OutEp);
 800579e:	7360      	strb	r0, [r4, #13]
      CDC_Handle->DataItf.InPipe = USBH_AllocPipe(phost, CDC_Handle->DataItf.InEp);
 80057a0:	4628      	mov	r0, r5
 80057a2:	f000 fe5f 	bl	8006464 <USBH_AllocPipe>
      USBH_OpenPipe  (phost,
 80057a6:	f8b4 c018 	ldrh.w	ip, [r4, #24]
 80057aa:	f895 731d 	ldrb.w	r7, [r5, #797]	; 0x31d
 80057ae:	f895 331c 	ldrb.w	r3, [r5, #796]	; 0x31c
 80057b2:	7ba2      	ldrb	r2, [r4, #14]
 80057b4:	7b61      	ldrb	r1, [r4, #13]
      CDC_Handle->DataItf.InPipe = USBH_AllocPipe(phost, CDC_Handle->DataItf.InEp);
 80057b6:	7320      	strb	r0, [r4, #12]
      USBH_OpenPipe  (phost,
 80057b8:	2602      	movs	r6, #2
 80057ba:	e9cd 6c01 	strd	r6, ip, [sp, #4]
 80057be:	9700      	str	r7, [sp, #0]
 80057c0:	4628      	mov	r0, r5
 80057c2:	f000 fe39 	bl	8006438 <USBH_OpenPipe>
      USBH_OpenPipe  (phost,
 80057c6:	8b67      	ldrh	r7, [r4, #26]
 80057c8:	f895 031d 	ldrb.w	r0, [r5, #797]	; 0x31d
 80057cc:	f895 331c 	ldrb.w	r3, [r5, #796]	; 0x31c
 80057d0:	7be2      	ldrb	r2, [r4, #15]
 80057d2:	7b21      	ldrb	r1, [r4, #12]
 80057d4:	9000      	str	r0, [sp, #0]
 80057d6:	e9cd 6701 	strd	r6, r7, [sp, #4]
 80057da:	4628      	mov	r0, r5
      CDC_Handle->state = CDC_IDLE_STATE;
 80057dc:	2600      	movs	r6, #0
      USBH_OpenPipe  (phost,
 80057de:	f000 fe2b 	bl	8006438 <USBH_OpenPipe>
      USBH_LL_SetToggle (phost, CDC_Handle->DataItf.OutPipe, 0U);
 80057e2:	4632      	mov	r2, r6
 80057e4:	7b61      	ldrb	r1, [r4, #13]
      CDC_Handle->state = CDC_IDLE_STATE;
 80057e6:	f884 604c 	strb.w	r6, [r4, #76]	; 0x4c
      USBH_LL_SetToggle (phost, CDC_Handle->DataItf.OutPipe, 0U);
 80057ea:	4628      	mov	r0, r5
 80057ec:	f000 ffb6 	bl	800675c <USBH_LL_SetToggle>
      USBH_LL_SetToggle (phost, CDC_Handle->DataItf.InPipe, 0U);
 80057f0:	4632      	mov	r2, r6
 80057f2:	7b21      	ldrb	r1, [r4, #12]
 80057f4:	4628      	mov	r0, r5
 80057f6:	f000 ffb1 	bl	800675c <USBH_LL_SetToggle>
      status = USBH_OK;
 80057fa:	4630      	mov	r0, r6
}
 80057fc:	b005      	add	sp, #20
 80057fe:	bdf0      	pop	{r4, r5, r6, r7, pc}
  USBH_StatusTypeDef status = USBH_FAIL ;
 8005800:	2002      	movs	r0, #2
}
 8005802:	b005      	add	sp, #20
 8005804:	bdf0      	pop	{r4, r5, r6, r7, pc}
        CDC_Handle->DataItf.InEp = phost->device.CfgDesc.Itf_Desc[interface].Ep_Desc[1].bEndpointAddress;
 8005806:	73e1      	strb	r1, [r4, #15]
        CDC_Handle->DataItf.InEpSize  = phost->device.CfgDesc.Itf_Desc[interface].Ep_Desc[1].wMaxPacketSize;
 8005808:	8363      	strh	r3, [r4, #26]
 800580a:	7ba1      	ldrb	r1, [r4, #14]
 800580c:	e7c3      	b.n	8005796 <USBH_CDC_InterfaceInit+0xbe>
 800580e:	bf00      	nop

08005810 <USBH_CDC_TransmitCallback>:
 8005810:	4770      	bx	lr
 8005812:	bf00      	nop

08005814 <USBH_CDC_ReceiveCallback>:
 8005814:	4770      	bx	lr
 8005816:	bf00      	nop

08005818 <USBH_CDC_LineCodingChanged>:
* @retval None
*/
__weak void USBH_CDC_LineCodingChanged(USBH_HandleTypeDef *phost)
{

}
 8005818:	4770      	bx	lr
 800581a:	bf00      	nop

0800581c <USBH_CDC_Process>:
  CDC_HandleTypeDef *CDC_Handle =  (CDC_HandleTypeDef*) phost->pActiveClass->pData;
 800581c:	f8d0 3378 	ldr.w	r3, [r0, #888]	; 0x378
{
 8005820:	b570      	push	{r4, r5, r6, lr}
  CDC_HandleTypeDef *CDC_Handle =  (CDC_HandleTypeDef*) phost->pActiveClass->pData;
 8005822:	69dc      	ldr	r4, [r3, #28]
  switch(CDC_Handle->state)
 8005824:	f894 304c 	ldrb.w	r3, [r4, #76]	; 0x4c
{
 8005828:	b082      	sub	sp, #8
 800582a:	4605      	mov	r5, r0
  switch(CDC_Handle->state)
 800582c:	2b04      	cmp	r3, #4
 800582e:	d807      	bhi.n	8005840 <USBH_CDC_Process+0x24>
 8005830:	e8df f003 	tbb	[pc, r3]
 8005834:	4a291509 	.word	0x4a291509
 8005838:	0c          	.byte	0x0c
 8005839:	00          	.byte	0x00
      CDC_Handle->state = CDC_GET_LAST_LINE_CODING_STATE;
 800583a:	2302      	movs	r3, #2
 800583c:	f884 304c 	strb.w	r3, [r4, #76]	; 0x4c
  USBH_StatusTypeDef status = USBH_BUSY;
 8005840:	2001      	movs	r0, #1
}
 8005842:	b002      	add	sp, #8
 8005844:	bd70      	pop	{r4, r5, r6, pc}
    status = USBH_OK;
 8005846:	2000      	movs	r0, #0
}
 8005848:	b002      	add	sp, #8
 800584a:	bd70      	pop	{r4, r5, r6, pc}
    req_status = USBH_ClrFeature(phost, 0x00U);
 800584c:	2100      	movs	r1, #0
 800584e:	f000 fd67 	bl	8006320 <USBH_ClrFeature>
    if(req_status == USBH_OK )
 8005852:	2800      	cmp	r0, #0
 8005854:	d1f4      	bne.n	8005840 <USBH_CDC_Process+0x24>
      CDC_Handle->state = CDC_IDLE_STATE ;
 8005856:	f884 004c 	strb.w	r0, [r4, #76]	; 0x4c
  USBH_StatusTypeDef status = USBH_BUSY;
 800585a:	2001      	movs	r0, #1
 800585c:	e7f1      	b.n	8005842 <USBH_CDC_Process+0x26>
  phost->Control.setup.b.wValue.w = 0U;
 800585e:	f242 0221 	movw	r2, #8225	; 0x2021
 8005862:	f44f 23e0 	mov.w	r3, #458752	; 0x70000
    req_status = SetLineCoding(phost, CDC_Handle->pUserLineCoding);
 8005866:	6ca1      	ldr	r1, [r4, #72]	; 0x48
  phost->Control.setup.b.wValue.w = 0U;
 8005868:	e9c0 2304 	strd	r2, r3, [r0, #16]
  return USBH_CtlReq(phost, linecoding->Array, LINE_CODING_STRUCTURE_SIZE);
 800586c:	2207      	movs	r2, #7
 800586e:	f000 fd71 	bl	8006354 <USBH_CtlReq>
    if(req_status == USBH_OK)
 8005872:	2800      	cmp	r0, #0
 8005874:	d0e1      	beq.n	800583a <USBH_CDC_Process+0x1e>
      if(req_status != USBH_BUSY)
 8005876:	2801      	cmp	r0, #1
 8005878:	d0e2      	beq.n	8005840 <USBH_CDC_Process+0x24>
        CDC_Handle->state = CDC_ERROR_STATE;
 800587a:	2304      	movs	r3, #4
  USBH_StatusTypeDef status = USBH_BUSY;
 800587c:	2001      	movs	r0, #1
        CDC_Handle->state = CDC_ERROR_STATE;
 800587e:	f884 304c 	strb.w	r3, [r4, #76]	; 0x4c
}
 8005882:	b002      	add	sp, #8
 8005884:	bd70      	pop	{r4, r5, r6, pc}
  phost->Control.setup.b.wValue.w = 0U;
 8005886:	f242 12a1 	movw	r2, #8609	; 0x21a1
 800588a:	f44f 23e0 	mov.w	r3, #458752	; 0x70000
 800588e:	e9c0 2304 	strd	r2, r3, [r0, #16]
  return USBH_CtlReq(phost, linecoding->Array, LINE_CODING_STRUCTURE_SIZE);
 8005892:	f104 0140 	add.w	r1, r4, #64	; 0x40
 8005896:	2207      	movs	r2, #7
 8005898:	f000 fd5c 	bl	8006354 <USBH_CtlReq>
    if(req_status == USBH_OK)
 800589c:	2800      	cmp	r0, #0
 800589e:	d1ea      	bne.n	8005876 <USBH_CDC_Process+0x5a>
         (CDC_Handle->LineCoding.b.bDataBits == CDC_Handle->pUserLineCoding->b.bDataBits) &&
 80058a0:	e9d4 2111 	ldrd	r2, r1, [r4, #68]	; 0x44
 80058a4:	684b      	ldr	r3, [r1, #4]
      CDC_Handle->state = CDC_IDLE_STATE;
 80058a6:	f884 004c 	strb.w	r0, [r4, #76]	; 0x4c
         (CDC_Handle->LineCoding.b.bDataBits == CDC_Handle->pUserLineCoding->b.bDataBits) &&
 80058aa:	f023 437f 	bic.w	r3, r3, #4278190080	; 0xff000000
 80058ae:	f022 427f 	bic.w	r2, r2, #4278190080	; 0xff000000
      if((CDC_Handle->LineCoding.b.bCharFormat == CDC_Handle->pUserLineCoding->b.bCharFormat) &&
 80058b2:	429a      	cmp	r2, r3
 80058b4:	d1c4      	bne.n	8005840 <USBH_CDC_Process+0x24>
         (CDC_Handle->LineCoding.b.bParityType == CDC_Handle->pUserLineCoding->b.bParityType) &&
 80058b6:	6c22      	ldr	r2, [r4, #64]	; 0x40
 80058b8:	680b      	ldr	r3, [r1, #0]
 80058ba:	429a      	cmp	r2, r3
 80058bc:	d1c0      	bne.n	8005840 <USBH_CDC_Process+0x24>
        USBH_CDC_LineCodingChanged(phost);
 80058be:	4628      	mov	r0, r5
 80058c0:	f7ff ffaa 	bl	8005818 <USBH_CDC_LineCodingChanged>
  USBH_StatusTypeDef status = USBH_BUSY;
 80058c4:	2001      	movs	r0, #1
 80058c6:	e7bc      	b.n	8005842 <USBH_CDC_Process+0x26>
  switch (CDC_Handle->data_tx_state)
 80058c8:	f894 004d 	ldrb.w	r0, [r4, #77]	; 0x4d
 80058cc:	2801      	cmp	r0, #1
 80058ce:	d02f      	beq.n	8005930 <USBH_CDC_Process+0x114>
 80058d0:	2802      	cmp	r0, #2
 80058d2:	d10e      	bne.n	80058f2 <USBH_CDC_Process+0xd6>
    URB_Status = USBH_LL_GetURBState(phost, CDC_Handle->DataItf.OutPipe);
 80058d4:	7b61      	ldrb	r1, [r4, #13]
 80058d6:	4628      	mov	r0, r5
 80058d8:	f000 ff2a 	bl	8006730 <USBH_LL_GetURBState>
    if (URB_Status == USBH_URB_DONE)
 80058dc:	2801      	cmp	r0, #1
 80058de:	d044      	beq.n	800596a <USBH_CDC_Process+0x14e>
 80058e0:	f8d5 3378 	ldr.w	r3, [r5, #888]	; 0x378
      if (URB_Status == USBH_URB_NOTREADY)
 80058e4:	2802      	cmp	r0, #2
 80058e6:	69db      	ldr	r3, [r3, #28]
        CDC_Handle->data_tx_state = CDC_SEND_DATA;
 80058e8:	bf04      	itt	eq
 80058ea:	2201      	moveq	r2, #1
 80058ec:	f884 204d 	strbeq.w	r2, [r4, #77]	; 0x4d
      if (URB_Status == USBH_URB_NOTREADY)
 80058f0:	461c      	mov	r4, r3
  switch(CDC_Handle->data_rx_state)
 80058f2:	f894 304e 	ldrb.w	r3, [r4, #78]	; 0x4e
 80058f6:	2b03      	cmp	r3, #3
 80058f8:	d02c      	beq.n	8005954 <USBH_CDC_Process+0x138>
 80058fa:	2b04      	cmp	r3, #4
 80058fc:	d1a0      	bne.n	8005840 <USBH_CDC_Process+0x24>
    URB_Status = USBH_LL_GetURBState(phost, CDC_Handle->DataItf.InPipe);
 80058fe:	7b21      	ldrb	r1, [r4, #12]
 8005900:	4628      	mov	r0, r5
 8005902:	f000 ff15 	bl	8006730 <USBH_LL_GetURBState>
    if(URB_Status == USBH_URB_DONE)
 8005906:	2801      	cmp	r0, #1
    URB_Status = USBH_LL_GetURBState(phost, CDC_Handle->DataItf.InPipe);
 8005908:	4606      	mov	r6, r0
    if(URB_Status == USBH_URB_DONE)
 800590a:	d199      	bne.n	8005840 <USBH_CDC_Process+0x24>
      length = USBH_LL_GetLastXferSize(phost, CDC_Handle->DataItf.InPipe);
 800590c:	7b21      	ldrb	r1, [r4, #12]
 800590e:	4628      	mov	r0, r5
 8005910:	f000 feca 	bl	80066a8 <USBH_LL_GetLastXferSize>
      if(((CDC_Handle->RxDataLength - length) > 0U) && (length > CDC_Handle->DataItf.InEpSize))
 8005914:	6aa3      	ldr	r3, [r4, #40]	; 0x28
 8005916:	4298      	cmp	r0, r3
 8005918:	d002      	beq.n	8005920 <USBH_CDC_Process+0x104>
 800591a:	8b62      	ldrh	r2, [r4, #26]
 800591c:	4290      	cmp	r0, r2
 800591e:	d840      	bhi.n	80059a2 <USBH_CDC_Process+0x186>
        CDC_Handle->data_rx_state = CDC_IDLE;
 8005920:	2300      	movs	r3, #0
        USBH_CDC_ReceiveCallback(phost);
 8005922:	4628      	mov	r0, r5
        CDC_Handle->data_rx_state = CDC_IDLE;
 8005924:	f884 304e 	strb.w	r3, [r4, #78]	; 0x4e
        USBH_CDC_ReceiveCallback(phost);
 8005928:	f7ff ff74 	bl	8005814 <USBH_CDC_ReceiveCallback>
  USBH_StatusTypeDef status = USBH_BUSY;
 800592c:	2001      	movs	r0, #1
 800592e:	e788      	b.n	8005842 <USBH_CDC_Process+0x26>
    if (CDC_Handle->TxDataLength > CDC_Handle->DataItf.OutEpSize)
 8005930:	8b22      	ldrh	r2, [r4, #24]
 8005932:	6a66      	ldr	r6, [r4, #36]	; 0x24
 8005934:	7b63      	ldrb	r3, [r4, #13]
 8005936:	69e1      	ldr	r1, [r4, #28]
      USBH_BulkSendData (phost,
 8005938:	9000      	str	r0, [sp, #0]
    if (CDC_Handle->TxDataLength > CDC_Handle->DataItf.OutEpSize)
 800593a:	4296      	cmp	r6, r2
      USBH_BulkSendData (phost,
 800593c:	bf98      	it	ls
 800593e:	b2b2      	uxthls	r2, r6
 8005940:	4628      	mov	r0, r5
 8005942:	f000 fd53 	bl	80063ec <USBH_BulkSendData>
 8005946:	f8d5 3378 	ldr.w	r3, [r5, #888]	; 0x378
    CDC_Handle->data_tx_state = CDC_SEND_DATA_WAIT;
 800594a:	2202      	movs	r2, #2
 800594c:	f884 204d 	strb.w	r2, [r4, #77]	; 0x4d
 8005950:	69dc      	ldr	r4, [r3, #28]
 8005952:	e7ce      	b.n	80058f2 <USBH_CDC_Process+0xd6>
    USBH_BulkReceiveData (phost,
 8005954:	7b23      	ldrb	r3, [r4, #12]
 8005956:	8b62      	ldrh	r2, [r4, #26]
 8005958:	6a21      	ldr	r1, [r4, #32]
 800595a:	4628      	mov	r0, r5
 800595c:	f000 fd5c 	bl	8006418 <USBH_BulkReceiveData>
    CDC_Handle->data_rx_state = CDC_RECEIVE_DATA_WAIT;
 8005960:	2304      	movs	r3, #4
 8005962:	f884 304e 	strb.w	r3, [r4, #78]	; 0x4e
  USBH_StatusTypeDef status = USBH_BUSY;
 8005966:	2001      	movs	r0, #1
 8005968:	e76b      	b.n	8005842 <USBH_CDC_Process+0x26>
      if (CDC_Handle->TxDataLength > CDC_Handle->DataItf.OutEpSize)
 800596a:	6a63      	ldr	r3, [r4, #36]	; 0x24
 800596c:	8b22      	ldrh	r2, [r4, #24]
 800596e:	4293      	cmp	r3, r2
 8005970:	d90b      	bls.n	800598a <USBH_CDC_Process+0x16e>
        CDC_Handle->pTxData += CDC_Handle->DataItf.OutEpSize;
 8005972:	69e1      	ldr	r1, [r4, #28]
        CDC_Handle->TxDataLength -= CDC_Handle->DataItf.OutEpSize;
 8005974:	1a9b      	subs	r3, r3, r2
        CDC_Handle->pTxData += CDC_Handle->DataItf.OutEpSize;
 8005976:	440a      	add	r2, r1
        CDC_Handle->TxDataLength -= CDC_Handle->DataItf.OutEpSize;
 8005978:	6263      	str	r3, [r4, #36]	; 0x24
        CDC_Handle->pTxData += CDC_Handle->DataItf.OutEpSize;
 800597a:	61e2      	str	r2, [r4, #28]
      if (CDC_Handle->TxDataLength > 0U)
 800597c:	b13b      	cbz	r3, 800598e <USBH_CDC_Process+0x172>
 800597e:	f8d5 3378 	ldr.w	r3, [r5, #888]	; 0x378
        CDC_Handle->data_tx_state = CDC_SEND_DATA;
 8005982:	f884 004d 	strb.w	r0, [r4, #77]	; 0x4d
 8005986:	69dc      	ldr	r4, [r3, #28]
 8005988:	e7b3      	b.n	80058f2 <USBH_CDC_Process+0xd6>
        CDC_Handle->TxDataLength = 0U;
 800598a:	2300      	movs	r3, #0
 800598c:	6263      	str	r3, [r4, #36]	; 0x24
        CDC_Handle->data_tx_state = CDC_IDLE;
 800598e:	2300      	movs	r3, #0
 8005990:	f884 304d 	strb.w	r3, [r4, #77]	; 0x4d
        USBH_CDC_TransmitCallback(phost);
 8005994:	4628      	mov	r0, r5
 8005996:	f7ff ff3b 	bl	8005810 <USBH_CDC_TransmitCallback>
 800599a:	f8d5 3378 	ldr.w	r3, [r5, #888]	; 0x378
 800599e:	69dc      	ldr	r4, [r3, #28]
 80059a0:	e7a7      	b.n	80058f2 <USBH_CDC_Process+0xd6>
        CDC_Handle->pRxData += length;
 80059a2:	6a22      	ldr	r2, [r4, #32]
        CDC_Handle->RxDataLength -= length ;
 80059a4:	1a1b      	subs	r3, r3, r0
        CDC_Handle->pRxData += length;
 80059a6:	4402      	add	r2, r0
        CDC_Handle->data_rx_state = CDC_RECEIVE_DATA;
 80059a8:	2103      	movs	r1, #3
        CDC_Handle->RxDataLength -= length ;
 80059aa:	62a3      	str	r3, [r4, #40]	; 0x28
  USBH_StatusTypeDef status = USBH_BUSY;
 80059ac:	4630      	mov	r0, r6
        CDC_Handle->pRxData += length;
 80059ae:	6222      	str	r2, [r4, #32]
        CDC_Handle->data_rx_state = CDC_RECEIVE_DATA;
 80059b0:	f884 104e 	strb.w	r1, [r4, #78]	; 0x4e
 80059b4:	e745      	b.n	8005842 <USBH_CDC_Process+0x26>
 80059b6:	bf00      	nop

080059b8 <USBH_Init>:
  * @retval USBH Status
  */
USBH_StatusTypeDef  USBH_Init(USBH_HandleTypeDef *phost, void (*pUsrFunc)(USBH_HandleTypeDef *phost, uint8_t id), uint8_t id)
{
  /* Check whether the USB Host handle is valid */
  if(phost == NULL)
 80059b8:	b370      	cbz	r0, 8005a18 <USBH_Init+0x60>
{
 80059ba:	b538      	push	{r3, r4, r5, lr}

  /* Set DRiver ID */
  phost->id = id;

  /* Unlink class*/
  phost->pActiveClass = NULL;
 80059bc:	2300      	movs	r3, #0
  phost->id = id;
 80059be:	f880 23c0 	strb.w	r2, [r0, #960]	; 0x3c0
  phost->pActiveClass = NULL;
 80059c2:	f8c0 3378 	str.w	r3, [r0, #888]	; 0x378
  phost->ClassNumber = 0U;
 80059c6:	f8c0 337c 	str.w	r3, [r0, #892]	; 0x37c
  uint32_t i = 0U;

  /* Clear Pipes flags*/
  for ( ; i < USBH_MAX_PIPES_NBR; i++)
  {
    phost->Pipes[i] = 0U;
 80059ca:	461a      	mov	r2, r3
 80059cc:	f500 746e 	add.w	r4, r0, #952	; 0x3b8
 80059d0:	f500 735f 	add.w	r3, r0, #892	; 0x37c
 80059d4:	f843 2f04 	str.w	r2, [r3, #4]!
  for ( ; i < USBH_MAX_PIPES_NBR; i++)
 80059d8:	42a3      	cmp	r3, r4
 80059da:	d1fb      	bne.n	80059d4 <USBH_Init+0x1c>
 80059dc:	f200 131b 	addw	r3, r0, #283	; 0x11b
 80059e0:	f200 341b 	addw	r4, r0, #795	; 0x31b
  }

  for(i = 0U; i< USBH_MAX_DATA_BUFFER; i++)
  {
    phost->device.Data[i] = 0U;
 80059e4:	2200      	movs	r2, #0
 80059e6:	f803 2f01 	strb.w	r2, [r3, #1]!
  for(i = 0U; i< USBH_MAX_DATA_BUFFER; i++)
 80059ea:	429c      	cmp	r4, r3
 80059ec:	d1fb      	bne.n	80059e6 <USBH_Init+0x2e>
  }

  phost->gState = HOST_IDLE;
  phost->EnumState = ENUM_IDLE;
  phost->RequestState = CMD_SEND;
 80059ee:	2301      	movs	r3, #1
  phost->Timer = 0U;

  phost->Control.state = CTRL_SETUP;
  phost->Control.pipe_size = USBH_MPS_DEFAULT;
 80059f0:	2540      	movs	r5, #64	; 0x40
  phost->Control.errorcount = 0U;

  phost->device.address = USBH_ADDRESS_DEFAULT;
 80059f2:	f44f 7480 	mov.w	r4, #256	; 0x100
  phost->gState = HOST_IDLE;
 80059f6:	7002      	strb	r2, [r0, #0]
  phost->EnumState = ENUM_IDLE;
 80059f8:	7042      	strb	r2, [r0, #1]
  phost->Timer = 0U;
 80059fa:	f8c0 23bc 	str.w	r2, [r0, #956]	; 0x3bc
  phost->Control.errorcount = 0U;
 80059fe:	7642      	strb	r2, [r0, #25]
  phost->RequestState = CMD_SEND;
 8005a00:	7083      	strb	r3, [r0, #2]
  phost->Control.state = CTRL_SETUP;
 8005a02:	7603      	strb	r3, [r0, #24]
  phost->Control.pipe_size = USBH_MPS_DEFAULT;
 8005a04:	7185      	strb	r5, [r0, #6]
  phost->device.address = USBH_ADDRESS_DEFAULT;
 8005a06:	f8a0 431c 	strh.w	r4, [r0, #796]	; 0x31c
  if(pUsrFunc != NULL)
 8005a0a:	b109      	cbz	r1, 8005a10 <USBH_Init+0x58>
    phost->pUser = pUsrFunc;
 8005a0c:	f8c0 13c8 	str.w	r1, [r0, #968]	; 0x3c8
  USBH_LL_Init(phost);
 8005a10:	f000 fde8 	bl	80065e4 <USBH_LL_Init>
  return USBH_OK;
 8005a14:	2000      	movs	r0, #0
}
 8005a16:	bd38      	pop	{r3, r4, r5, pc}
    return USBH_FAIL;
 8005a18:	2002      	movs	r0, #2
}
 8005a1a:	4770      	bx	lr

08005a1c <USBH_RegisterClass>:
  */
USBH_StatusTypeDef  USBH_RegisterClass(USBH_HandleTypeDef *phost, USBH_ClassTypeDef *pclass)
{
  USBH_StatusTypeDef   status = USBH_OK;

  if(pclass != 0)
 8005a1c:	b149      	cbz	r1, 8005a32 <USBH_RegisterClass+0x16>
  {
    if(phost->ClassNumber < USBH_MAX_NUM_SUPPORTED_CLASS)
 8005a1e:	f8d0 337c 	ldr.w	r3, [r0, #892]	; 0x37c
 8005a22:	b933      	cbnz	r3, 8005a32 <USBH_RegisterClass+0x16>
    {
      /* link the class to the USB Host handle */
      phost->pClass[phost->ClassNumber++] = pclass;
 8005a24:	2201      	movs	r2, #1
 8005a26:	f8c0 1374 	str.w	r1, [r0, #884]	; 0x374
 8005a2a:	f8c0 237c 	str.w	r2, [r0, #892]	; 0x37c
    USBH_ErrLog("Invalid Class handle");
    status = USBH_FAIL;
  }

  return status;
}
 8005a2e:	4618      	mov	r0, r3
 8005a30:	4770      	bx	lr
    status = USBH_FAIL;
 8005a32:	2302      	movs	r3, #2
}
 8005a34:	4618      	mov	r0, r3
 8005a36:	4770      	bx	lr

08005a38 <USBH_SelectInterface>:
  */
USBH_StatusTypeDef USBH_SelectInterface(USBH_HandleTypeDef *phost, uint8_t interface)
{
  USBH_StatusTypeDef   status = USBH_OK;

  if(interface < phost->device.CfgDesc.bNumInterfaces)
 8005a38:	f890 3338 	ldrb.w	r3, [r0, #824]	; 0x338
 8005a3c:	428b      	cmp	r3, r1
  {
    phost->device.current_interface = interface;
 8005a3e:	bf86      	itte	hi
 8005a40:	f880 1320 	strbhi.w	r1, [r0, #800]	; 0x320
  USBH_StatusTypeDef   status = USBH_OK;
 8005a44:	2000      	movhi	r0, #0
    USBH_UsrLog ("Protocol : %xh", phost->device.CfgDesc.Itf_Desc[interface].bInterfaceProtocol );
  }
  else
  {
    USBH_ErrLog ("Cannot Select This Interface.");
    status = USBH_FAIL;
 8005a46:	2002      	movls	r0, #2
  }
  return status;
}
 8005a48:	4770      	bx	lr
 8005a4a:	bf00      	nop

08005a4c <USBH_FindInterface>:
  * @param  Protocol: Protocol code
  * @retval interface index in the configuration structure
  * @note : (1)interface index 0xFF means interface index not found
  */
uint8_t  USBH_FindInterface(USBH_HandleTypeDef *phost, uint8_t Class, uint8_t SubClass, uint8_t Protocol)
{
 8005a4c:	b470      	push	{r4, r5, r6}
 8005a4e:	2400      	movs	r4, #0
  pcfg = &phost->device.CfgDesc;

  while (if_ix < USBH_MAX_NUM_INTERFACES)
  {
    pif = &pcfg->Itf_Desc[if_ix];
    if(((pif->bInterfaceClass == Class) || (Class == 0xFFU))&&
 8005a50:	f890 6343 	ldrb.w	r6, [r0, #835]	; 0x343
 8005a54:	428e      	cmp	r6, r1
 8005a56:	b2e5      	uxtb	r5, r4
 8005a58:	d007      	beq.n	8005a6a <USBH_FindInterface+0x1e>
 8005a5a:	29ff      	cmp	r1, #255	; 0xff
 8005a5c:	d005      	beq.n	8005a6a <USBH_FindInterface+0x1e>
 8005a5e:	301a      	adds	r0, #26
  while (if_ix < USBH_MAX_NUM_INTERFACES)
 8005a60:	b194      	cbz	r4, 8005a88 <USBH_FindInterface+0x3c>
    {
      return  if_ix;
    }
    if_ix++;
  }
  return 0xFFU;
 8005a62:	25ff      	movs	r5, #255	; 0xff
}
 8005a64:	4628      	mov	r0, r5
 8005a66:	bc70      	pop	{r4, r5, r6}
 8005a68:	4770      	bx	lr
    if(((pif->bInterfaceClass == Class) || (Class == 0xFFU))&&
 8005a6a:	f890 6344 	ldrb.w	r6, [r0, #836]	; 0x344
 8005a6e:	4296      	cmp	r6, r2
 8005a70:	d001      	beq.n	8005a76 <USBH_FindInterface+0x2a>
       ((pif->bInterfaceSubClass == SubClass) || (SubClass == 0xFFU))&&
 8005a72:	2aff      	cmp	r2, #255	; 0xff
 8005a74:	d1f3      	bne.n	8005a5e <USBH_FindInterface+0x12>
 8005a76:	f890 6345 	ldrb.w	r6, [r0, #837]	; 0x345
 8005a7a:	429e      	cmp	r6, r3
 8005a7c:	d0f2      	beq.n	8005a64 <USBH_FindInterface+0x18>
         ((pif->bInterfaceProtocol == Protocol) || (Protocol == 0xFFU)))
 8005a7e:	2bff      	cmp	r3, #255	; 0xff
 8005a80:	d0f0      	beq.n	8005a64 <USBH_FindInterface+0x18>
 8005a82:	301a      	adds	r0, #26
  while (if_ix < USBH_MAX_NUM_INTERFACES)
 8005a84:	2c00      	cmp	r4, #0
 8005a86:	d1ec      	bne.n	8005a62 <USBH_FindInterface+0x16>
 8005a88:	2401      	movs	r4, #1
 8005a8a:	e7e1      	b.n	8005a50 <USBH_FindInterface+0x4>

08005a8c <USBH_Start>:
  *         Start the USB Host Core.
  * @param  phost: Host Handle
  * @retval USBH Status
  */
USBH_StatusTypeDef  USBH_Start  (USBH_HandleTypeDef *phost)
{
 8005a8c:	b510      	push	{r4, lr}
 8005a8e:	4604      	mov	r4, r0
  /* Start the low level driver  */
  USBH_LL_Start(phost);
 8005a90:	f000 fdd2 	bl	8006638 <USBH_LL_Start>

  /* Activate VBUS on the port */
  USBH_LL_DriverVBUS (phost, TRUE);
 8005a94:	4620      	mov	r0, r4
 8005a96:	2101      	movs	r1, #1
 8005a98:	f000 fe4e 	bl	8006738 <USBH_LL_DriverVBUS>

  return USBH_OK;
}
 8005a9c:	2000      	movs	r0, #0
 8005a9e:	bd10      	pop	{r4, pc}

08005aa0 <USBH_Process>:
  *         Background process of the USB Core.
  * @param  phost: Host Handle
  * @retval USBH Status
  */
USBH_StatusTypeDef  USBH_Process(USBH_HandleTypeDef *phost)
{
 8005aa0:	b570      	push	{r4, r5, r6, lr}
 8005aa2:	b086      	sub	sp, #24
  * @param  phost: Host Handle
  * @retval None
  */
uint8_t USBH_IsPortEnabled(USBH_HandleTypeDef *phost)
{
  return(phost->device.PortEnabled);
 8005aa4:	f890 331f 	ldrb.w	r3, [r0, #799]	; 0x31f
  __IO USBH_StatusTypeDef status = USBH_FAIL;
 8005aa8:	2202      	movs	r2, #2
{
 8005aaa:	4604      	mov	r4, r0
  __IO USBH_StatusTypeDef status = USBH_FAIL;
 8005aac:	f88d 2017 	strb.w	r2, [sp, #23]
  if (((USBH_IsPortEnabled(phost) == 0U)) && (phost->gState != HOST_IDLE))
 8005ab0:	bb4b      	cbnz	r3, 8005b06 <USBH_Process+0x66>
 8005ab2:	7803      	ldrb	r3, [r0, #0]
 8005ab4:	b123      	cbz	r3, 8005ac0 <USBH_Process+0x20>
    if(phost->gState != HOST_DEV_DISCONNECTED)
 8005ab6:	7803      	ldrb	r3, [r0, #0]
 8005ab8:	2b03      	cmp	r3, #3
 8005aba:	d001      	beq.n	8005ac0 <USBH_Process+0x20>
      phost->gState = HOST_DEV_DISCONNECTED;
 8005abc:	2303      	movs	r3, #3
 8005abe:	7003      	strb	r3, [r0, #0]
  switch (phost->gState)
 8005ac0:	7823      	ldrb	r3, [r4, #0]
 8005ac2:	2b0b      	cmp	r3, #11
 8005ac4:	d81c      	bhi.n	8005b00 <USBH_Process+0x60>
 8005ac6:	e8df f013 	tbh	[pc, r3, lsl #1]
 8005aca:	003d      	.short	0x003d
 8005acc:	0052001b 	.word	0x0052001b
 8005ad0:	001b0082 	.word	0x001b0082
 8005ad4:	00c500ad 	.word	0x00c500ad
 8005ad8:	00e200d7 	.word	0x00e200d7
 8005adc:	00f500ed 	.word	0x00f500ed
 8005ae0:	004a      	.short	0x004a
    if (phost->device.DevDesc.iSerialNumber != 0U)
 8005ae2:	f894 1332 	ldrb.w	r1, [r4, #818]	; 0x332
 8005ae6:	2900      	cmp	r1, #0
 8005ae8:	f040 8178 	bne.w	8005ddc <USBH_Process+0x33c>
      if(phost->device.DevDesc.bNumConfigurations == 1U)
 8005aec:	f894 3333 	ldrb.w	r3, [r4, #819]	; 0x333
      phost->device.current_interface = 0U;
 8005af0:	2200      	movs	r2, #0
      if(phost->device.DevDesc.bNumConfigurations == 1U)
 8005af2:	2b01      	cmp	r3, #1
      phost->device.current_interface = 0U;
 8005af4:	f884 2320 	strb.w	r2, [r4, #800]	; 0x320
      if(phost->device.DevDesc.bNumConfigurations == 1U)
 8005af8:	f000 80c6 	beq.w	8005c88 <USBH_Process+0x1e8>
        phost->gState  = HOST_INPUT;
 8005afc:	2307      	movs	r3, #7
 8005afe:	7023      	strb	r3, [r4, #0]
}
 8005b00:	2000      	movs	r0, #0
 8005b02:	b006      	add	sp, #24
 8005b04:	bd70      	pop	{r4, r5, r6, pc}
  switch (phost->gState)
 8005b06:	7802      	ldrb	r2, [r0, #0]
 8005b08:	2a0b      	cmp	r2, #11
 8005b0a:	d8f9      	bhi.n	8005b00 <USBH_Process+0x60>
 8005b0c:	a101      	add	r1, pc, #4	; (adr r1, 8005b14 <USBH_Process+0x74>)
 8005b0e:	f851 f022 	ldr.w	pc, [r1, r2, lsl #2]
 8005b12:	bf00      	nop
 8005b14:	08005b45 	.word	0x08005b45
 8005b18:	08005cf1 	.word	0x08005cf1
 8005b1c:	08005b6f 	.word	0x08005b6f
 8005b20:	08005bcf 	.word	0x08005bcf
 8005b24:	08005b01 	.word	0x08005b01
 8005b28:	08005c25 	.word	0x08005c25
 8005b2c:	08005c55 	.word	0x08005c55
 8005b30:	08005c79 	.word	0x08005c79
 8005b34:	08005c8f 	.word	0x08005c8f
 8005b38:	08005ca5 	.word	0x08005ca5
 8005b3c:	08005cb5 	.word	0x08005cb5
 8005b40:	08005b5f 	.word	0x08005b5f
    if (phost->device.is_connected)
 8005b44:	f894 331e 	ldrb.w	r3, [r4, #798]	; 0x31e
 8005b48:	2b00      	cmp	r3, #0
 8005b4a:	d0d9      	beq.n	8005b00 <USBH_Process+0x60>
      phost->gState = HOST_DEV_WAIT_FOR_ATTACHMENT;
 8005b4c:	2301      	movs	r3, #1
 8005b4e:	7023      	strb	r3, [r4, #0]
      USBH_Delay(200U);
 8005b50:	20c8      	movs	r0, #200	; 0xc8
 8005b52:	f000 fe15 	bl	8006780 <USBH_Delay>
      USBH_LL_ResetPort(phost);
 8005b56:	4620      	mov	r0, r4
 8005b58:	f000 fd98 	bl	800668c <USBH_LL_ResetPort>
 8005b5c:	e7d0      	b.n	8005b00 <USBH_Process+0x60>
    if(phost->pActiveClass != NULL)
 8005b5e:	f8d4 3378 	ldr.w	r3, [r4, #888]	; 0x378
 8005b62:	2b00      	cmp	r3, #0
 8005b64:	d0cc      	beq.n	8005b00 <USBH_Process+0x60>
      phost->pActiveClass->BgndProcess(phost);
 8005b66:	695b      	ldr	r3, [r3, #20]
 8005b68:	4620      	mov	r0, r4
 8005b6a:	4798      	blx	r3
 8005b6c:	e7c8      	b.n	8005b00 <USBH_Process+0x60>
    USBH_Delay(100U);
 8005b6e:	2064      	movs	r0, #100	; 0x64
 8005b70:	f000 fe06 	bl	8006780 <USBH_Delay>
    phost->device.speed = USBH_LL_GetSpeed(phost);
 8005b74:	4620      	mov	r0, r4
 8005b76:	f000 fd7b 	bl	8006670 <USBH_LL_GetSpeed>
    phost->gState = HOST_ENUMERATION;
 8005b7a:	2305      	movs	r3, #5
 8005b7c:	7023      	strb	r3, [r4, #0]
    phost->device.speed = USBH_LL_GetSpeed(phost);
 8005b7e:	f884 031d 	strb.w	r0, [r4, #797]	; 0x31d
    phost->Control.pipe_out = USBH_AllocPipe (phost, 0x00U);
 8005b82:	2100      	movs	r1, #0
 8005b84:	4620      	mov	r0, r4
 8005b86:	f000 fc6d 	bl	8006464 <USBH_AllocPipe>
    phost->Control.pipe_in  = USBH_AllocPipe (phost, 0x80U);
 8005b8a:	2180      	movs	r1, #128	; 0x80
    phost->Control.pipe_out = USBH_AllocPipe (phost, 0x00U);
 8005b8c:	7160      	strb	r0, [r4, #5]
    phost->Control.pipe_in  = USBH_AllocPipe (phost, 0x80U);
 8005b8e:	4620      	mov	r0, r4
 8005b90:	f000 fc68 	bl	8006464 <USBH_AllocPipe>
 8005b94:	4601      	mov	r1, r0
    USBH_OpenPipe (phost,
 8005b96:	79a0      	ldrb	r0, [r4, #6]
 8005b98:	f894 331c 	ldrb.w	r3, [r4, #796]	; 0x31c
 8005b9c:	f894 231d 	ldrb.w	r2, [r4, #797]	; 0x31d
    phost->Control.pipe_in  = USBH_AllocPipe (phost, 0x80U);
 8005ba0:	7121      	strb	r1, [r4, #4]
    USBH_OpenPipe (phost,
 8005ba2:	2500      	movs	r5, #0
 8005ba4:	e9cd 5001 	strd	r5, r0, [sp, #4]
 8005ba8:	9200      	str	r2, [sp, #0]
      USBH_OpenPipe (phost,
 8005baa:	2280      	movs	r2, #128	; 0x80
 8005bac:	4620      	mov	r0, r4
 8005bae:	f000 fc43 	bl	8006438 <USBH_OpenPipe>
      USBH_OpenPipe (phost,
 8005bb2:	f894 031d 	ldrb.w	r0, [r4, #797]	; 0x31d
 8005bb6:	79a6      	ldrb	r6, [r4, #6]
 8005bb8:	f894 331c 	ldrb.w	r3, [r4, #796]	; 0x31c
 8005bbc:	7961      	ldrb	r1, [r4, #5]
 8005bbe:	9000      	str	r0, [sp, #0]
 8005bc0:	9501      	str	r5, [sp, #4]
 8005bc2:	462a      	mov	r2, r5
 8005bc4:	9602      	str	r6, [sp, #8]
 8005bc6:	4620      	mov	r0, r4
 8005bc8:	f000 fc36 	bl	8006438 <USBH_OpenPipe>
 8005bcc:	e798      	b.n	8005b00 <USBH_Process+0x60>
 8005bce:	f504 735f 	add.w	r3, r4, #892	; 0x37c
 8005bd2:	f504 716e 	add.w	r1, r4, #952	; 0x3b8
    phost->Pipes[i] = 0U;
 8005bd6:	2200      	movs	r2, #0
 8005bd8:	f843 2f04 	str.w	r2, [r3, #4]!
  for ( ; i < USBH_MAX_PIPES_NBR; i++)
 8005bdc:	428b      	cmp	r3, r1
 8005bde:	d1fb      	bne.n	8005bd8 <USBH_Process+0x138>
 8005be0:	f204 131b 	addw	r3, r4, #283	; 0x11b
 8005be4:	f204 321b 	addw	r2, r4, #795	; 0x31b
    phost->device.Data[i] = 0U;
 8005be8:	2500      	movs	r5, #0
 8005bea:	f803 5f01 	strb.w	r5, [r3, #1]!
  for(i = 0U; i< USBH_MAX_DATA_BUFFER; i++)
 8005bee:	429a      	cmp	r2, r3
 8005bf0:	d1fb      	bne.n	8005bea <USBH_Process+0x14a>
    if(phost->pActiveClass != NULL)
 8005bf2:	f8d4 2378 	ldr.w	r2, [r4, #888]	; 0x378
  phost->gState = HOST_IDLE;
 8005bf6:	7025      	strb	r5, [r4, #0]
  phost->RequestState = CMD_SEND;
 8005bf8:	2301      	movs	r3, #1
  phost->Control.pipe_size = USBH_MPS_DEFAULT;
 8005bfa:	2040      	movs	r0, #64	; 0x40
  phost->device.address = USBH_ADDRESS_DEFAULT;
 8005bfc:	f44f 7180 	mov.w	r1, #256	; 0x100
  phost->EnumState = ENUM_IDLE;
 8005c00:	7065      	strb	r5, [r4, #1]
  phost->Timer = 0U;
 8005c02:	f8c4 53bc 	str.w	r5, [r4, #956]	; 0x3bc
  phost->Control.errorcount = 0U;
 8005c06:	7665      	strb	r5, [r4, #25]
  phost->RequestState = CMD_SEND;
 8005c08:	70a3      	strb	r3, [r4, #2]
  phost->Control.state = CTRL_SETUP;
 8005c0a:	7623      	strb	r3, [r4, #24]
  phost->Control.pipe_size = USBH_MPS_DEFAULT;
 8005c0c:	71a0      	strb	r0, [r4, #6]
  phost->device.address = USBH_ADDRESS_DEFAULT;
 8005c0e:	f8a4 131c 	strh.w	r1, [r4, #796]	; 0x31c
    if(phost->pActiveClass != NULL)
 8005c12:	2a00      	cmp	r2, #0
 8005c14:	f43f af74 	beq.w	8005b00 <USBH_Process+0x60>
      phost->pActiveClass->DeInit(phost);
 8005c18:	68d3      	ldr	r3, [r2, #12]
 8005c1a:	4620      	mov	r0, r4
 8005c1c:	4798      	blx	r3
      phost->pActiveClass = NULL;
 8005c1e:	f8c4 5378 	str.w	r5, [r4, #888]	; 0x378
 8005c22:	e76d      	b.n	8005b00 <USBH_Process+0x60>
  switch (phost->EnumState)
 8005c24:	7863      	ldrb	r3, [r4, #1]
 8005c26:	2b07      	cmp	r3, #7
 8005c28:	f63f af6a 	bhi.w	8005b00 <USBH_Process+0x60>
 8005c2c:	a201      	add	r2, pc, #4	; (adr r2, 8005c34 <USBH_Process+0x194>)
 8005c2e:	f852 f023 	ldr.w	pc, [r2, r3, lsl #2]
 8005c32:	bf00      	nop
 8005c34:	08005d43 	.word	0x08005d43
 8005c38:	08005d0b 	.word	0x08005d0b
 8005c3c:	08005d83 	.word	0x08005d83
 8005c40:	08005d6f 	.word	0x08005d6f
 8005c44:	08005d2d 	.word	0x08005d2d
 8005c48:	08005d1f 	.word	0x08005d1f
 8005c4c:	08005cfd 	.word	0x08005cfd
 8005c50:	08005ae3 	.word	0x08005ae3
    if(phost->pActiveClass != NULL)
 8005c54:	f8d4 3378 	ldr.w	r3, [r4, #888]	; 0x378
 8005c58:	2b00      	cmp	r3, #0
 8005c5a:	f000 80b2 	beq.w	8005dc2 <USBH_Process+0x322>
      status = phost->pActiveClass->Requests(phost);
 8005c5e:	691b      	ldr	r3, [r3, #16]
 8005c60:	4620      	mov	r0, r4
 8005c62:	4798      	blx	r3
 8005c64:	f88d 0017 	strb.w	r0, [sp, #23]
      if(status == USBH_OK)
 8005c68:	f89d 3017 	ldrb.w	r3, [sp, #23]
 8005c6c:	2b00      	cmp	r3, #0
 8005c6e:	f47f af47 	bne.w	8005b00 <USBH_Process+0x60>
        phost->gState  = HOST_CLASS;
 8005c72:	230b      	movs	r3, #11
 8005c74:	7023      	strb	r3, [r4, #0]
 8005c76:	e743      	b.n	8005b00 <USBH_Process+0x60>
      if(phost->pUser != NULL)
 8005c78:	f8d4 33c8 	ldr.w	r3, [r4, #968]	; 0x3c8
 8005c7c:	2b00      	cmp	r3, #0
 8005c7e:	f43f af3f 	beq.w	8005b00 <USBH_Process+0x60>
        phost->pUser(phost, HOST_USER_SELECT_CONFIGURATION);
 8005c82:	2101      	movs	r1, #1
 8005c84:	4620      	mov	r0, r4
 8005c86:	4798      	blx	r3
        phost->gState = HOST_SET_CONFIGURATION;
 8005c88:	2308      	movs	r3, #8
 8005c8a:	7023      	strb	r3, [r4, #0]
 8005c8c:	e738      	b.n	8005b00 <USBH_Process+0x60>
    if (USBH_SetCfg(phost, (uint16_t)phost->device.CfgDesc.bConfigurationValue) == USBH_OK)
 8005c8e:	f894 1339 	ldrb.w	r1, [r4, #825]	; 0x339
 8005c92:	4620      	mov	r0, r4
 8005c94:	f000 fb10 	bl	80062b8 <USBH_SetCfg>
 8005c98:	2800      	cmp	r0, #0
 8005c9a:	f47f af31 	bne.w	8005b00 <USBH_Process+0x60>
      phost->gState  = HOST_SET_WAKEUP_FEATURE;
 8005c9e:	2309      	movs	r3, #9
 8005ca0:	7023      	strb	r3, [r4, #0]
 8005ca2:	e72d      	b.n	8005b00 <USBH_Process+0x60>
    if ((phost->device.CfgDesc.bmAttributes) & (1U << 5))
 8005ca4:	f894 333b 	ldrb.w	r3, [r4, #827]	; 0x33b
 8005ca8:	069b      	lsls	r3, r3, #26
 8005caa:	f100 8082 	bmi.w	8005db2 <USBH_Process+0x312>
      phost->gState  = HOST_CHECK_CLASS;
 8005cae:	230a      	movs	r3, #10
 8005cb0:	7023      	strb	r3, [r4, #0]
 8005cb2:	e725      	b.n	8005b00 <USBH_Process+0x60>
    if(phost->ClassNumber == 0U)
 8005cb4:	f8d4 337c 	ldr.w	r3, [r4, #892]	; 0x37c
 8005cb8:	2b00      	cmp	r3, #0
 8005cba:	f43f af21 	beq.w	8005b00 <USBH_Process+0x60>
      phost->pActiveClass = NULL;
 8005cbe:	2200      	movs	r2, #0
        if(phost->pClass[idx]->ClassCode == phost->device.CfgDesc.Itf_Desc[0].bInterfaceClass)
 8005cc0:	f8d4 3374 	ldr.w	r3, [r4, #884]	; 0x374
      phost->pActiveClass = NULL;
 8005cc4:	f8c4 2378 	str.w	r2, [r4, #888]	; 0x378
        if(phost->pClass[idx]->ClassCode == phost->device.CfgDesc.Itf_Desc[0].bInterfaceClass)
 8005cc8:	7919      	ldrb	r1, [r3, #4]
 8005cca:	f894 2343 	ldrb.w	r2, [r4, #835]	; 0x343
 8005cce:	4291      	cmp	r1, r2
 8005cd0:	d177      	bne.n	8005dc2 <USBH_Process+0x322>
          phost->pActiveClass = phost->pClass[idx];
 8005cd2:	f8c4 3378 	str.w	r3, [r4, #888]	; 0x378
        if(phost->pActiveClass->Init(phost)== USBH_OK)
 8005cd6:	4620      	mov	r0, r4
 8005cd8:	689b      	ldr	r3, [r3, #8]
 8005cda:	4798      	blx	r3
 8005cdc:	2800      	cmp	r0, #0
 8005cde:	d170      	bne.n	8005dc2 <USBH_Process+0x322>
          phost->gState  = HOST_CLASS_REQUEST;
 8005ce0:	2306      	movs	r3, #6
 8005ce2:	7023      	strb	r3, [r4, #0]
          phost->pUser(phost, HOST_USER_CLASS_SELECTED);
 8005ce4:	4620      	mov	r0, r4
 8005ce6:	f8d4 33c8 	ldr.w	r3, [r4, #968]	; 0x3c8
 8005cea:	2103      	movs	r1, #3
 8005cec:	4798      	blx	r3
 8005cee:	e707      	b.n	8005b00 <USBH_Process+0x60>
    if (phost->device.PortEnabled == 1U)
 8005cf0:	2b01      	cmp	r3, #1
 8005cf2:	f47f af05 	bne.w	8005b00 <USBH_Process+0x60>
      phost->gState = HOST_DEV_ATTACHED;
 8005cf6:	2302      	movs	r3, #2
 8005cf8:	7003      	strb	r3, [r0, #0]
 8005cfa:	e701      	b.n	8005b00 <USBH_Process+0x60>
    if (phost->device.DevDesc.iProduct != 0U)
 8005cfc:	f894 1331 	ldrb.w	r1, [r4, #817]	; 0x331
 8005d00:	2900      	cmp	r1, #0
 8005d02:	d161      	bne.n	8005dc8 <USBH_Process+0x328>
        phost->EnumState = ENUM_GET_SERIALNUM_STRING_DESC;
 8005d04:	2307      	movs	r3, #7
 8005d06:	7063      	strb	r3, [r4, #1]
 8005d08:	e6fa      	b.n	8005b00 <USBH_Process+0x60>
    if ( USBH_Get_DevDesc(phost, USB_DEVICE_DESC_SIZE)== USBH_OK)
 8005d0a:	2112      	movs	r1, #18
 8005d0c:	4620      	mov	r0, r4
 8005d0e:	f000 f9af 	bl	8006070 <USBH_Get_DevDesc>
 8005d12:	2800      	cmp	r0, #0
 8005d14:	f47f aef4 	bne.w	8005b00 <USBH_Process+0x60>
      phost->EnumState = ENUM_SET_ADDR;
 8005d18:	2302      	movs	r3, #2
 8005d1a:	7063      	strb	r3, [r4, #1]
 8005d1c:	e6f0      	b.n	8005b00 <USBH_Process+0x60>
    if (phost->device.DevDesc.iManufacturer != 0U)
 8005d1e:	f894 1330 	ldrb.w	r1, [r4, #816]	; 0x330
 8005d22:	2900      	cmp	r1, #0
 8005d24:	d164      	bne.n	8005df0 <USBH_Process+0x350>
        phost->EnumState = ENUM_GET_PRODUCT_STRING_DESC;
 8005d26:	2306      	movs	r3, #6
 8005d28:	7063      	strb	r3, [r4, #1]
 8005d2a:	e6e9      	b.n	8005b00 <USBH_Process+0x60>
    if (USBH_Get_CfgDesc(phost,
 8005d2c:	f8b4 1336 	ldrh.w	r1, [r4, #822]	; 0x336
 8005d30:	4620      	mov	r0, r4
 8005d32:	f000 f9e9 	bl	8006108 <USBH_Get_CfgDesc>
 8005d36:	2800      	cmp	r0, #0
 8005d38:	f47f aee2 	bne.w	8005b00 <USBH_Process+0x60>
      phost->EnumState = ENUM_GET_MFC_STRING_DESC;
 8005d3c:	2305      	movs	r3, #5
 8005d3e:	7063      	strb	r3, [r4, #1]
 8005d40:	e6de      	b.n	8005b00 <USBH_Process+0x60>
    if ( USBH_Get_DevDesc(phost, 8U) == USBH_OK)
 8005d42:	2108      	movs	r1, #8
 8005d44:	4620      	mov	r0, r4
 8005d46:	f000 f993 	bl	8006070 <USBH_Get_DevDesc>
 8005d4a:	4605      	mov	r5, r0
 8005d4c:	2800      	cmp	r0, #0
 8005d4e:	f47f aed7 	bne.w	8005b00 <USBH_Process+0x60>
      phost->Control.pipe_size = phost->device.DevDesc.bMaxPacketSize;
 8005d52:	f894 2329 	ldrb.w	r2, [r4, #809]	; 0x329
      USBH_OpenPipe (phost,
 8005d56:	f894 031d 	ldrb.w	r0, [r4, #797]	; 0x31d
 8005d5a:	f894 331c 	ldrb.w	r3, [r4, #796]	; 0x31c
 8005d5e:	7921      	ldrb	r1, [r4, #4]
 8005d60:	9501      	str	r5, [sp, #4]
      phost->EnumState = ENUM_GET_FULL_DEV_DESC;
 8005d62:	2601      	movs	r6, #1
      phost->Control.pipe_size = phost->device.DevDesc.bMaxPacketSize;
 8005d64:	71a2      	strb	r2, [r4, #6]
      USBH_OpenPipe (phost,
 8005d66:	9202      	str	r2, [sp, #8]
      phost->EnumState = ENUM_GET_FULL_DEV_DESC;
 8005d68:	7066      	strb	r6, [r4, #1]
      USBH_OpenPipe (phost,
 8005d6a:	9000      	str	r0, [sp, #0]
 8005d6c:	e71d      	b.n	8005baa <USBH_Process+0x10a>
    if ( USBH_Get_CfgDesc(phost,
 8005d6e:	2109      	movs	r1, #9
 8005d70:	4620      	mov	r0, r4
 8005d72:	f000 f9c9 	bl	8006108 <USBH_Get_CfgDesc>
 8005d76:	2800      	cmp	r0, #0
 8005d78:	f47f aec2 	bne.w	8005b00 <USBH_Process+0x60>
      phost->EnumState = ENUM_GET_FULL_CFG_DESC;
 8005d7c:	2304      	movs	r3, #4
 8005d7e:	7063      	strb	r3, [r4, #1]
 8005d80:	e6be      	b.n	8005b00 <USBH_Process+0x60>
    if ( USBH_SetAddress(phost, USBH_DEVICE_ADDRESS) == USBH_OK)
 8005d82:	2101      	movs	r1, #1
 8005d84:	4620      	mov	r0, r4
 8005d86:	f000 fa7d 	bl	8006284 <USBH_SetAddress>
 8005d8a:	4605      	mov	r5, r0
 8005d8c:	2800      	cmp	r0, #0
 8005d8e:	f47f aeb7 	bne.w	8005b00 <USBH_Process+0x60>
      USBH_Delay(2U);
 8005d92:	2002      	movs	r0, #2
 8005d94:	f000 fcf4 	bl	8006780 <USBH_Delay>
      phost->EnumState = ENUM_GET_CFG_DESC;
 8005d98:	2603      	movs	r6, #3
      USBH_OpenPipe (phost,
 8005d9a:	79a0      	ldrb	r0, [r4, #6]
 8005d9c:	f894 231d 	ldrb.w	r2, [r4, #797]	; 0x31d
 8005da0:	7921      	ldrb	r1, [r4, #4]
 8005da2:	9501      	str	r5, [sp, #4]
      phost->device.address = USBH_DEVICE_ADDRESS;
 8005da4:	2301      	movs	r3, #1
 8005da6:	f884 331c 	strb.w	r3, [r4, #796]	; 0x31c
      phost->EnumState = ENUM_GET_CFG_DESC;
 8005daa:	7066      	strb	r6, [r4, #1]
      USBH_OpenPipe (phost,
 8005dac:	9002      	str	r0, [sp, #8]
 8005dae:	9200      	str	r2, [sp, #0]
 8005db0:	e6fb      	b.n	8005baa <USBH_Process+0x10a>
      if (USBH_SetFeature(phost, FEATURE_SELECTOR_REMOTEWAKEUP) == USBH_OK)
 8005db2:	2101      	movs	r1, #1
 8005db4:	4620      	mov	r0, r4
 8005db6:	f000 fa99 	bl	80062ec <USBH_SetFeature>
 8005dba:	2800      	cmp	r0, #0
 8005dbc:	f47f aea0 	bne.w	8005b00 <USBH_Process+0x60>
 8005dc0:	e775      	b.n	8005cae <USBH_Process+0x20e>
      phost->gState  = HOST_ABORT_STATE;
 8005dc2:	230d      	movs	r3, #13
 8005dc4:	7023      	strb	r3, [r4, #0]
 8005dc6:	e69b      	b.n	8005b00 <USBH_Process+0x60>
      if ( USBH_Get_StringDesc(phost,
 8005dc8:	23ff      	movs	r3, #255	; 0xff
 8005dca:	f504 728e 	add.w	r2, r4, #284	; 0x11c
 8005dce:	4620      	mov	r0, r4
 8005dd0:	f000 fa2e 	bl	8006230 <USBH_Get_StringDesc>
 8005dd4:	2800      	cmp	r0, #0
 8005dd6:	f47f ae93 	bne.w	8005b00 <USBH_Process+0x60>
 8005dda:	e793      	b.n	8005d04 <USBH_Process+0x264>
      if ( USBH_Get_StringDesc(phost,
 8005ddc:	23ff      	movs	r3, #255	; 0xff
 8005dde:	f504 728e 	add.w	r2, r4, #284	; 0x11c
 8005de2:	4620      	mov	r0, r4
 8005de4:	f000 fa24 	bl	8006230 <USBH_Get_StringDesc>
 8005de8:	2800      	cmp	r0, #0
 8005dea:	f43f ae7f 	beq.w	8005aec <USBH_Process+0x4c>
 8005dee:	e687      	b.n	8005b00 <USBH_Process+0x60>
      if ( USBH_Get_StringDesc(phost,
 8005df0:	23ff      	movs	r3, #255	; 0xff
 8005df2:	f504 728e 	add.w	r2, r4, #284	; 0x11c
 8005df6:	4620      	mov	r0, r4
 8005df8:	f000 fa1a 	bl	8006230 <USBH_Get_StringDesc>
 8005dfc:	2800      	cmp	r0, #0
 8005dfe:	f47f ae7f 	bne.w	8005b00 <USBH_Process+0x60>
 8005e02:	e790      	b.n	8005d26 <USBH_Process+0x286>

08005e04 <USBH_LL_SetTimer>:
  phost->Timer = time;
 8005e04:	f8c0 13bc 	str.w	r1, [r0, #956]	; 0x3bc
}
 8005e08:	4770      	bx	lr
 8005e0a:	bf00      	nop

08005e0c <USBH_LL_IncTimer>:
  phost->Timer ++;
 8005e0c:	f8d0 23bc 	ldr.w	r2, [r0, #956]	; 0x3bc
 8005e10:	3201      	adds	r2, #1
 8005e12:	f8c0 23bc 	str.w	r2, [r0, #956]	; 0x3bc
  if((phost->gState == HOST_CLASS)&&(phost->pActiveClass != NULL))
 8005e16:	7802      	ldrb	r2, [r0, #0]
 8005e18:	2a0b      	cmp	r2, #11
 8005e1a:	d000      	beq.n	8005e1e <USBH_LL_IncTimer+0x12>
}
 8005e1c:	4770      	bx	lr
  if((phost->gState == HOST_CLASS)&&(phost->pActiveClass != NULL))
 8005e1e:	f8d0 3378 	ldr.w	r3, [r0, #888]	; 0x378
 8005e22:	2b00      	cmp	r3, #0
 8005e24:	d0fa      	beq.n	8005e1c <USBH_LL_IncTimer+0x10>
    phost->pActiveClass->SOFProcess(phost);
 8005e26:	699b      	ldr	r3, [r3, #24]
 8005e28:	4718      	bx	r3
 8005e2a:	bf00      	nop

08005e2c <USBH_LL_PortEnabled>:
  phost->device.PortEnabled = 1U;
 8005e2c:	2301      	movs	r3, #1
 8005e2e:	f880 331f 	strb.w	r3, [r0, #799]	; 0x31f
}
 8005e32:	4770      	bx	lr

08005e34 <USBH_LL_PortDisabled>:
  phost->device.PortEnabled = 0U;
 8005e34:	2300      	movs	r3, #0
 8005e36:	f880 331f 	strb.w	r3, [r0, #799]	; 0x31f
}
 8005e3a:	4770      	bx	lr

08005e3c <USBH_LL_Connect>:
  * @param  phost: Host Handle
  * @retval USBH_Status
  */
USBH_StatusTypeDef  USBH_LL_Connect (USBH_HandleTypeDef *phost)
{
  if(phost->gState == HOST_IDLE )
 8005e3c:	7802      	ldrb	r2, [r0, #0]
{
 8005e3e:	b508      	push	{r3, lr}
  if(phost->gState == HOST_IDLE )
 8005e40:	b94a      	cbnz	r2, 8005e56 <USBH_LL_Connect+0x1a>
  {
    phost->device.is_connected = 1U;

    if(phost->pUser != NULL)
 8005e42:	f8d0 23c8 	ldr.w	r2, [r0, #968]	; 0x3c8
    phost->device.is_connected = 1U;
 8005e46:	2101      	movs	r1, #1
 8005e48:	f880 131e 	strb.w	r1, [r0, #798]	; 0x31e
    if(phost->pUser != NULL)
 8005e4c:	b10a      	cbz	r2, 8005e52 <USBH_LL_Connect+0x16>
    {
      phost->pUser(phost, HOST_USER_CONNECTION);
 8005e4e:	2104      	movs	r1, #4
 8005e50:	4790      	blx	r2
  (void)osMessageQueuePut(phost->os_event, &phost->os_msg, 0U, NULL);
#endif
#endif

  return USBH_OK;
}
 8005e52:	2000      	movs	r0, #0
 8005e54:	bd08      	pop	{r3, pc}
    if (phost->device.PortEnabled == 1U)
 8005e56:	f890 231f 	ldrb.w	r2, [r0, #799]	; 0x31f
 8005e5a:	2a01      	cmp	r2, #1
      phost->gState = HOST_DEV_ATTACHED;
 8005e5c:	bf04      	itt	eq
 8005e5e:	2202      	moveq	r2, #2
 8005e60:	7002      	strbeq	r2, [r0, #0]
}
 8005e62:	2000      	movs	r0, #0
 8005e64:	bd08      	pop	{r3, pc}
 8005e66:	bf00      	nop

08005e68 <USBH_LL_Disconnect>:
  *         Handle USB Host disconnection event
  * @param  phost: Host Handle
  * @retval USBH_Status
  */
USBH_StatusTypeDef  USBH_LL_Disconnect  (USBH_HandleTypeDef *phost)
{
 8005e68:	b510      	push	{r4, lr}
 8005e6a:	4604      	mov	r4, r0
  /*Stop Host */
  USBH_LL_Stop(phost);
 8005e6c:	f000 fbf2 	bl	8006654 <USBH_LL_Stop>

  /* FRee Control Pipes */
  USBH_FreePipe  (phost, phost->Control.pipe_in);
 8005e70:	7921      	ldrb	r1, [r4, #4]
 8005e72:	4620      	mov	r0, r4
 8005e74:	f000 fb0e 	bl	8006494 <USBH_FreePipe>
  USBH_FreePipe  (phost, phost->Control.pipe_out);
 8005e78:	7961      	ldrb	r1, [r4, #5]
 8005e7a:	4620      	mov	r0, r4
 8005e7c:	f000 fb0a 	bl	8006494 <USBH_FreePipe>

  phost->device.is_connected = 0U;

  if(phost->pUser != NULL)
 8005e80:	f8d4 33c8 	ldr.w	r3, [r4, #968]	; 0x3c8
  phost->device.is_connected = 0U;
 8005e84:	2200      	movs	r2, #0
 8005e86:	f884 231e 	strb.w	r2, [r4, #798]	; 0x31e
  if(phost->pUser != NULL)
 8005e8a:	b113      	cbz	r3, 8005e92 <USBH_LL_Disconnect+0x2a>
  {
    phost->pUser(phost, HOST_USER_DISCONNECTION);
 8005e8c:	2105      	movs	r1, #5
 8005e8e:	4620      	mov	r0, r4
 8005e90:	4798      	blx	r3
  }
  USBH_UsrLog("USB Device disconnected");

  /* Start the low level driver  */
  USBH_LL_Start(phost);
 8005e92:	4620      	mov	r0, r4
 8005e94:	f000 fbd0 	bl	8006638 <USBH_LL_Start>

  phost->gState = HOST_DEV_DISCONNECTED;
 8005e98:	2303      	movs	r3, #3
 8005e9a:	7023      	strb	r3, [r4, #0]
  (void)osMessageQueuePut(phost->os_event, &phost->os_msg, 0U, NULL);
#endif
#endif

  return USBH_OK;
}
 8005e9c:	2000      	movs	r0, #0
 8005e9e:	bd10      	pop	{r4, pc}

08005ea0 <USBH_CtlReq.part.0>:
  * @param  req: Setup Request Structure
  * @param  buff: data buffer address to store the response
  * @param  length: length of the response
  * @retval USBH Status
  */
USBH_StatusTypeDef USBH_CtlReq     (USBH_HandleTypeDef *phost,
 8005ea0:	b530      	push	{r4, r5, lr}
{
  uint8_t direction;
  USBH_StatusTypeDef status = USBH_BUSY;
  USBH_URBStateTypeDef URB_Status = USBH_URB_IDLE;

  switch (phost->Control.state)
 8005ea2:	7e03      	ldrb	r3, [r0, #24]
 8005ea4:	3b01      	subs	r3, #1
USBH_StatusTypeDef USBH_CtlReq     (USBH_HandleTypeDef *phost,
 8005ea6:	b083      	sub	sp, #12
 8005ea8:	4604      	mov	r4, r0
  switch (phost->Control.state)
 8005eaa:	2b0a      	cmp	r3, #10
 8005eac:	d812      	bhi.n	8005ed4 <USBH_CtlReq.part.0+0x34>
 8005eae:	e8df f003 	tbb	[pc, r3]
 8005eb2:	8a81      	.short	0x8a81
 8005eb4:	2e200667 	.word	0x2e200667
 8005eb8:	4c733c14 	.word	0x4c733c14
 8005ebc:	57          	.byte	0x57
 8005ebd:	00          	.byte	0x00
    phost->Control.state = CTRL_DATA_IN_WAIT;
    break;

  case CTRL_DATA_IN_WAIT:

    URB_Status = USBH_LL_GetURBState(phost , phost->Control.pipe_in);
 8005ebe:	7901      	ldrb	r1, [r0, #4]
 8005ec0:	f000 fc36 	bl	8006730 <USBH_LL_GetURBState>

    /* check is DATA packet transferred successfully */
    if  (URB_Status == USBH_URB_DONE)
 8005ec4:	2801      	cmp	r0, #1
 8005ec6:	d047      	beq.n	8005f58 <USBH_CtlReq.part.0+0xb8>
#endif
#endif
    }

    /* manage error cases*/
    if  (URB_Status == USBH_URB_STALL)
 8005ec8:	2805      	cmp	r0, #5
 8005eca:	d037      	beq.n	8005f3c <USBH_CtlReq.part.0+0x9c>
#endif
#endif
    }
    else
    {
      if (URB_Status == USBH_URB_ERROR)
 8005ecc:	2804      	cmp	r0, #4
 8005ece:	d101      	bne.n	8005ed4 <USBH_CtlReq.part.0+0x34>
        phost->Control.state = CTRL_ERROR;
 8005ed0:	230b      	movs	r3, #11
 8005ed2:	7623      	strb	r3, [r4, #24]
 8005ed4:	2001      	movs	r0, #1
}
 8005ed6:	b003      	add	sp, #12
 8005ed8:	bd30      	pop	{r4, r5, pc}
    USBH_CtlReceiveData (phost,
 8005eda:	2200      	movs	r2, #0
 8005edc:	7903      	ldrb	r3, [r0, #4]
 8005ede:	4611      	mov	r1, r2
 8005ee0:	f000 fa74 	bl	80063cc <USBH_CtlReceiveData>
    phost->Control.timer = (uint16_t)phost->Timer;
 8005ee4:	f8d4 33bc 	ldr.w	r3, [r4, #956]	; 0x3bc
 8005ee8:	81e3      	strh	r3, [r4, #14]
    phost->Control.state = CTRL_STATUS_IN_WAIT;
 8005eea:	2308      	movs	r3, #8
 8005eec:	7623      	strb	r3, [r4, #24]
 8005eee:	2001      	movs	r0, #1
 8005ef0:	e7f1      	b.n	8005ed6 <USBH_CtlReq.part.0+0x36>
    USBH_CtlSendData (phost,
 8005ef2:	2501      	movs	r5, #1
 8005ef4:	7943      	ldrb	r3, [r0, #5]
 8005ef6:	8982      	ldrh	r2, [r0, #12]
 8005ef8:	6881      	ldr	r1, [r0, #8]
 8005efa:	9500      	str	r5, [sp, #0]
 8005efc:	f000 fa4e 	bl	800639c <USBH_CtlSendData>
     phost->Control.timer = (uint16_t)phost->Timer;
 8005f00:	f8d4 33bc 	ldr.w	r3, [r4, #956]	; 0x3bc
 8005f04:	81e3      	strh	r3, [r4, #14]
    phost->Control.state = CTRL_DATA_OUT_WAIT;
 8005f06:	2306      	movs	r3, #6
 8005f08:	4628      	mov	r0, r5
 8005f0a:	7623      	strb	r3, [r4, #24]
 8005f0c:	e7e3      	b.n	8005ed6 <USBH_CtlReq.part.0+0x36>
    URB_Status = USBH_LL_GetURBState(phost , phost->Control.pipe_out);
 8005f0e:	7941      	ldrb	r1, [r0, #5]
 8005f10:	f000 fc0e 	bl	8006730 <USBH_LL_GetURBState>
    if  (URB_Status == USBH_URB_DONE)
 8005f14:	2801      	cmp	r0, #1
 8005f16:	d06a      	beq.n	8005fee <USBH_CtlReq.part.0+0x14e>
    else if  (URB_Status == USBH_URB_STALL)
 8005f18:	2805      	cmp	r0, #5
 8005f1a:	d00f      	beq.n	8005f3c <USBH_CtlReq.part.0+0x9c>
    else if  (URB_Status == USBH_URB_NOTREADY)
 8005f1c:	2802      	cmp	r0, #2
 8005f1e:	d071      	beq.n	8006004 <USBH_CtlReq.part.0+0x164>
      if (URB_Status == USBH_URB_ERROR)
 8005f20:	2804      	cmp	r0, #4
 8005f22:	d1d7      	bne.n	8005ed4 <USBH_CtlReq.part.0+0x34>
        phost->Control.state = CTRL_ERROR;
 8005f24:	230b      	movs	r3, #11
 8005f26:	7623      	strb	r3, [r4, #24]
 8005f28:	e026      	b.n	8005f78 <USBH_CtlReq.part.0+0xd8>
    URB_Status = USBH_LL_GetURBState(phost , phost->Control.pipe_in);
 8005f2a:	7901      	ldrb	r1, [r0, #4]
 8005f2c:	f000 fc00 	bl	8006730 <USBH_LL_GetURBState>
    if  ( URB_Status == USBH_URB_DONE)
 8005f30:	2801      	cmp	r0, #1
 8005f32:	d054      	beq.n	8005fde <USBH_CtlReq.part.0+0x13e>
    else if (URB_Status == USBH_URB_ERROR)
 8005f34:	2804      	cmp	r0, #4
 8005f36:	d0cb      	beq.n	8005ed0 <USBH_CtlReq.part.0+0x30>
      if(URB_Status == USBH_URB_STALL)
 8005f38:	2805      	cmp	r0, #5
 8005f3a:	d1cb      	bne.n	8005ed4 <USBH_CtlReq.part.0+0x34>
      phost->RequestState = CMD_SEND;
 8005f3c:	2201      	movs	r2, #1
      phost->Control.state = CTRL_IDLE;
 8005f3e:	2300      	movs	r3, #0
      status = USBH_NOT_SUPPORTED;
 8005f40:	2003      	movs	r0, #3
      phost->RequestState = CMD_SEND;
 8005f42:	70a2      	strb	r2, [r4, #2]
      phost->Control.state = CTRL_IDLE;
 8005f44:	7623      	strb	r3, [r4, #24]
}
 8005f46:	b003      	add	sp, #12
 8005f48:	bd30      	pop	{r4, r5, pc}
    URB_Status = USBH_LL_GetURBState(phost , phost->Control.pipe_out);
 8005f4a:	7941      	ldrb	r1, [r0, #5]
 8005f4c:	f000 fbf0 	bl	8006730 <USBH_LL_GetURBState>
    if  (URB_Status == USBH_URB_DONE)
 8005f50:	2801      	cmp	r0, #1
 8005f52:	d044      	beq.n	8005fde <USBH_CtlReq.part.0+0x13e>
    else if  (URB_Status == USBH_URB_NOTREADY)
 8005f54:	2802      	cmp	r0, #2
 8005f56:	d1b9      	bne.n	8005ecc <USBH_CtlReq.part.0+0x2c>
          phost->Control.state = CTRL_STATUS_OUT;
 8005f58:	2309      	movs	r3, #9
 8005f5a:	7623      	strb	r3, [r4, #24]
 8005f5c:	2001      	movs	r0, #1
 8005f5e:	e7ba      	b.n	8005ed6 <USBH_CtlReq.part.0+0x36>
    PID; i.e., recovery actions via some other pipe are not required for control
    endpoints. For the Default Control Pipe, a device reset will ultimately be
    required to clear the halt or error condition if the next Setup PID is not
    accepted.
    */
    if (++ phost->Control.errorcount <= USBH_MAX_ERROR_COUNT)
 8005f60:	7e43      	ldrb	r3, [r0, #25]
 8005f62:	3301      	adds	r3, #1
 8005f64:	b2db      	uxtb	r3, r3
 8005f66:	2b02      	cmp	r3, #2
 8005f68:	7643      	strb	r3, [r0, #25]
 8005f6a:	d94f      	bls.n	800600c <USBH_CtlReq.part.0+0x16c>
      phost->Control.state = CTRL_SETUP;
      phost->RequestState = CMD_SEND;
    }
    else
    {
      phost->pUser(phost, HOST_USER_UNRECOVERED_ERROR);
 8005f6c:	f8d0 33c8 	ldr.w	r3, [r0, #968]	; 0x3c8
 8005f70:	2106      	movs	r1, #6
 8005f72:	4798      	blx	r3
      phost->Control.errorcount = 0U;
 8005f74:	2300      	movs	r3, #0
 8005f76:	7663      	strb	r3, [r4, #25]
        phost->RequestState = CMD_SEND;
 8005f78:	2301      	movs	r3, #1
 8005f7a:	70a3      	strb	r3, [r4, #2]
        status = USBH_FAIL;
 8005f7c:	2002      	movs	r0, #2
 8005f7e:	e7aa      	b.n	8005ed6 <USBH_CtlReq.part.0+0x36>
    phost->Control.timer = (uint16_t)phost->Timer;
 8005f80:	f8d0 33bc 	ldr.w	r3, [r0, #956]	; 0x3bc
 8005f84:	81c3      	strh	r3, [r0, #14]
    USBH_CtlReceiveData(phost,
 8005f86:	8982      	ldrh	r2, [r0, #12]
 8005f88:	7903      	ldrb	r3, [r0, #4]
 8005f8a:	6881      	ldr	r1, [r0, #8]
 8005f8c:	f000 fa1e 	bl	80063cc <USBH_CtlReceiveData>
    phost->Control.state = CTRL_DATA_IN_WAIT;
 8005f90:	2304      	movs	r3, #4
 8005f92:	7623      	strb	r3, [r4, #24]
 8005f94:	2001      	movs	r0, #1
 8005f96:	e79e      	b.n	8005ed6 <USBH_CtlReq.part.0+0x36>
    USBH_CtlSendData (phost,
 8005f98:	2501      	movs	r5, #1
 8005f9a:	2200      	movs	r2, #0
 8005f9c:	7943      	ldrb	r3, [r0, #5]
 8005f9e:	9500      	str	r5, [sp, #0]
 8005fa0:	4611      	mov	r1, r2
 8005fa2:	f000 f9fb 	bl	800639c <USBH_CtlSendData>
     phost->Control.timer = (uint16_t)phost->Timer;
 8005fa6:	f8d4 33bc 	ldr.w	r3, [r4, #956]	; 0x3bc
 8005faa:	81e3      	strh	r3, [r4, #14]
    phost->Control.state = CTRL_STATUS_OUT_WAIT;
 8005fac:	230a      	movs	r3, #10
 8005fae:	4628      	mov	r0, r5
 8005fb0:	7623      	strb	r3, [r4, #24]
 8005fb2:	e790      	b.n	8005ed6 <USBH_CtlReq.part.0+0x36>
    USBH_CtlSendSetup (phost, (uint8_t *)(void *)phost->Control.setup.d8,
 8005fb4:	7942      	ldrb	r2, [r0, #5]
 8005fb6:	f100 0110 	add.w	r1, r0, #16
 8005fba:	f000 f9df 	bl	800637c <USBH_CtlSendSetup>
    phost->Control.state = CTRL_SETUP_WAIT;
 8005fbe:	2302      	movs	r3, #2
 8005fc0:	7623      	strb	r3, [r4, #24]
 8005fc2:	2001      	movs	r0, #1
 8005fc4:	e787      	b.n	8005ed6 <USBH_CtlReq.part.0+0x36>
    URB_Status = USBH_LL_GetURBState(phost, phost->Control.pipe_out);
 8005fc6:	7941      	ldrb	r1, [r0, #5]
 8005fc8:	f000 fbb2 	bl	8006730 <USBH_LL_GetURBState>
    if(URB_Status == USBH_URB_DONE)
 8005fcc:	2801      	cmp	r0, #1
 8005fce:	d012      	beq.n	8005ff6 <USBH_CtlReq.part.0+0x156>
      if((URB_Status == USBH_URB_ERROR) || (URB_Status == USBH_URB_NOTREADY))
 8005fd0:	2804      	cmp	r0, #4
 8005fd2:	f43f af7d 	beq.w	8005ed0 <USBH_CtlReq.part.0+0x30>
 8005fd6:	2802      	cmp	r0, #2
 8005fd8:	f47f af7c 	bne.w	8005ed4 <USBH_CtlReq.part.0+0x34>
 8005fdc:	e778      	b.n	8005ed0 <USBH_CtlReq.part.0+0x30>
      phost->Control.state =CTRL_IDLE;
 8005fde:	2000      	movs	r0, #0
      phost->RequestState = CMD_SEND;
 8005fe0:	2301      	movs	r3, #1
 8005fe2:	70a3      	strb	r3, [r4, #2]
      phost->Control.state =CTRL_IDLE;
 8005fe4:	7620      	strb	r0, [r4, #24]
}
 8005fe6:	b003      	add	sp, #12
 8005fe8:	bd30      	pop	{r4, r5, pc}
        if (direction == USB_D2H)
 8005fea:	2b00      	cmp	r3, #0
 8005fec:	dbb4      	blt.n	8005f58 <USBH_CtlReq.part.0+0xb8>
          phost->Control.state = CTRL_STATUS_IN;
 8005fee:	2307      	movs	r3, #7
 8005ff0:	7623      	strb	r3, [r4, #24]
 8005ff2:	2001      	movs	r0, #1
 8005ff4:	e76f      	b.n	8005ed6 <USBH_CtlReq.part.0+0x36>
      if (phost->Control.setup.b.wLength.w != 0U)
 8005ff6:	8ae2      	ldrh	r2, [r4, #22]
 8005ff8:	f994 3010 	ldrsb.w	r3, [r4, #16]
 8005ffc:	2a00      	cmp	r2, #0
 8005ffe:	d0f4      	beq.n	8005fea <USBH_CtlReq.part.0+0x14a>
        if (direction == USB_D2H)
 8006000:	2b00      	cmp	r3, #0
 8006002:	db09      	blt.n	8006018 <USBH_CtlReq.part.0+0x178>
          phost->Control.state = CTRL_DATA_OUT;
 8006004:	2305      	movs	r3, #5
 8006006:	7623      	strb	r3, [r4, #24]
 8006008:	2001      	movs	r0, #1
 800600a:	e764      	b.n	8005ed6 <USBH_CtlReq.part.0+0x36>
      USBH_LL_Stop(phost);
 800600c:	f000 fb22 	bl	8006654 <USBH_LL_Stop>
      phost->Control.state = CTRL_SETUP;
 8006010:	2001      	movs	r0, #1
 8006012:	7620      	strb	r0, [r4, #24]
      phost->RequestState = CMD_SEND;
 8006014:	70a0      	strb	r0, [r4, #2]
 8006016:	e75e      	b.n	8005ed6 <USBH_CtlReq.part.0+0x36>
          phost->Control.state = CTRL_DATA_IN;
 8006018:	2303      	movs	r3, #3
 800601a:	7623      	strb	r3, [r4, #24]
 800601c:	e75b      	b.n	8005ed6 <USBH_CtlReq.part.0+0x36>
 800601e:	bf00      	nop

08006020 <USBH_GetDescriptor>:
{
 8006020:	b470      	push	{r4, r5, r6}
  if(phost->RequestState == CMD_SEND)
 8006022:	7885      	ldrb	r5, [r0, #2]
{
 8006024:	f8bd 600c 	ldrh.w	r6, [sp, #12]
  if(phost->RequestState == CMD_SEND)
 8006028:	2d01      	cmp	r5, #1
 800602a:	d004      	beq.n	8006036 <USBH_GetDescriptor+0x16>
  switch (phost->RequestState)
 800602c:	2d02      	cmp	r5, #2
 800602e:	d11b      	bne.n	8006068 <USBH_GetDescriptor+0x48>
}
 8006030:	bc70      	pop	{r4, r5, r6}
 8006032:	f7ff bf35 	b.w	8005ea0 <USBH_CtlReq.part.0>
 8006036:	4604      	mov	r4, r0
    if ((value_idx & 0xff00U) == USB_DESC_STRING)
 8006038:	f402 407f 	and.w	r0, r2, #65280	; 0xff00
    phost->Control.setup.b.bmRequestType = USB_D2H | req_type;
 800603c:	f061 017f 	orn	r1, r1, #127	; 0x7f
    if ((value_idx & 0xff00U) == USB_DESC_STRING)
 8006040:	f5b0 7f40 	cmp.w	r0, #768	; 0x300
    phost->Control.setup.b.wValue.w = value_idx;
 8006044:	8262      	strh	r2, [r4, #18]
    phost->Control.setup.b.bmRequestType = USB_D2H | req_type;
 8006046:	7421      	strb	r1, [r4, #16]
      phost->Control.setup.b.wIndex.w = 0x0409U;
 8006048:	bf08      	it	eq
 800604a:	f240 4209 	movweq	r2, #1033	; 0x409
    phost->Control.setup.b.bRequest = USB_REQ_GET_DESCRIPTOR;
 800604e:	f04f 0106 	mov.w	r1, #6
      phost->Control.setup.b.wIndex.w = 0U;
 8006052:	bf18      	it	ne
 8006054:	2200      	movne	r2, #0
    phost->Control.setup.b.bRequest = USB_REQ_GET_DESCRIPTOR;
 8006056:	7461      	strb	r1, [r4, #17]
      phost->Control.setup.b.wIndex.w = 0U;
 8006058:	82a2      	strh	r2, [r4, #20]
    phost->Control.state = CTRL_SETUP;
 800605a:	2101      	movs	r1, #1
    phost->RequestState = CMD_WAIT;
 800605c:	2202      	movs	r2, #2
    phost->Control.setup.b.wLength.w = length;
 800605e:	82e6      	strh	r6, [r4, #22]
    phost->Control.buff = buff;
 8006060:	60a3      	str	r3, [r4, #8]
    phost->Control.length = length;
 8006062:	81a6      	strh	r6, [r4, #12]
    phost->Control.state = CTRL_SETUP;
 8006064:	7621      	strb	r1, [r4, #24]
    phost->RequestState = CMD_WAIT;
 8006066:	70a2      	strb	r2, [r4, #2]
}
 8006068:	2001      	movs	r0, #1
 800606a:	bc70      	pop	{r4, r5, r6}
 800606c:	4770      	bx	lr
 800606e:	bf00      	nop

08006070 <USBH_Get_DevDesc>:
{
 8006070:	b530      	push	{r4, r5, lr}
 8006072:	b083      	sub	sp, #12
  if((status = USBH_GetDescriptor(phost,
 8006074:	460d      	mov	r5, r1
 8006076:	9100      	str	r1, [sp, #0]
 8006078:	f500 738e 	add.w	r3, r0, #284	; 0x11c
 800607c:	f44f 7280 	mov.w	r2, #256	; 0x100
 8006080:	2100      	movs	r1, #0
{
 8006082:	4604      	mov	r4, r0
  if((status = USBH_GetDescriptor(phost,
 8006084:	f7ff ffcc 	bl	8006020 <USBH_GetDescriptor>
 8006088:	b108      	cbz	r0, 800608e <USBH_Get_DevDesc+0x1e>
}
 800608a:	b003      	add	sp, #12
 800608c:	bd30      	pop	{r4, r5, pc}
  dev_desc->bLength            = *(uint8_t  *) (buf +  0);
 800608e:	f894 311c 	ldrb.w	r3, [r4, #284]	; 0x11c
  dev_desc->bDescriptorType    = *(uint8_t  *) (buf +  1);
 8006092:	f894 111d 	ldrb.w	r1, [r4, #285]	; 0x11d
  dev_desc->bcdUSB             = LE16 (buf +  2);
 8006096:	f8b4 211e 	ldrh.w	r2, [r4, #286]	; 0x11e
  dev_desc->bLength            = *(uint8_t  *) (buf +  0);
 800609a:	f884 3322 	strb.w	r3, [r4, #802]	; 0x322
  dev_desc->bDeviceClass       = *(uint8_t  *) (buf +  4);
 800609e:	f894 3120 	ldrb.w	r3, [r4, #288]	; 0x120
  dev_desc->bDescriptorType    = *(uint8_t  *) (buf +  1);
 80060a2:	f884 1323 	strb.w	r1, [r4, #803]	; 0x323
  dev_desc->bcdUSB             = LE16 (buf +  2);
 80060a6:	f8a4 2324 	strh.w	r2, [r4, #804]	; 0x324
  dev_desc->bDeviceSubClass    = *(uint8_t  *) (buf +  5);
 80060aa:	f894 1121 	ldrb.w	r1, [r4, #289]	; 0x121
  dev_desc->bDeviceProtocol    = *(uint8_t  *) (buf +  6);
 80060ae:	f894 2122 	ldrb.w	r2, [r4, #290]	; 0x122
  dev_desc->bDeviceClass       = *(uint8_t  *) (buf +  4);
 80060b2:	f884 3326 	strb.w	r3, [r4, #806]	; 0x326
  if (length > 8U)
 80060b6:	2d08      	cmp	r5, #8
  dev_desc->bMaxPacketSize     = *(uint8_t  *) (buf +  7);
 80060b8:	f894 3123 	ldrb.w	r3, [r4, #291]	; 0x123
  dev_desc->bDeviceSubClass    = *(uint8_t  *) (buf +  5);
 80060bc:	f884 1327 	strb.w	r1, [r4, #807]	; 0x327
  dev_desc->bDeviceProtocol    = *(uint8_t  *) (buf +  6);
 80060c0:	f884 2328 	strb.w	r2, [r4, #808]	; 0x328
  dev_desc->bMaxPacketSize     = *(uint8_t  *) (buf +  7);
 80060c4:	f884 3329 	strb.w	r3, [r4, #809]	; 0x329
  if (length > 8U)
 80060c8:	d9df      	bls.n	800608a <USBH_Get_DevDesc+0x1a>
    dev_desc->idVendor           = LE16 (buf +  8);
 80060ca:	f8b4 1124 	ldrh.w	r1, [r4, #292]	; 0x124
    dev_desc->idProduct          = LE16 (buf + 10);
 80060ce:	f8b4 2126 	ldrh.w	r2, [r4, #294]	; 0x126
    dev_desc->bcdDevice          = LE16 (buf + 12);
 80060d2:	f8b4 3128 	ldrh.w	r3, [r4, #296]	; 0x128
    dev_desc->iManufacturer      = *(uint8_t  *) (buf + 14);
 80060d6:	f894 512a 	ldrb.w	r5, [r4, #298]	; 0x12a
    dev_desc->idVendor           = LE16 (buf +  8);
 80060da:	f8a4 132a 	strh.w	r1, [r4, #810]	; 0x32a
    dev_desc->idProduct          = LE16 (buf + 10);
 80060de:	f8a4 232c 	strh.w	r2, [r4, #812]	; 0x32c
    dev_desc->iProduct           = *(uint8_t  *) (buf + 15);
 80060e2:	f894 112b 	ldrb.w	r1, [r4, #299]	; 0x12b
    dev_desc->iSerialNumber      = *(uint8_t  *) (buf + 16);
 80060e6:	f894 212c 	ldrb.w	r2, [r4, #300]	; 0x12c
    dev_desc->bcdDevice          = LE16 (buf + 12);
 80060ea:	f8a4 332e 	strh.w	r3, [r4, #814]	; 0x32e
    dev_desc->bNumConfigurations = *(uint8_t  *) (buf + 17);
 80060ee:	f894 312d 	ldrb.w	r3, [r4, #301]	; 0x12d
    dev_desc->iManufacturer      = *(uint8_t  *) (buf + 14);
 80060f2:	f884 5330 	strb.w	r5, [r4, #816]	; 0x330
    dev_desc->iProduct           = *(uint8_t  *) (buf + 15);
 80060f6:	f884 1331 	strb.w	r1, [r4, #817]	; 0x331
    dev_desc->iSerialNumber      = *(uint8_t  *) (buf + 16);
 80060fa:	f884 2332 	strb.w	r2, [r4, #818]	; 0x332
    dev_desc->bNumConfigurations = *(uint8_t  *) (buf + 17);
 80060fe:	f884 3333 	strb.w	r3, [r4, #819]	; 0x333
}
 8006102:	b003      	add	sp, #12
 8006104:	bd30      	pop	{r4, r5, pc}
 8006106:	bf00      	nop

08006108 <USBH_Get_CfgDesc>:
{
 8006108:	e92d 47f0 	stmdb	sp!, {r4, r5, r6, r7, r8, r9, sl, lr}
 800610c:	b082      	sub	sp, #8
  pData = phost->device.CfgDesc_Raw;
 800610e:	f100 041c 	add.w	r4, r0, #28
{
 8006112:	460e      	mov	r6, r1
  if((status = USBH_GetDescriptor(phost,
 8006114:	9100      	str	r1, [sp, #0]
 8006116:	4623      	mov	r3, r4
 8006118:	f44f 7200 	mov.w	r2, #512	; 0x200
 800611c:	2100      	movs	r1, #0
{
 800611e:	4605      	mov	r5, r0
  if((status = USBH_GetDescriptor(phost,
 8006120:	f7ff ff7e 	bl	8006020 <USBH_GetDescriptor>
 8006124:	b110      	cbz	r0, 800612c <USBH_Get_CfgDesc+0x24>
}
 8006126:	b002      	add	sp, #8
 8006128:	e8bd 87f0 	ldmia.w	sp!, {r4, r5, r6, r7, r8, r9, sl, pc}
  cfg_desc->bLength             = *(uint8_t  *) (buf + 0);
 800612c:	7f2b      	ldrb	r3, [r5, #28]
  cfg_desc->bDescriptorType     = *(uint8_t  *) (buf + 1);
 800612e:	7f6a      	ldrb	r2, [r5, #29]
  cfg_desc->bLength             = *(uint8_t  *) (buf + 0);
 8006130:	f885 3334 	strb.w	r3, [r5, #820]	; 0x334
  cfg_desc->bNumInterfaces      = *(uint8_t  *) (buf + 4);
 8006134:	f895 3020 	ldrb.w	r3, [r5, #32]
  cfg_desc->bDescriptorType     = *(uint8_t  *) (buf + 1);
 8006138:	f885 2335 	strb.w	r2, [r5, #821]	; 0x335
  cfg_desc->bNumInterfaces      = *(uint8_t  *) (buf + 4);
 800613c:	f885 3338 	strb.w	r3, [r5, #824]	; 0x338
  cfg_desc->bConfigurationValue = *(uint8_t  *) (buf + 5);
 8006140:	f895 2021 	ldrb.w	r2, [r5, #33]	; 0x21
  cfg_desc->iConfiguration      = *(uint8_t  *) (buf + 6);
 8006144:	f895 3022 	ldrb.w	r3, [r5, #34]	; 0x22
  cfg_desc->wTotalLength        = LE16 (buf + 2);
 8006148:	8be9      	ldrh	r1, [r5, #30]
  cfg_desc->bConfigurationValue = *(uint8_t  *) (buf + 5);
 800614a:	f885 2339 	strb.w	r2, [r5, #825]	; 0x339
  cfg_desc->iConfiguration      = *(uint8_t  *) (buf + 6);
 800614e:	f885 333a 	strb.w	r3, [r5, #826]	; 0x33a
  cfg_desc->bmAttributes        = *(uint8_t  *) (buf + 7);
 8006152:	f895 2023 	ldrb.w	r2, [r5, #35]	; 0x23
  cfg_desc->bMaxPower           = *(uint8_t  *) (buf + 8);
 8006156:	f895 3024 	ldrb.w	r3, [r5, #36]	; 0x24
  cfg_desc->wTotalLength        = LE16 (buf + 2);
 800615a:	f8a5 1336 	strh.w	r1, [r5, #822]	; 0x336
  if (length > USB_CONFIGURATION_DESC_SIZE)
 800615e:	2e09      	cmp	r6, #9
  cfg_desc->bmAttributes        = *(uint8_t  *) (buf + 7);
 8006160:	f885 233b 	strb.w	r2, [r5, #827]	; 0x33b
  cfg_desc->bMaxPower           = *(uint8_t  *) (buf + 8);
 8006164:	f885 333c 	strb.w	r3, [r5, #828]	; 0x33c
  if (length > USB_CONFIGURATION_DESC_SIZE)
 8006168:	d9dd      	bls.n	8006126 <USBH_Get_CfgDesc+0x1e>
 800616a:	462f      	mov	r7, r5
 800616c:	4684      	mov	ip, r0
    ptr = USB_LEN_CFG_DESC;
 800616e:	2209      	movs	r2, #9
  ep_descriptor->bLength          = *(uint8_t  *) (buf + 0);
 8006170:	f04f 0e1a 	mov.w	lr, #26
    while ((if_ix < USBH_MAX_NUM_INTERFACES) && (ptr < cfg_desc->wTotalLength))
 8006174:	4291      	cmp	r1, r2
 8006176:	d9d6      	bls.n	8006126 <USBH_Get_CfgDesc+0x1e>
  *ptr += ((USBH_DescHeader_t *)(void *)pbuf)->bLength;
 8006178:	7823      	ldrb	r3, [r4, #0]
  pnext = (USBH_DescHeader_t *)(void *)((uint8_t *)(void *)pbuf + \
 800617a:	441c      	add	r4, r3
  *ptr += ((USBH_DescHeader_t *)(void *)pbuf)->bLength;
 800617c:	4413      	add	r3, r2
      if (pdesc->bDescriptorType   == USB_DESC_TYPE_INTERFACE)
 800617e:	7866      	ldrb	r6, [r4, #1]
 8006180:	2e04      	cmp	r6, #4
  *ptr += ((USBH_DescHeader_t *)(void *)pbuf)->bLength;
 8006182:	b29a      	uxth	r2, r3
      if (pdesc->bDescriptorType   == USB_DESC_TYPE_INTERFACE)
 8006184:	d1f6      	bne.n	8006174 <USBH_Get_CfgDesc+0x6c>
  if_descriptor->bLength            = *(uint8_t  *) (buf + 0);
 8006186:	7823      	ldrb	r3, [r4, #0]
 8006188:	f887 333e 	strb.w	r3, [r7, #830]	; 0x33e
  if_descriptor->bDescriptorType    = *(uint8_t  *) (buf + 1);
 800618c:	7863      	ldrb	r3, [r4, #1]
 800618e:	f887 333f 	strb.w	r3, [r7, #831]	; 0x33f
  if_descriptor->bInterfaceNumber   = *(uint8_t  *) (buf + 2);
 8006192:	78a3      	ldrb	r3, [r4, #2]
 8006194:	f887 3340 	strb.w	r3, [r7, #832]	; 0x340
  if_descriptor->bAlternateSetting  = *(uint8_t  *) (buf + 3);
 8006198:	78e3      	ldrb	r3, [r4, #3]
 800619a:	f887 3341 	strb.w	r3, [r7, #833]	; 0x341
  if_descriptor->bNumEndpoints      = *(uint8_t  *) (buf + 4);
 800619e:	f894 9004 	ldrb.w	r9, [r4, #4]
 80061a2:	f887 9342 	strb.w	r9, [r7, #834]	; 0x342
  if_descriptor->bInterfaceClass    = *(uint8_t  *) (buf + 5);
 80061a6:	7963      	ldrb	r3, [r4, #5]
 80061a8:	f887 3343 	strb.w	r3, [r7, #835]	; 0x343
  if_descriptor->bInterfaceSubClass = *(uint8_t  *) (buf + 6);
 80061ac:	79a3      	ldrb	r3, [r4, #6]
 80061ae:	f887 3344 	strb.w	r3, [r7, #836]	; 0x344
  if_descriptor->bInterfaceProtocol = *(uint8_t  *) (buf + 7);
 80061b2:	79e3      	ldrb	r3, [r4, #7]
 80061b4:	f887 3345 	strb.w	r3, [r7, #837]	; 0x345
  if_descriptor->iInterface         = *(uint8_t  *) (buf + 8);
 80061b8:	7a23      	ldrb	r3, [r4, #8]
 80061ba:	f887 3346 	strb.w	r3, [r7, #838]	; 0x346
        ep_ix = 0U;
 80061be:	2600      	movs	r6, #0
  ep_descriptor->bLength          = *(uint8_t  *) (buf + 0);
 80061c0:	fb0e f80c 	mul.w	r8, lr, ip
        while ((ep_ix < pif->bNumEndpoints) && (ptr < cfg_desc->wTotalLength))
 80061c4:	454e      	cmp	r6, r9
 80061c6:	d22a      	bcs.n	800621e <USBH_Get_CfgDesc+0x116>
 80061c8:	4291      	cmp	r1, r2
 80061ca:	d928      	bls.n	800621e <USBH_Get_CfgDesc+0x116>
  *ptr += ((USBH_DescHeader_t *)(void *)pbuf)->bLength;
 80061cc:	7823      	ldrb	r3, [r4, #0]
  pnext = (USBH_DescHeader_t *)(void *)((uint8_t *)(void *)pbuf + \
 80061ce:	441c      	add	r4, r3
  *ptr += ((USBH_DescHeader_t *)(void *)pbuf)->bLength;
 80061d0:	4413      	add	r3, r2
          if (pdesc->bDescriptorType   == USB_DESC_TYPE_ENDPOINT)
 80061d2:	f894 a001 	ldrb.w	sl, [r4, #1]
 80061d6:	f1ba 0f05 	cmp.w	sl, #5
  *ptr += ((USBH_DescHeader_t *)(void *)pbuf)->bLength;
 80061da:	b29a      	uxth	r2, r3
          if (pdesc->bDescriptorType   == USB_DESC_TYPE_ENDPOINT)
 80061dc:	d1f2      	bne.n	80061c4 <USBH_Get_CfgDesc+0xbc>
  ep_descriptor->bLength          = *(uint8_t  *) (buf + 0);
 80061de:	3601      	adds	r6, #1
 80061e0:	eb08 03c6 	add.w	r3, r8, r6, lsl #3
 80061e4:	442b      	add	r3, r5
 80061e6:	f894 9000 	ldrb.w	r9, [r4]
 80061ea:	f883 9340 	strb.w	r9, [r3, #832]	; 0x340
  ep_descriptor->bDescriptorType  = *(uint8_t  *) (buf + 1);
 80061ee:	f894 9001 	ldrb.w	r9, [r4, #1]
 80061f2:	f883 9341 	strb.w	r9, [r3, #833]	; 0x341
  ep_descriptor->bEndpointAddress = *(uint8_t  *) (buf + 2);
 80061f6:	f894 9002 	ldrb.w	r9, [r4, #2]
 80061fa:	f883 9342 	strb.w	r9, [r3, #834]	; 0x342
  ep_descriptor->bmAttributes     = *(uint8_t  *) (buf + 3);
 80061fe:	f894 9003 	ldrb.w	r9, [r4, #3]
 8006202:	f883 9343 	strb.w	r9, [r3, #835]	; 0x343
  ep_descriptor->wMaxPacketSize   = LE16 (buf + 4);
 8006206:	f8b4 9004 	ldrh.w	r9, [r4, #4]
 800620a:	f8a3 9344 	strh.w	r9, [r3, #836]	; 0x344
  ep_descriptor->bInterval        = *(uint8_t  *) (buf + 6);
 800620e:	f894 9006 	ldrb.w	r9, [r4, #6]
 8006212:	f883 9346 	strb.w	r9, [r3, #838]	; 0x346
 8006216:	f897 9342 	ldrb.w	r9, [r7, #834]	; 0x342
            ep_ix++;
 800621a:	b2f6      	uxtb	r6, r6
 800621c:	e7d2      	b.n	80061c4 <USBH_Get_CfgDesc+0xbc>
 800621e:	371a      	adds	r7, #26
    while ((if_ix < USBH_MAX_NUM_INTERFACES) && (ptr < cfg_desc->wTotalLength))
 8006220:	f1bc 0f00 	cmp.w	ip, #0
 8006224:	f47f af7f 	bne.w	8006126 <USBH_Get_CfgDesc+0x1e>
 8006228:	f04f 0c01 	mov.w	ip, #1
 800622c:	e7a2      	b.n	8006174 <USBH_Get_CfgDesc+0x6c>
 800622e:	bf00      	nop

08006230 <USBH_Get_StringDesc>:
{
 8006230:	b5f0      	push	{r4, r5, r6, r7, lr}
 8006232:	b083      	sub	sp, #12
                                  phost->device.Data,
 8006234:	f500 758e 	add.w	r5, r0, #284	; 0x11c
{
 8006238:	461f      	mov	r7, r3
 800623a:	4614      	mov	r4, r2
  if((status = USBH_GetDescriptor(phost,
 800623c:	9300      	str	r3, [sp, #0]
 800623e:	f441 7240 	orr.w	r2, r1, #768	; 0x300
 8006242:	462b      	mov	r3, r5
 8006244:	2100      	movs	r1, #0
{
 8006246:	4606      	mov	r6, r0
  if((status = USBH_GetDescriptor(phost,
 8006248:	f7ff feea 	bl	8006020 <USBH_GetDescriptor>
 800624c:	b918      	cbnz	r0, 8006256 <USBH_Get_StringDesc+0x26>
  if (psrc[1] == USB_DESC_TYPE_STRING)
 800624e:	f896 311d 	ldrb.w	r3, [r6, #285]	; 0x11d
 8006252:	2b03      	cmp	r3, #3
 8006254:	d001      	beq.n	800625a <USBH_Get_StringDesc+0x2a>
}
 8006256:	b003      	add	sp, #12
 8006258:	bdf0      	pop	{r4, r5, r6, r7, pc}
    strlength = ((((uint16_t)psrc[0] - 2U) <= length) ? ((uint16_t)psrc[0] - 2U) : length);
 800625a:	f896 311c 	ldrb.w	r3, [r6, #284]	; 0x11c
 800625e:	3b02      	subs	r3, #2
 8006260:	429f      	cmp	r7, r3
 8006262:	bf28      	it	cs
 8006264:	461f      	movcs	r7, r3
 8006266:	b2b9      	uxth	r1, r7
    for (idx = 0U; idx < strlength; idx += 2U)
 8006268:	b147      	cbz	r7, 800627c <USBH_Get_StringDesc+0x4c>
 800626a:	4603      	mov	r3, r0
      *pdest =  psrc[idx];
 800626c:	18ea      	adds	r2, r5, r3
    for (idx = 0U; idx < strlength; idx += 2U)
 800626e:	3302      	adds	r3, #2
 8006270:	b29b      	uxth	r3, r3
      *pdest =  psrc[idx];
 8006272:	7892      	ldrb	r2, [r2, #2]
 8006274:	f804 2b01 	strb.w	r2, [r4], #1
    for (idx = 0U; idx < strlength; idx += 2U)
 8006278:	4299      	cmp	r1, r3
 800627a:	d8f7      	bhi.n	800626c <USBH_Get_StringDesc+0x3c>
    *pdest = 0U; /* mark end of string */
 800627c:	2300      	movs	r3, #0
 800627e:	7023      	strb	r3, [r4, #0]
}
 8006280:	b003      	add	sp, #12
 8006282:	bdf0      	pop	{r4, r5, r6, r7, pc}

08006284 <USBH_SetAddress>:
  if(phost->RequestState == CMD_SEND)
 8006284:	7882      	ldrb	r2, [r0, #2]
 8006286:	2a01      	cmp	r2, #1
 8006288:	d005      	beq.n	8006296 <USBH_SetAddress+0x12>
  switch (phost->RequestState)
 800628a:	2a02      	cmp	r2, #2
 800628c:	d101      	bne.n	8006292 <USBH_SetAddress+0xe>
 800628e:	f7ff be07 	b.w	8005ea0 <USBH_CtlReq.part.0>
}
 8006292:	2001      	movs	r0, #1
 8006294:	4770      	bx	lr
{
 8006296:	b430      	push	{r4, r5}
 8006298:	4603      	mov	r3, r0
    phost->Control.setup.b.bmRequestType = USB_H2D | USB_REQ_RECIPIENT_DEVICE | \
 800629a:	f44f 65a0 	mov.w	r5, #1280	; 0x500
    phost->Control.setup.b.wIndex.w = 0U;
 800629e:	2000      	movs	r0, #0
    phost->RequestState = CMD_WAIT;
 80062a0:	2402      	movs	r4, #2
    phost->Control.setup.b.bmRequestType = USB_H2D | USB_REQ_RECIPIENT_DEVICE | \
 80062a2:	821d      	strh	r5, [r3, #16]
    phost->Control.setup.b.wIndex.w = 0U;
 80062a4:	6158      	str	r0, [r3, #20]
    phost->Control.buff = buff;
 80062a6:	6098      	str	r0, [r3, #8]
    phost->Control.length = length;
 80062a8:	8198      	strh	r0, [r3, #12]
    phost->RequestState = CMD_WAIT;
 80062aa:	709c      	strb	r4, [r3, #2]
}
 80062ac:	2001      	movs	r0, #1
    phost->Control.setup.b.wValue.w = (uint16_t)DeviceAddress;
 80062ae:	8259      	strh	r1, [r3, #18]
    phost->Control.state = CTRL_SETUP;
 80062b0:	761a      	strb	r2, [r3, #24]
}
 80062b2:	bc30      	pop	{r4, r5}
 80062b4:	4770      	bx	lr
 80062b6:	bf00      	nop

080062b8 <USBH_SetCfg>:
  if(phost->RequestState == CMD_SEND)
 80062b8:	7882      	ldrb	r2, [r0, #2]
 80062ba:	2a01      	cmp	r2, #1
 80062bc:	d005      	beq.n	80062ca <USBH_SetCfg+0x12>
  switch (phost->RequestState)
 80062be:	2a02      	cmp	r2, #2
 80062c0:	d101      	bne.n	80062c6 <USBH_SetCfg+0xe>
 80062c2:	f7ff bded 	b.w	8005ea0 <USBH_CtlReq.part.0>
}
 80062c6:	2001      	movs	r0, #1
 80062c8:	4770      	bx	lr
{
 80062ca:	b430      	push	{r4, r5}
 80062cc:	4603      	mov	r3, r0
    phost->Control.setup.b.bmRequestType = USB_H2D | USB_REQ_RECIPIENT_DEVICE
 80062ce:	f44f 6510 	mov.w	r5, #2304	; 0x900
    phost->Control.setup.b.wIndex.w = 0U;
 80062d2:	2000      	movs	r0, #0
    phost->RequestState = CMD_WAIT;
 80062d4:	2402      	movs	r4, #2
    phost->Control.setup.b.bmRequestType = USB_H2D | USB_REQ_RECIPIENT_DEVICE
 80062d6:	821d      	strh	r5, [r3, #16]
    phost->Control.setup.b.wIndex.w = 0U;
 80062d8:	6158      	str	r0, [r3, #20]
    phost->Control.buff = buff;
 80062da:	6098      	str	r0, [r3, #8]
    phost->Control.length = length;
 80062dc:	8198      	strh	r0, [r3, #12]
    phost->RequestState = CMD_WAIT;
 80062de:	709c      	strb	r4, [r3, #2]
}
 80062e0:	2001      	movs	r0, #1
    phost->Control.setup.b.wValue.w = cfg_idx;
 80062e2:	8259      	strh	r1, [r3, #18]
    phost->Control.state = CTRL_SETUP;
 80062e4:	761a      	strb	r2, [r3, #24]
}
 80062e6:	bc30      	pop	{r4, r5}
 80062e8:	4770      	bx	lr
 80062ea:	bf00      	nop

080062ec <USBH_SetFeature>:
  if(phost->RequestState == CMD_SEND)
 80062ec:	7882      	ldrb	r2, [r0, #2]
 80062ee:	2a01      	cmp	r2, #1
 80062f0:	d005      	beq.n	80062fe <USBH_SetFeature+0x12>
  switch (phost->RequestState)
 80062f2:	2a02      	cmp	r2, #2
 80062f4:	d101      	bne.n	80062fa <USBH_SetFeature+0xe>
 80062f6:	f7ff bdd3 	b.w	8005ea0 <USBH_CtlReq.part.0>
}
 80062fa:	2001      	movs	r0, #1
 80062fc:	4770      	bx	lr
{
 80062fe:	b430      	push	{r4, r5}
 8006300:	4603      	mov	r3, r0
    phost->Control.setup.b.bmRequestType = USB_H2D | USB_REQ_RECIPIENT_DEVICE
 8006302:	f44f 7540 	mov.w	r5, #768	; 0x300
    phost->Control.setup.b.wIndex.w = 0U;
 8006306:	2000      	movs	r0, #0
    phost->RequestState = CMD_WAIT;
 8006308:	2402      	movs	r4, #2
    phost->Control.setup.b.bmRequestType = USB_H2D | USB_REQ_RECIPIENT_DEVICE
 800630a:	821d      	strh	r5, [r3, #16]
    phost->Control.setup.b.wIndex.w = 0U;
 800630c:	6158      	str	r0, [r3, #20]
    phost->Control.buff = buff;
 800630e:	6098      	str	r0, [r3, #8]
    phost->Control.length = length;
 8006310:	8198      	strh	r0, [r3, #12]
    phost->RequestState = CMD_WAIT;
 8006312:	709c      	strb	r4, [r3, #2]
}
 8006314:	2001      	movs	r0, #1
    phost->Control.setup.b.wValue.w = wValue;
 8006316:	8259      	strh	r1, [r3, #18]
    phost->Control.state = CTRL_SETUP;
 8006318:	761a      	strb	r2, [r3, #24]
}
 800631a:	bc30      	pop	{r4, r5}
 800631c:	4770      	bx	lr
 800631e:	bf00      	nop

08006320 <USBH_ClrFeature>:
  if(phost->RequestState == CMD_SEND)
 8006320:	7882      	ldrb	r2, [r0, #2]
 8006322:	2a01      	cmp	r2, #1
 8006324:	d005      	beq.n	8006332 <USBH_ClrFeature+0x12>
  switch (phost->RequestState)
 8006326:	2a02      	cmp	r2, #2
 8006328:	d101      	bne.n	800632e <USBH_ClrFeature+0xe>
 800632a:	f7ff bdb9 	b.w	8005ea0 <USBH_CtlReq.part.0>
}
 800632e:	2001      	movs	r0, #1
 8006330:	4770      	bx	lr
{
 8006332:	b430      	push	{r4, r5}
 8006334:	4603      	mov	r3, r0
    phost->Control.setup.b.bmRequestType = USB_H2D | USB_REQ_RECIPIENT_ENDPOINT
 8006336:	f44f 7581 	mov.w	r5, #258	; 0x102
    phost->Control.setup.b.wLength.w = 0U;
 800633a:	2000      	movs	r0, #0
    phost->RequestState = CMD_WAIT;
 800633c:	2402      	movs	r4, #2
    phost->Control.setup.b.bmRequestType = USB_H2D | USB_REQ_RECIPIENT_ENDPOINT
 800633e:	611d      	str	r5, [r3, #16]
    phost->Control.setup.b.wLength.w = 0U;
 8006340:	82d8      	strh	r0, [r3, #22]
    phost->Control.buff = buff;
 8006342:	6098      	str	r0, [r3, #8]
    phost->Control.length = length;
 8006344:	8198      	strh	r0, [r3, #12]
    phost->RequestState = CMD_WAIT;
 8006346:	709c      	strb	r4, [r3, #2]
}
 8006348:	2001      	movs	r0, #1
    phost->Control.setup.b.wIndex.w = ep_num;
 800634a:	8299      	strh	r1, [r3, #20]
    phost->Control.state = CTRL_SETUP;
 800634c:	761a      	strb	r2, [r3, #24]
}
 800634e:	bc30      	pop	{r4, r5}
 8006350:	4770      	bx	lr
 8006352:	bf00      	nop

08006354 <USBH_CtlReq>:
{
 8006354:	b410      	push	{r4}
  switch (phost->RequestState)
 8006356:	7884      	ldrb	r4, [r0, #2]
 8006358:	2c01      	cmp	r4, #1
 800635a:	d005      	beq.n	8006368 <USBH_CtlReq+0x14>
 800635c:	2c02      	cmp	r4, #2
 800635e:	d109      	bne.n	8006374 <USBH_CtlReq+0x20>
}
 8006360:	f85d 4b04 	ldr.w	r4, [sp], #4
 8006364:	f7ff bd9c 	b.w	8005ea0 <USBH_CtlReq.part.0>
 8006368:	4603      	mov	r3, r0
    phost->RequestState = CMD_WAIT;
 800636a:	2002      	movs	r0, #2
    phost->Control.buff = buff;
 800636c:	6099      	str	r1, [r3, #8]
    phost->Control.length = length;
 800636e:	819a      	strh	r2, [r3, #12]
    phost->Control.state = CTRL_SETUP;
 8006370:	761c      	strb	r4, [r3, #24]
    phost->RequestState = CMD_WAIT;
 8006372:	7098      	strb	r0, [r3, #2]
}
 8006374:	2001      	movs	r0, #1
 8006376:	f85d 4b04 	ldr.w	r4, [sp], #4
 800637a:	4770      	bx	lr

0800637c <USBH_CtlSendSetup>:
  * @retval USBH Status
  */
USBH_StatusTypeDef USBH_CtlSendSetup (USBH_HandleTypeDef *phost,
                                uint8_t *buff,
                                uint8_t pipe_num)
{
 800637c:	b530      	push	{r4, r5, lr}
 800637e:	b085      	sub	sp, #20

  USBH_LL_SubmitURB (phost,                     /* Driver handle    */
 8006380:	2400      	movs	r4, #0
 8006382:	2508      	movs	r5, #8
 8006384:	9101      	str	r1, [sp, #4]
 8006386:	9403      	str	r4, [sp, #12]
 8006388:	4611      	mov	r1, r2
 800638a:	9400      	str	r4, [sp, #0]
 800638c:	4623      	mov	r3, r4
 800638e:	4622      	mov	r2, r4
 8006390:	9502      	str	r5, [sp, #8]
 8006392:	f000 f9b3 	bl	80066fc <USBH_LL_SubmitURB>
                          USBH_PID_SETUP,       /* Type setup       */
                          buff,                 /* data buffer      */
                          USBH_SETUP_PKT_SIZE,  /* data length      */
                          0U);
  return USBH_OK;
}
 8006396:	4620      	mov	r0, r4
 8006398:	b005      	add	sp, #20
 800639a:	bd30      	pop	{r4, r5, pc}

0800639c <USBH_CtlSendData>:
USBH_StatusTypeDef USBH_CtlSendData (USBH_HandleTypeDef *phost,
                                uint8_t *buff,
                                uint16_t length,
                                uint8_t pipe_num,
                                uint8_t do_ping )
{
 800639c:	b530      	push	{r4, r5, lr}
  if(phost->device.speed != USBH_SPEED_HIGH)
 800639e:	f890 531d 	ldrb.w	r5, [r0, #797]	; 0x31d
{
 80063a2:	b085      	sub	sp, #20
  if(phost->device.speed != USBH_SPEED_HIGH)
 80063a4:	2d00      	cmp	r5, #0
{
 80063a6:	f89d 4020 	ldrb.w	r4, [sp, #32]
  {
    do_ping = 0U;
  }

  USBH_LL_SubmitURB (phost,                     /* Driver handle    */
 80063aa:	9202      	str	r2, [sp, #8]
{
 80063ac:	461d      	mov	r5, r3
    do_ping = 0U;
 80063ae:	bf18      	it	ne
 80063b0:	2400      	movne	r4, #0
  USBH_LL_SubmitURB (phost,                     /* Driver handle    */
 80063b2:	2300      	movs	r3, #0
 80063b4:	2201      	movs	r2, #1
 80063b6:	9101      	str	r1, [sp, #4]
 80063b8:	9200      	str	r2, [sp, #0]
 80063ba:	9403      	str	r4, [sp, #12]
 80063bc:	4629      	mov	r1, r5
 80063be:	461a      	mov	r2, r3
 80063c0:	f000 f99c 	bl	80066fc <USBH_LL_SubmitURB>
                          buff,                 /* data buffer      */
                          length,               /* data length      */
                          do_ping);             /* do ping (HS Only)*/

  return USBH_OK;
}
 80063c4:	2000      	movs	r0, #0
 80063c6:	b005      	add	sp, #20
 80063c8:	bd30      	pop	{r4, r5, pc}
 80063ca:	bf00      	nop

080063cc <USBH_CtlReceiveData>:
  */
USBH_StatusTypeDef USBH_CtlReceiveData(USBH_HandleTypeDef *phost,
                                uint8_t* buff,
                                uint16_t length,
                                uint8_t pipe_num)
{
 80063cc:	b530      	push	{r4, r5, lr}
 80063ce:	b085      	sub	sp, #20
  USBH_LL_SubmitURB (phost,                     /* Driver handle    */
 80063d0:	2400      	movs	r4, #0
 80063d2:	2501      	movs	r5, #1
 80063d4:	e9cd 1201 	strd	r1, r2, [sp, #4]
 80063d8:	9403      	str	r4, [sp, #12]
 80063da:	4619      	mov	r1, r3
 80063dc:	9500      	str	r5, [sp, #0]
 80063de:	4623      	mov	r3, r4
 80063e0:	462a      	mov	r2, r5
 80063e2:	f000 f98b 	bl	80066fc <USBH_LL_SubmitURB>
                          buff,                 /* data buffer      */
                          length,               /* data length      */
                          0U);
  return USBH_OK;

}
 80063e6:	4620      	mov	r0, r4
 80063e8:	b005      	add	sp, #20
 80063ea:	bd30      	pop	{r4, r5, pc}

080063ec <USBH_BulkSendData>:
USBH_StatusTypeDef USBH_BulkSendData (USBH_HandleTypeDef *phost,
                                uint8_t *buff,
                                uint16_t length,
                                uint8_t pipe_num,
                                uint8_t do_ping)
{
 80063ec:	b530      	push	{r4, r5, lr}
  if(phost->device.speed != USBH_SPEED_HIGH)
 80063ee:	f890 531d 	ldrb.w	r5, [r0, #797]	; 0x31d
{
 80063f2:	b085      	sub	sp, #20
  if(phost->device.speed != USBH_SPEED_HIGH)
 80063f4:	2d00      	cmp	r5, #0
{
 80063f6:	f89d 4020 	ldrb.w	r4, [sp, #32]
  {
    do_ping = 0U;
  }

  USBH_LL_SubmitURB (phost,                     /* Driver handle    */
 80063fa:	9202      	str	r2, [sp, #8]
    do_ping = 0U;
 80063fc:	bf18      	it	ne
 80063fe:	2400      	movne	r4, #0
  USBH_LL_SubmitURB (phost,                     /* Driver handle    */
 8006400:	2201      	movs	r2, #1
 8006402:	9101      	str	r1, [sp, #4]
 8006404:	9200      	str	r2, [sp, #0]
 8006406:	4619      	mov	r1, r3
 8006408:	9403      	str	r4, [sp, #12]
 800640a:	2302      	movs	r3, #2
 800640c:	2200      	movs	r2, #0
 800640e:	f000 f975 	bl	80066fc <USBH_LL_SubmitURB>
                          USBH_PID_DATA,        /* Type Data        */
                          buff,                 /* data buffer      */
                          length,               /* data length      */
                          do_ping);             /* do ping (HS Only)*/
  return USBH_OK;
}
 8006412:	2000      	movs	r0, #0
 8006414:	b005      	add	sp, #20
 8006416:	bd30      	pop	{r4, r5, pc}

08006418 <USBH_BulkReceiveData>:
  */
USBH_StatusTypeDef USBH_BulkReceiveData(USBH_HandleTypeDef *phost,
                                uint8_t *buff,
                                uint16_t length,
                                uint8_t pipe_num)
{
 8006418:	b530      	push	{r4, r5, lr}
 800641a:	b085      	sub	sp, #20
  USBH_LL_SubmitURB (phost,                     /* Driver handle    */
 800641c:	2400      	movs	r4, #0
 800641e:	2501      	movs	r5, #1
 8006420:	e9cd 1201 	strd	r1, r2, [sp, #4]
 8006424:	9403      	str	r4, [sp, #12]
 8006426:	4619      	mov	r1, r3
 8006428:	9500      	str	r5, [sp, #0]
 800642a:	462a      	mov	r2, r5
 800642c:	2302      	movs	r3, #2
 800642e:	f000 f965 	bl	80066fc <USBH_LL_SubmitURB>
                          USBH_PID_DATA,        /* Type Data        */
                          buff,                 /* data buffer      */
                          length,               /* data length      */
                          0U);
  return USBH_OK;
}
 8006432:	4620      	mov	r0, r4
 8006434:	b005      	add	sp, #20
 8006436:	bd30      	pop	{r4, r5, pc}

08006438 <USBH_OpenPipe>:
                            uint8_t epnum,
                            uint8_t dev_address,
                            uint8_t speed,
                            uint8_t ep_type,
                            uint16_t mps)
{
 8006438:	b530      	push	{r4, r5, lr}
 800643a:	b085      	sub	sp, #20
 800643c:	f89d 4020 	ldrb.w	r4, [sp, #32]
 8006440:	f89d 5024 	ldrb.w	r5, [sp, #36]	; 0x24

  USBH_LL_OpenPipe(phost,
 8006444:	9400      	str	r4, [sp, #0]
{
 8006446:	f8bd 4028 	ldrh.w	r4, [sp, #40]	; 0x28
  USBH_LL_OpenPipe(phost,
 800644a:	e9cd 5401 	strd	r5, r4, [sp, #4]
 800644e:	f000 f92f 	bl	80066b0 <USBH_LL_OpenPipe>
                        ep_type,
                        mps);

  return USBH_OK;

}
 8006452:	2000      	movs	r0, #0
 8006454:	b005      	add	sp, #20
 8006456:	bd30      	pop	{r4, r5, pc}

08006458 <USBH_ClosePipe>:
  * @param  pipe_num: Pipe Number
  * @retval USBH Status
  */
USBH_StatusTypeDef USBH_ClosePipe  (USBH_HandleTypeDef *phost,
                            uint8_t pipe_num)
{
 8006458:	b508      	push	{r3, lr}

  USBH_LL_ClosePipe(phost, pipe_num);
 800645a:	f000 f941 	bl	80066e0 <USBH_LL_ClosePipe>

  return USBH_OK;

}
 800645e:	2000      	movs	r0, #0
 8006460:	bd08      	pop	{r3, pc}
 8006462:	bf00      	nop

08006464 <USBH_AllocPipe>:
  * @param  phost: Host Handle
  * @param  ep_addr: End point for which the Pipe to be allocated
  * @retval Pipe number
  */
uint8_t USBH_AllocPipe  (USBH_HandleTypeDef *phost, uint8_t ep_addr)
{
 8006464:	b430      	push	{r4, r5}
 8006466:	f500 725f 	add.w	r2, r0, #892	; 0x37c
 800646a:	4605      	mov	r5, r0
 800646c:	2300      	movs	r3, #0
{
  uint8_t idx = 0U;

  for (idx = 0U ; idx < 11U ; idx++)
  {
	if ((phost->Pipes[idx] & 0x8000U) == 0U)
 800646e:	f852 4f04 	ldr.w	r4, [r2, #4]!
 8006472:	0424      	lsls	r4, r4, #16
 8006474:	b2d8      	uxtb	r0, r3
 8006476:	d505      	bpl.n	8006484 <USBH_AllocPipe+0x20>
 8006478:	3301      	adds	r3, #1
  for (idx = 0U ; idx < 11U ; idx++)
 800647a:	2b0b      	cmp	r3, #11
 800647c:	d1f7      	bne.n	800646e <USBH_AllocPipe+0xa>
 800647e:	20ff      	movs	r0, #255	; 0xff
}
 8006480:	bc30      	pop	{r4, r5}
 8006482:	4770      	bx	lr
	phost->Pipes[pipe] = 0x8000U | ep_addr;
 8006484:	33e0      	adds	r3, #224	; 0xe0
 8006486:	f441 4100 	orr.w	r1, r1, #32768	; 0x8000
 800648a:	f845 1023 	str.w	r1, [r5, r3, lsl #2]
}
 800648e:	bc30      	pop	{r4, r5}
 8006490:	4770      	bx	lr
 8006492:	bf00      	nop

08006494 <USBH_FreePipe>:
   if(idx < 11U)
 8006494:	290a      	cmp	r1, #10
 8006496:	d807      	bhi.n	80064a8 <USBH_FreePipe+0x14>
 8006498:	eb00 0081 	add.w	r0, r0, r1, lsl #2
	 phost->Pipes[idx] &= 0x7FFFU;
 800649c:	f8d0 3380 	ldr.w	r3, [r0, #896]	; 0x380
 80064a0:	f3c3 030e 	ubfx	r3, r3, #0, #15
 80064a4:	f8c0 3380 	str.w	r3, [r0, #896]	; 0x380
}
 80064a8:	2000      	movs	r0, #0
 80064aa:	4770      	bx	lr

080064ac <USBH_UserProcess>:
 * user callback definition
 */
static void USBH_UserProcess  (USBH_HandleTypeDef *phost, uint8_t id)
{
  /* USER CODE BEGIN CALL_BACK_1 */
  switch(id)
 80064ac:	2904      	cmp	r1, #4
 80064ae:	d00b      	beq.n	80064c8 <USBH_UserProcess+0x1c>
 80064b0:	2905      	cmp	r1, #5
 80064b2:	d005      	beq.n	80064c0 <USBH_UserProcess+0x14>
 80064b4:	2902      	cmp	r1, #2
 80064b6:	d000      	beq.n	80064ba <USBH_UserProcess+0xe>

  default:
  break;
  }
  /* USER CODE END CALL_BACK_1 */
}
 80064b8:	4770      	bx	lr
  Appli_state = APPLICATION_READY;
 80064ba:	4b05      	ldr	r3, [pc, #20]	; (80064d0 <USBH_UserProcess+0x24>)
 80064bc:	7019      	strb	r1, [r3, #0]
  break;
 80064be:	4770      	bx	lr
  Appli_state = APPLICATION_DISCONNECT;
 80064c0:	4b03      	ldr	r3, [pc, #12]	; (80064d0 <USBH_UserProcess+0x24>)
 80064c2:	2203      	movs	r2, #3
 80064c4:	701a      	strb	r2, [r3, #0]
  break;
 80064c6:	4770      	bx	lr
  Appli_state = APPLICATION_START;
 80064c8:	4b01      	ldr	r3, [pc, #4]	; (80064d0 <USBH_UserProcess+0x24>)
 80064ca:	2201      	movs	r2, #1
 80064cc:	701a      	strb	r2, [r3, #0]
}
 80064ce:	4770      	bx	lr
 80064d0:	20000240 	.word	0x20000240

080064d4 <MX_USB_HOST_Init>:
{
 80064d4:	b508      	push	{r3, lr}
  if (USBH_Init(&hUsbHostFS, USBH_UserProcess, HOST_FS) != USBH_OK)
 80064d6:	2201      	movs	r2, #1
 80064d8:	490c      	ldr	r1, [pc, #48]	; (800650c <MX_USB_HOST_Init+0x38>)
 80064da:	480d      	ldr	r0, [pc, #52]	; (8006510 <MX_USB_HOST_Init+0x3c>)
 80064dc:	f7ff fa6c 	bl	80059b8 <USBH_Init>
 80064e0:	b980      	cbnz	r0, 8006504 <MX_USB_HOST_Init+0x30>
  if (USBH_RegisterClass(&hUsbHostFS, USBH_CDC_CLASS) != USBH_OK)
 80064e2:	490c      	ldr	r1, [pc, #48]	; (8006514 <MX_USB_HOST_Init+0x40>)
 80064e4:	480a      	ldr	r0, [pc, #40]	; (8006510 <MX_USB_HOST_Init+0x3c>)
 80064e6:	f7ff fa99 	bl	8005a1c <USBH_RegisterClass>
 80064ea:	b940      	cbnz	r0, 80064fe <MX_USB_HOST_Init+0x2a>
  if (USBH_Start(&hUsbHostFS) != USBH_OK)
 80064ec:	4808      	ldr	r0, [pc, #32]	; (8006510 <MX_USB_HOST_Init+0x3c>)
 80064ee:	f7ff facd 	bl	8005a8c <USBH_Start>
 80064f2:	b900      	cbnz	r0, 80064f6 <MX_USB_HOST_Init+0x22>
}
 80064f4:	bd08      	pop	{r3, pc}
 80064f6:	e8bd 4008 	ldmia.w	sp!, {r3, lr}
    Error_Handler();
 80064fa:	f7fb bb07 	b.w	8001b0c <Error_Handler>
    Error_Handler();
 80064fe:	f7fb fb05 	bl	8001b0c <Error_Handler>
 8006502:	e7f3      	b.n	80064ec <MX_USB_HOST_Init+0x18>
    Error_Handler();
 8006504:	f7fb fb02 	bl	8001b0c <Error_Handler>
 8006508:	e7eb      	b.n	80064e2 <MX_USB_HOST_Init+0xe>
 800650a:	bf00      	nop
 800650c:	080064ad 	.word	0x080064ad
 8006510:	20000700 	.word	0x20000700
 8006514:	20000014 	.word	0x20000014

08006518 <MX_USB_HOST_Process>:
  USBH_Process(&hUsbHostFS);
 8006518:	4801      	ldr	r0, [pc, #4]	; (8006520 <MX_USB_HOST_Process+0x8>)
 800651a:	f7ff bac1 	b.w	8005aa0 <USBH_Process>
 800651e:	bf00      	nop
 8006520:	20000700 	.word	0x20000700

08006524 <HAL_HCD_MspInit>:
                       LL Driver Callbacks (HCD -> USB Host Library)
*******************************************************************************/
/* MSP Init */

void HAL_HCD_MspInit(HCD_HandleTypeDef* hcdHandle)
{
 8006524:	b530      	push	{r4, r5, lr}
  GPIO_InitTypeDef GPIO_InitStruct = {0};
  if(hcdHandle->Instance==USB_OTG_FS)
 8006526:	6803      	ldr	r3, [r0, #0]
{
 8006528:	b089      	sub	sp, #36	; 0x24
  GPIO_InitTypeDef GPIO_InitStruct = {0};
 800652a:	2400      	movs	r4, #0
  if(hcdHandle->Instance==USB_OTG_FS)
 800652c:	f1b3 4fa0 	cmp.w	r3, #1342177280	; 0x50000000
  GPIO_InitTypeDef GPIO_InitStruct = {0};
 8006530:	e9cd 4403 	strd	r4, r4, [sp, #12]
 8006534:	e9cd 4405 	strd	r4, r4, [sp, #20]
 8006538:	9407      	str	r4, [sp, #28]
  if(hcdHandle->Instance==USB_OTG_FS)
 800653a:	d001      	beq.n	8006540 <HAL_HCD_MspInit+0x1c>
    HAL_NVIC_EnableIRQ(OTG_FS_IRQn);
  /* USER CODE BEGIN USB_OTG_FS_MspInit 1 */

  /* USER CODE END USB_OTG_FS_MspInit 1 */
  }
}
 800653c:	b009      	add	sp, #36	; 0x24
 800653e:	bd30      	pop	{r4, r5, pc}
    __HAL_RCC_GPIOA_CLK_ENABLE();
 8006540:	4d1b      	ldr	r5, [pc, #108]	; (80065b0 <HAL_HCD_MspInit+0x8c>)
 8006542:	9401      	str	r4, [sp, #4]
 8006544:	6b2b      	ldr	r3, [r5, #48]	; 0x30
    HAL_GPIO_Init(VBUS_FS_GPIO_Port, &GPIO_InitStruct);
 8006546:	481b      	ldr	r0, [pc, #108]	; (80065b4 <HAL_HCD_MspInit+0x90>)
    __HAL_RCC_GPIOA_CLK_ENABLE();
 8006548:	f043 0301 	orr.w	r3, r3, #1
 800654c:	632b      	str	r3, [r5, #48]	; 0x30
 800654e:	6b2b      	ldr	r3, [r5, #48]	; 0x30
 8006550:	f003 0301 	and.w	r3, r3, #1
 8006554:	9301      	str	r3, [sp, #4]
    HAL_GPIO_Init(VBUS_FS_GPIO_Port, &GPIO_InitStruct);
 8006556:	a903      	add	r1, sp, #12
    GPIO_InitStruct.Pin = VBUS_FS_Pin;
 8006558:	f44f 7300 	mov.w	r3, #512	; 0x200
    __HAL_RCC_GPIOA_CLK_ENABLE();
 800655c:	9a01      	ldr	r2, [sp, #4]
    GPIO_InitStruct.Pin = VBUS_FS_Pin;
 800655e:	9303      	str	r3, [sp, #12]
    HAL_GPIO_Init(VBUS_FS_GPIO_Port, &GPIO_InitStruct);
 8006560:	f7fc fa80 	bl	8002a64 <HAL_GPIO_Init>
    GPIO_InitStruct.Pin = OTG_FS_ID_Pin|OTG_FS_DM_Pin|OTG_FS_DP_Pin;
 8006564:	f44f 50e0 	mov.w	r0, #7168	; 0x1c00
    HAL_GPIO_Init(GPIOA, &GPIO_InitStruct);
 8006568:	a903      	add	r1, sp, #12
    GPIO_InitStruct.Mode = GPIO_MODE_AF_PP;
 800656a:	2202      	movs	r2, #2
    GPIO_InitStruct.Alternate = GPIO_AF10_OTG_FS;
 800656c:	230a      	movs	r3, #10
    GPIO_InitStruct.Pin = OTG_FS_ID_Pin|OTG_FS_DM_Pin|OTG_FS_DP_Pin;
 800656e:	9003      	str	r0, [sp, #12]
    HAL_GPIO_Init(GPIOA, &GPIO_InitStruct);
 8006570:	4810      	ldr	r0, [pc, #64]	; (80065b4 <HAL_HCD_MspInit+0x90>)
    GPIO_InitStruct.Mode = GPIO_MODE_AF_PP;
 8006572:	9204      	str	r2, [sp, #16]
    GPIO_InitStruct.Alternate = GPIO_AF10_OTG_FS;
 8006574:	9307      	str	r3, [sp, #28]
    GPIO_InitStruct.Speed = GPIO_SPEED_FREQ_LOW;
 8006576:	e9cd 4405 	strd	r4, r4, [sp, #20]
    HAL_GPIO_Init(GPIOA, &GPIO_InitStruct);
 800657a:	f7fc fa73 	bl	8002a64 <HAL_GPIO_Init>
    __HAL_RCC_USB_OTG_FS_CLK_ENABLE();
 800657e:	6b6b      	ldr	r3, [r5, #52]	; 0x34
 8006580:	f043 0380 	orr.w	r3, r3, #128	; 0x80
 8006584:	636b      	str	r3, [r5, #52]	; 0x34
 8006586:	9402      	str	r4, [sp, #8]
 8006588:	6c6b      	ldr	r3, [r5, #68]	; 0x44
 800658a:	f443 4380 	orr.w	r3, r3, #16384	; 0x4000
 800658e:	646b      	str	r3, [r5, #68]	; 0x44
 8006590:	6c6b      	ldr	r3, [r5, #68]	; 0x44
 8006592:	f403 4380 	and.w	r3, r3, #16384	; 0x4000
 8006596:	9302      	str	r3, [sp, #8]
    HAL_NVIC_SetPriority(OTG_FS_IRQn, 0, 0);
 8006598:	4622      	mov	r2, r4
 800659a:	4621      	mov	r1, r4
 800659c:	2043      	movs	r0, #67	; 0x43
    __HAL_RCC_USB_OTG_FS_CLK_ENABLE();
 800659e:	9b02      	ldr	r3, [sp, #8]
    HAL_NVIC_SetPriority(OTG_FS_IRQn, 0, 0);
 80065a0:	f7fc f842 	bl	8002628 <HAL_NVIC_SetPriority>
    HAL_NVIC_EnableIRQ(OTG_FS_IRQn);
 80065a4:	2043      	movs	r0, #67	; 0x43
 80065a6:	f7fc f875 	bl	8002694 <HAL_NVIC_EnableIRQ>
}
 80065aa:	b009      	add	sp, #36	; 0x24
 80065ac:	bd30      	pop	{r4, r5, pc}
 80065ae:	bf00      	nop
 80065b0:	40023800 	.word	0x40023800
 80065b4:	40020000 	.word	0x40020000

080065b8 <HAL_HCD_SOF_Callback>:
  * @param  hhcd: HCD handle
  * @retval None
  */
void HAL_HCD_SOF_Callback(HCD_HandleTypeDef *hhcd)
{
  USBH_LL_IncTimer(hhcd->pData);
 80065b8:	f8d0 02c0 	ldr.w	r0, [r0, #704]	; 0x2c0
 80065bc:	f7ff bc26 	b.w	8005e0c <USBH_LL_IncTimer>

080065c0 <HAL_HCD_Connect_Callback>:
  * @param  hhcd: HCD handle
  * @retval None
  */
void HAL_HCD_Connect_Callback(HCD_HandleTypeDef *hhcd)
{
  USBH_LL_Connect(hhcd->pData);
 80065c0:	f8d0 02c0 	ldr.w	r0, [r0, #704]	; 0x2c0
 80065c4:	f7ff bc3a 	b.w	8005e3c <USBH_LL_Connect>

080065c8 <HAL_HCD_Disconnect_Callback>:
  * @param  hhcd: HCD handle
  * @retval None
  */
void HAL_HCD_Disconnect_Callback(HCD_HandleTypeDef *hhcd)
{
  USBH_LL_Disconnect(hhcd->pData);
 80065c8:	f8d0 02c0 	ldr.w	r0, [r0, #704]	; 0x2c0
 80065cc:	f7ff bc4c 	b.w	8005e68 <USBH_LL_Disconnect>

080065d0 <HAL_HCD_HC_NotifyURBChange_Callback>:
{
  /* To be used with OS to sync URB state with the global state machine */
#if (USBH_USE_OS == 1)
  USBH_LL_NotifyURBChange(hhcd->pData);
#endif
}
 80065d0:	4770      	bx	lr
 80065d2:	bf00      	nop

080065d4 <HAL_HCD_PortEnabled_Callback>:
  * @param  hhcd: HCD handle
  * @retval None
  */
void HAL_HCD_PortEnabled_Callback(HCD_HandleTypeDef *hhcd)
{
  USBH_LL_PortEnabled(hhcd->pData);
 80065d4:	f8d0 02c0 	ldr.w	r0, [r0, #704]	; 0x2c0
 80065d8:	f7ff bc28 	b.w	8005e2c <USBH_LL_PortEnabled>

080065dc <HAL_HCD_PortDisabled_Callback>:
  * @param  hhcd: HCD handle
  * @retval None
  */
void HAL_HCD_PortDisabled_Callback(HCD_HandleTypeDef *hhcd)
{
  USBH_LL_PortDisabled(hhcd->pData);
 80065dc:	f8d0 02c0 	ldr.w	r0, [r0, #704]	; 0x2c0
 80065e0:	f7ff bc28 	b.w	8005e34 <USBH_LL_PortDisabled>

080065e4 <USBH_LL_Init>:
  * @retval USBH status
  */
USBH_StatusTypeDef USBH_LL_Init(USBH_HandleTypeDef *phost)
{
  /* Init USB_IP */
  if (phost->id == HOST_FS) {
 80065e4:	f890 23c0 	ldrb.w	r2, [r0, #960]	; 0x3c0
 80065e8:	2a01      	cmp	r2, #1
 80065ea:	d001      	beq.n	80065f0 <USBH_LL_Init+0xc>
  }

  USBH_LL_SetTimer(phost, HAL_HCD_GetCurrentFrame(&hhcd_USB_OTG_FS));
  }
  return USBH_OK;
}
 80065ec:	2000      	movs	r0, #0
 80065ee:	4770      	bx	lr
  hhcd_USB_OTG_FS.pData = phost;
 80065f0:	4b10      	ldr	r3, [pc, #64]	; (8006634 <USBH_LL_Init+0x50>)
{
 80065f2:	b570      	push	{r4, r5, r6, lr}
  hhcd_USB_OTG_FS.Init.phy_itface = HCD_PHY_EMBEDDED;
 80065f4:	2102      	movs	r1, #2
 80065f6:	4604      	mov	r4, r0
  phost->pData = &hhcd_USB_OTG_FS;
 80065f8:	f8c0 33c4 	str.w	r3, [r0, #964]	; 0x3c4
  hhcd_USB_OTG_FS.Instance = USB_OTG_FS;
 80065fc:	f04f 46a0 	mov.w	r6, #1342177280	; 0x50000000
  hhcd_USB_OTG_FS.Init.Host_channels = 8;
 8006600:	2508      	movs	r5, #8
  hhcd_USB_OTG_FS.pData = phost;
 8006602:	f8c3 02c0 	str.w	r0, [r3, #704]	; 0x2c0
  hhcd_USB_OTG_FS.Init.speed = HCD_SPEED_FULL;
 8006606:	60da      	str	r2, [r3, #12]
  if (HAL_HCD_Init(&hhcd_USB_OTG_FS) != HAL_OK)
 8006608:	4618      	mov	r0, r3
  hhcd_USB_OTG_FS.Init.dma_enable = DISABLE;
 800660a:	2200      	movs	r2, #0
  hhcd_USB_OTG_FS.Instance = USB_OTG_FS;
 800660c:	601e      	str	r6, [r3, #0]
  hhcd_USB_OTG_FS.Init.Host_channels = 8;
 800660e:	609d      	str	r5, [r3, #8]
  hhcd_USB_OTG_FS.Init.phy_itface = HCD_PHY_EMBEDDED;
 8006610:	6199      	str	r1, [r3, #24]
  hhcd_USB_OTG_FS.Init.dma_enable = DISABLE;
 8006612:	611a      	str	r2, [r3, #16]
  hhcd_USB_OTG_FS.Init.Sof_enable = DISABLE;
 8006614:	61da      	str	r2, [r3, #28]
  if (HAL_HCD_Init(&hhcd_USB_OTG_FS) != HAL_OK)
 8006616:	f7fc fb7d 	bl	8002d14 <HAL_HCD_Init>
 800661a:	b940      	cbnz	r0, 800662e <USBH_LL_Init+0x4a>
  USBH_LL_SetTimer(phost, HAL_HCD_GetCurrentFrame(&hhcd_USB_OTG_FS));
 800661c:	4805      	ldr	r0, [pc, #20]	; (8006634 <USBH_LL_Init+0x50>)
 800661e:	f7fd f82f 	bl	8003680 <HAL_HCD_GetCurrentFrame>
 8006622:	4601      	mov	r1, r0
 8006624:	4620      	mov	r0, r4
 8006626:	f7ff fbed 	bl	8005e04 <USBH_LL_SetTimer>
}
 800662a:	2000      	movs	r0, #0
 800662c:	bd70      	pop	{r4, r5, r6, pc}
    Error_Handler( );
 800662e:	f7fb fa6d 	bl	8001b0c <Error_Handler>
 8006632:	e7f3      	b.n	800661c <USBH_LL_Init+0x38>
 8006634:	20000acc 	.word	0x20000acc

08006638 <USBH_LL_Start>:
  * @brief  Start the low level portion of the host driver.
  * @param  phost: Host handle
  * @retval USBH status
  */
USBH_StatusTypeDef USBH_LL_Start(USBH_HandleTypeDef *phost)
{
 8006638:	b508      	push	{r3, lr}
  HAL_StatusTypeDef hal_status = HAL_OK;
  USBH_StatusTypeDef usb_status = USBH_OK;

  hal_status = HAL_HCD_Start(phost->pData);
 800663a:	f8d0 03c4 	ldr.w	r0, [r0, #964]	; 0x3c4
 800663e:	f7fc ffe5 	bl	800360c <HAL_HCD_Start>
 8006642:	2803      	cmp	r0, #3
 8006644:	bf96      	itet	ls
 8006646:	4b02      	ldrls	r3, [pc, #8]	; (8006650 <USBH_LL_Start+0x18>)
 8006648:	2002      	movhi	r0, #2
 800664a:	5c18      	ldrbls	r0, [r3, r0]

  usb_status = USBH_Get_USB_Status(hal_status);
  
  return usb_status;
}
 800664c:	bd08      	pop	{r3, pc}
 800664e:	bf00      	nop
 8006650:	0800b398 	.word	0x0800b398

08006654 <USBH_LL_Stop>:
  * @brief  Stop the low level portion of the host driver.
  * @param  phost: Host handle
  * @retval USBH status
  */
USBH_StatusTypeDef USBH_LL_Stop(USBH_HandleTypeDef *phost)
{
 8006654:	b508      	push	{r3, lr}
  HAL_StatusTypeDef hal_status = HAL_OK;
  USBH_StatusTypeDef usb_status = USBH_OK;

  hal_status = HAL_HCD_Stop(phost->pData);
 8006656:	f8d0 03c4 	ldr.w	r0, [r0, #964]	; 0x3c4
 800665a:	f7fc ffed 	bl	8003638 <HAL_HCD_Stop>
 800665e:	2803      	cmp	r0, #3
 8006660:	bf96      	itet	ls
 8006662:	4b02      	ldrls	r3, [pc, #8]	; (800666c <USBH_LL_Stop+0x18>)
 8006664:	2002      	movhi	r0, #2
 8006666:	5c18      	ldrbls	r0, [r3, r0]

  usb_status = USBH_Get_USB_Status(hal_status);
 
  return usb_status;
}
 8006668:	bd08      	pop	{r3, pc}
 800666a:	bf00      	nop
 800666c:	0800b398 	.word	0x0800b398

08006670 <USBH_LL_GetSpeed>:
  * @brief  Return the USB host speed from the low level driver.
  * @param  phost: Host handle
  * @retval USBH speeds
  */
USBH_SpeedTypeDef USBH_LL_GetSpeed(USBH_HandleTypeDef *phost)
{
 8006670:	b508      	push	{r3, lr}
  USBH_SpeedTypeDef speed = USBH_SPEED_FULL;

  switch (HAL_HCD_GetCurrentSpeed(phost->pData))
 8006672:	f8d0 03c4 	ldr.w	r0, [r0, #964]	; 0x3c4
 8006676:	f7fd f807 	bl	8003688 <HAL_HCD_GetCurrentSpeed>
 800667a:	2802      	cmp	r0, #2
 800667c:	bf96      	itet	ls
 800667e:	4b02      	ldrls	r3, [pc, #8]	; (8006688 <USBH_LL_GetSpeed+0x18>)
 8006680:	2001      	movhi	r0, #1
 8006682:	5c18      	ldrbls	r0, [r3, r0]
  default:
   speed = USBH_SPEED_FULL;
    break;
  }
  return  speed;
}
 8006684:	bd08      	pop	{r3, pc}
 8006686:	bf00      	nop
 8006688:	0800b394 	.word	0x0800b394

0800668c <USBH_LL_ResetPort>:
  * @brief  Reset the Host port of the low level driver.
  * @param  phost: Host handle
  * @retval USBH status
  */
USBH_StatusTypeDef USBH_LL_ResetPort(USBH_HandleTypeDef *phost)
{
 800668c:	b508      	push	{r3, lr}
  HAL_StatusTypeDef hal_status = HAL_OK;
  USBH_StatusTypeDef usb_status = USBH_OK;

  hal_status = HAL_HCD_ResetPort(phost->pData);
 800668e:	f8d0 03c4 	ldr.w	r0, [r0, #964]	; 0x3c4
 8006692:	f7fc ffe3 	bl	800365c <HAL_HCD_ResetPort>
 8006696:	2803      	cmp	r0, #3
 8006698:	bf96      	itet	ls
 800669a:	4b02      	ldrls	r3, [pc, #8]	; (80066a4 <USBH_LL_ResetPort+0x18>)
 800669c:	2002      	movhi	r0, #2
 800669e:	5c18      	ldrbls	r0, [r3, r0]
  
  usb_status = USBH_Get_USB_Status(hal_status);
  
  return usb_status;
}
 80066a0:	bd08      	pop	{r3, pc}
 80066a2:	bf00      	nop
 80066a4:	0800b398 	.word	0x0800b398

080066a8 <USBH_LL_GetLastXferSize>:
  * @param  pipe: Pipe index
  * @retval Packet size
  */
uint32_t USBH_LL_GetLastXferSize(USBH_HandleTypeDef *phost, uint8_t pipe)
{
  return HAL_HCD_HC_GetXferCount(phost->pData, pipe);
 80066a8:	f8d0 03c4 	ldr.w	r0, [r0, #964]	; 0x3c4
 80066ac:	f7fc bfe2 	b.w	8003674 <HAL_HCD_HC_GetXferCount>

080066b0 <USBH_LL_OpenPipe>:
  * @param  mps: Endpoint max packet size
  * @retval USBH status
  */
USBH_StatusTypeDef USBH_LL_OpenPipe(USBH_HandleTypeDef *phost, uint8_t pipe_num, uint8_t epnum,
                                    uint8_t dev_address, uint8_t speed, uint8_t ep_type, uint16_t mps)
{
 80066b0:	b530      	push	{r4, r5, lr}
 80066b2:	b085      	sub	sp, #20
  HAL_StatusTypeDef hal_status = HAL_OK;
  USBH_StatusTypeDef usb_status = USBH_OK;

  hal_status = HAL_HCD_HC_Init(phost->pData, pipe_num, epnum,
 80066b4:	f8d0 03c4 	ldr.w	r0, [r0, #964]	; 0x3c4
{
 80066b8:	f89d 4020 	ldrb.w	r4, [sp, #32]
 80066bc:	f89d 5024 	ldrb.w	r5, [sp, #36]	; 0x24
  hal_status = HAL_HCD_HC_Init(phost->pData, pipe_num, epnum,
 80066c0:	9400      	str	r4, [sp, #0]
{
 80066c2:	f8bd 4028 	ldrh.w	r4, [sp, #40]	; 0x28
  hal_status = HAL_HCD_HC_Init(phost->pData, pipe_num, epnum,
 80066c6:	e9cd 5401 	strd	r5, r4, [sp, #4]
 80066ca:	f7fc fad3 	bl	8002c74 <HAL_HCD_HC_Init>
 80066ce:	2803      	cmp	r0, #3
 80066d0:	bf9a      	itte	ls
 80066d2:	4b02      	ldrls	r3, [pc, #8]	; (80066dc <USBH_LL_OpenPipe+0x2c>)
 80066d4:	5c18      	ldrbls	r0, [r3, r0]
 80066d6:	2002      	movhi	r0, #2
                               dev_address, speed, ep_type, mps);

  usb_status = USBH_Get_USB_Status(hal_status);
  
  return usb_status;
}
 80066d8:	b005      	add	sp, #20
 80066da:	bd30      	pop	{r4, r5, pc}
 80066dc:	0800b398 	.word	0x0800b398

080066e0 <USBH_LL_ClosePipe>:
  * @param  phost: Host handle
  * @param  pipe: Pipe index
  * @retval USBH status
  */
USBH_StatusTypeDef USBH_LL_ClosePipe(USBH_HandleTypeDef *phost, uint8_t pipe)
{
 80066e0:	b508      	push	{r3, lr}
  HAL_StatusTypeDef hal_status = HAL_OK;
  USBH_StatusTypeDef usb_status = USBH_OK;

  hal_status = HAL_HCD_HC_Halt(phost->pData, pipe);
 80066e2:	f8d0 03c4 	ldr.w	r0, [r0, #964]	; 0x3c4
 80066e6:	f7fc fb03 	bl	8002cf0 <HAL_HCD_HC_Halt>
 80066ea:	2803      	cmp	r0, #3
 80066ec:	bf96      	itet	ls
 80066ee:	4b02      	ldrls	r3, [pc, #8]	; (80066f8 <USBH_LL_ClosePipe+0x18>)
 80066f0:	2002      	movhi	r0, #2
 80066f2:	5c18      	ldrbls	r0, [r3, r0]

  usb_status = USBH_Get_USB_Status(hal_status);
  
  return usb_status;
}
 80066f4:	bd08      	pop	{r3, pc}
 80066f6:	bf00      	nop
 80066f8:	0800b398 	.word	0x0800b398

080066fc <USBH_LL_SubmitURB>:
  * @retval Status
  */
USBH_StatusTypeDef USBH_LL_SubmitURB(USBH_HandleTypeDef *phost, uint8_t pipe, uint8_t direction,
                                     uint8_t ep_type, uint8_t token, uint8_t *pbuff, uint16_t length,
                                     uint8_t do_ping)
{
 80066fc:	b530      	push	{r4, r5, lr}
 80066fe:	b085      	sub	sp, #20
  HAL_StatusTypeDef hal_status = HAL_OK;
  USBH_StatusTypeDef usb_status = USBH_OK;

  hal_status = HAL_HCD_HC_SubmitRequest(phost->pData, pipe, direction ,
 8006700:	f8d0 03c4 	ldr.w	r0, [r0, #964]	; 0x3c4
{
 8006704:	f89d 5020 	ldrb.w	r5, [sp, #32]
 8006708:	9c09      	ldr	r4, [sp, #36]	; 0x24
  hal_status = HAL_HCD_HC_SubmitRequest(phost->pData, pipe, direction ,
 800670a:	9500      	str	r5, [sp, #0]
 800670c:	9401      	str	r4, [sp, #4]
{
 800670e:	f8bd 5028 	ldrh.w	r5, [sp, #40]	; 0x28
 8006712:	f89d 402c 	ldrb.w	r4, [sp, #44]	; 0x2c
  hal_status = HAL_HCD_HC_SubmitRequest(phost->pData, pipe, direction ,
 8006716:	e9cd 5402 	strd	r5, r4, [sp, #8]
 800671a:	f7fc fb4b 	bl	8002db4 <HAL_HCD_HC_SubmitRequest>
 800671e:	2803      	cmp	r0, #3
 8006720:	bf9a      	itte	ls
 8006722:	4b02      	ldrls	r3, [pc, #8]	; (800672c <USBH_LL_SubmitURB+0x30>)
 8006724:	5c18      	ldrbls	r0, [r3, r0]
 8006726:	2002      	movhi	r0, #2
                                        ep_type, token, pbuff, length,
                                        do_ping);
  usb_status =  USBH_Get_USB_Status(hal_status);
  
  return usb_status;
}
 8006728:	b005      	add	sp, #20
 800672a:	bd30      	pop	{r4, r5, pc}
 800672c:	0800b398 	.word	0x0800b398

08006730 <USBH_LL_GetURBState>:
  *            @arg URB_ERROR
  *            @arg URB_STALL
  */
USBH_URBStateTypeDef USBH_LL_GetURBState(USBH_HandleTypeDef *phost, uint8_t pipe)
{
  return (USBH_URBStateTypeDef)HAL_HCD_HC_GetURBState (phost->pData, pipe);
 8006730:	f8d0 03c4 	ldr.w	r0, [r0, #964]	; 0x3c4
 8006734:	f7fc bf96 	b.w	8003664 <HAL_HCD_HC_GetURBState>

08006738 <USBH_LL_DriverVBUS>:
  *           0 : VBUS Active
  *           1 : VBUS Inactive
  * @retval Status
  */
USBH_StatusTypeDef USBH_LL_DriverVBUS(USBH_HandleTypeDef *phost, uint8_t state)
{
 8006738:	b508      	push	{r3, lr}
  if (phost->id == HOST_FS) {
 800673a:	f890 33c0 	ldrb.w	r3, [r0, #960]	; 0x3c0
 800673e:	2b01      	cmp	r3, #1
 8006740:	d004      	beq.n	800674c <USBH_LL_DriverVBUS+0x14>

  /* USER CODE BEGIN 0 */

  /* USER CODE END 0*/

  HAL_Delay(200);
 8006742:	20c8      	movs	r0, #200	; 0xc8
 8006744:	f7fb fd02 	bl	800214c <HAL_Delay>
  return USBH_OK;
}
 8006748:	2000      	movs	r0, #0
 800674a:	bd08      	pop	{r3, pc}
    MX_DriverVbusFS(state);
 800674c:	4608      	mov	r0, r1
 800674e:	f000 f819 	bl	8006784 <MX_DriverVbusFS>
  HAL_Delay(200);
 8006752:	20c8      	movs	r0, #200	; 0xc8
 8006754:	f7fb fcfa 	bl	800214c <HAL_Delay>
}
 8006758:	2000      	movs	r0, #0
 800675a:	bd08      	pop	{r3, pc}

0800675c <USBH_LL_SetToggle>:
  * @retval Status
  */
USBH_StatusTypeDef USBH_LL_SetToggle(USBH_HandleTypeDef *phost, uint8_t pipe, uint8_t toggle)
{
  HCD_HandleTypeDef *pHandle;
  pHandle = phost->pData;
 800675c:	f8d0 33c4 	ldr.w	r3, [r0, #964]	; 0x3c4

  if(pHandle->hc[pipe].ep_is_in)
 8006760:	eb01 0181 	add.w	r1, r1, r1, lsl #2
 8006764:	eb03 01c1 	add.w	r1, r3, r1, lsl #3
 8006768:	f891 303b 	ldrb.w	r3, [r1, #59]	; 0x3b
 800676c:	b91b      	cbnz	r3, 8006776 <USBH_LL_SetToggle+0x1a>
  {
    pHandle->hc[pipe].toggle_in = toggle;
  }
  else
  {
    pHandle->hc[pipe].toggle_out = toggle;
 800676e:	f881 2051 	strb.w	r2, [r1, #81]	; 0x51
  }

  return USBH_OK;
}
 8006772:	2000      	movs	r0, #0
 8006774:	4770      	bx	lr
    pHandle->hc[pipe].toggle_in = toggle;
 8006776:	f881 2050 	strb.w	r2, [r1, #80]	; 0x50
}
 800677a:	2000      	movs	r0, #0
 800677c:	4770      	bx	lr
 800677e:	bf00      	nop

08006780 <USBH_Delay>:
  * @param  Delay: Delay in ms
  * @retval None
  */
void USBH_Delay(uint32_t Delay)
{
  HAL_Delay(Delay);
 8006780:	f7fb bce4 	b.w	800214c <HAL_Delay>

08006784 <MX_DriverVbusFS>:
  {
    /* Drive low Charge pump */
    data = GPIO_PIN_RESET;
  }
  /* USER CODE END PREPARE_GPIO_DATA_VBUS_FS */
  HAL_GPIO_WritePin(GPIOC,GPIO_PIN_0,(GPIO_PinState)data);
 8006784:	fab0 f280 	clz	r2, r0
 8006788:	0952      	lsrs	r2, r2, #5
 800678a:	2101      	movs	r1, #1
 800678c:	4801      	ldr	r0, [pc, #4]	; (8006794 <MX_DriverVbusFS+0x10>)
 800678e:	f7fc ba6d 	b.w	8002c6c <HAL_GPIO_WritePin>
 8006792:	bf00      	nop
 8006794:	40020800 	.word	0x40020800

08006798 <atof>:
 8006798:	2100      	movs	r1, #0
 800679a:	f001 bbb1 	b.w	8007f00 <strtod>
	...

080067a0 <__errno>:
 80067a0:	4b01      	ldr	r3, [pc, #4]	; (80067a8 <__errno+0x8>)
 80067a2:	6818      	ldr	r0, [r3, #0]
 80067a4:	4770      	bx	lr
 80067a6:	bf00      	nop
 80067a8:	20000034 	.word	0x20000034

080067ac <__libc_init_array>:
 80067ac:	b570      	push	{r4, r5, r6, lr}
 80067ae:	4e0d      	ldr	r6, [pc, #52]	; (80067e4 <__libc_init_array+0x38>)
 80067b0:	4c0d      	ldr	r4, [pc, #52]	; (80067e8 <__libc_init_array+0x3c>)
 80067b2:	1ba4      	subs	r4, r4, r6
 80067b4:	10a4      	asrs	r4, r4, #2
 80067b6:	2500      	movs	r5, #0
 80067b8:	42a5      	cmp	r5, r4
 80067ba:	d109      	bne.n	80067d0 <__libc_init_array+0x24>
 80067bc:	4e0b      	ldr	r6, [pc, #44]	; (80067ec <__libc_init_array+0x40>)
 80067be:	4c0c      	ldr	r4, [pc, #48]	; (80067f0 <__libc_init_array+0x44>)
 80067c0:	f004 fd9c 	bl	800b2fc <_init>
 80067c4:	1ba4      	subs	r4, r4, r6
 80067c6:	10a4      	asrs	r4, r4, #2
 80067c8:	2500      	movs	r5, #0
 80067ca:	42a5      	cmp	r5, r4
 80067cc:	d105      	bne.n	80067da <__libc_init_array+0x2e>
 80067ce:	bd70      	pop	{r4, r5, r6, pc}
 80067d0:	f856 3025 	ldr.w	r3, [r6, r5, lsl #2]
 80067d4:	4798      	blx	r3
 80067d6:	3501      	adds	r5, #1
 80067d8:	e7ee      	b.n	80067b8 <__libc_init_array+0xc>
 80067da:	f856 3025 	ldr.w	r3, [r6, r5, lsl #2]
 80067de:	4798      	blx	r3
 80067e0:	3501      	adds	r5, #1
 80067e2:	e7f2      	b.n	80067ca <__libc_init_array+0x1e>
 80067e4:	0800b698 	.word	0x0800b698
 80067e8:	0800b698 	.word	0x0800b698
 80067ec:	0800b698 	.word	0x0800b698
 80067f0:	0800b69c 	.word	0x0800b69c

080067f4 <malloc>:
 80067f4:	4b02      	ldr	r3, [pc, #8]	; (8006800 <malloc+0xc>)
 80067f6:	4601      	mov	r1, r0
 80067f8:	6818      	ldr	r0, [r3, #0]
 80067fa:	f000 b861 	b.w	80068c0 <_malloc_r>
 80067fe:	bf00      	nop
 8006800:	20000034 	.word	0x20000034

08006804 <free>:
 8006804:	4b02      	ldr	r3, [pc, #8]	; (8006810 <free+0xc>)
 8006806:	4601      	mov	r1, r0
 8006808:	6818      	ldr	r0, [r3, #0]
 800680a:	f000 b80b 	b.w	8006824 <_free_r>
 800680e:	bf00      	nop
 8006810:	20000034 	.word	0x20000034

08006814 <memset>:
 8006814:	4402      	add	r2, r0
 8006816:	4603      	mov	r3, r0
 8006818:	4293      	cmp	r3, r2
 800681a:	d100      	bne.n	800681e <memset+0xa>
 800681c:	4770      	bx	lr
 800681e:	f803 1b01 	strb.w	r1, [r3], #1
 8006822:	e7f9      	b.n	8006818 <memset+0x4>

08006824 <_free_r>:
 8006824:	b538      	push	{r3, r4, r5, lr}
 8006826:	4605      	mov	r5, r0
 8006828:	2900      	cmp	r1, #0
 800682a:	d045      	beq.n	80068b8 <_free_r+0x94>
 800682c:	f851 3c04 	ldr.w	r3, [r1, #-4]
 8006830:	1f0c      	subs	r4, r1, #4
 8006832:	2b00      	cmp	r3, #0
 8006834:	bfb8      	it	lt
 8006836:	18e4      	addlt	r4, r4, r3
 8006838:	f002 fd0d 	bl	8009256 <__malloc_lock>
 800683c:	4a1f      	ldr	r2, [pc, #124]	; (80068bc <_free_r+0x98>)
 800683e:	6813      	ldr	r3, [r2, #0]
 8006840:	4610      	mov	r0, r2
 8006842:	b933      	cbnz	r3, 8006852 <_free_r+0x2e>
 8006844:	6063      	str	r3, [r4, #4]
 8006846:	6014      	str	r4, [r2, #0]
 8006848:	4628      	mov	r0, r5
 800684a:	e8bd 4038 	ldmia.w	sp!, {r3, r4, r5, lr}
 800684e:	f002 bd03 	b.w	8009258 <__malloc_unlock>
 8006852:	42a3      	cmp	r3, r4
 8006854:	d90c      	bls.n	8006870 <_free_r+0x4c>
 8006856:	6821      	ldr	r1, [r4, #0]
 8006858:	1862      	adds	r2, r4, r1
 800685a:	4293      	cmp	r3, r2
 800685c:	bf04      	itt	eq
 800685e:	681a      	ldreq	r2, [r3, #0]
 8006860:	685b      	ldreq	r3, [r3, #4]
 8006862:	6063      	str	r3, [r4, #4]
 8006864:	bf04      	itt	eq
 8006866:	1852      	addeq	r2, r2, r1
 8006868:	6022      	streq	r2, [r4, #0]
 800686a:	6004      	str	r4, [r0, #0]
 800686c:	e7ec      	b.n	8006848 <_free_r+0x24>
 800686e:	4613      	mov	r3, r2
 8006870:	685a      	ldr	r2, [r3, #4]
 8006872:	b10a      	cbz	r2, 8006878 <_free_r+0x54>
 8006874:	42a2      	cmp	r2, r4
 8006876:	d9fa      	bls.n	800686e <_free_r+0x4a>
 8006878:	6819      	ldr	r1, [r3, #0]
 800687a:	1858      	adds	r0, r3, r1
 800687c:	42a0      	cmp	r0, r4
 800687e:	d10b      	bne.n	8006898 <_free_r+0x74>
 8006880:	6820      	ldr	r0, [r4, #0]
 8006882:	4401      	add	r1, r0
 8006884:	1858      	adds	r0, r3, r1
 8006886:	4282      	cmp	r2, r0
 8006888:	6019      	str	r1, [r3, #0]
 800688a:	d1dd      	bne.n	8006848 <_free_r+0x24>
 800688c:	6810      	ldr	r0, [r2, #0]
 800688e:	6852      	ldr	r2, [r2, #4]
 8006890:	605a      	str	r2, [r3, #4]
 8006892:	4401      	add	r1, r0
 8006894:	6019      	str	r1, [r3, #0]
 8006896:	e7d7      	b.n	8006848 <_free_r+0x24>
 8006898:	d902      	bls.n	80068a0 <_free_r+0x7c>
 800689a:	230c      	movs	r3, #12
 800689c:	602b      	str	r3, [r5, #0]
 800689e:	e7d3      	b.n	8006848 <_free_r+0x24>
 80068a0:	6820      	ldr	r0, [r4, #0]
 80068a2:	1821      	adds	r1, r4, r0
 80068a4:	428a      	cmp	r2, r1
 80068a6:	bf04      	itt	eq
 80068a8:	6811      	ldreq	r1, [r2, #0]
 80068aa:	6852      	ldreq	r2, [r2, #4]
 80068ac:	6062      	str	r2, [r4, #4]
 80068ae:	bf04      	itt	eq
 80068b0:	1809      	addeq	r1, r1, r0
 80068b2:	6021      	streq	r1, [r4, #0]
 80068b4:	605c      	str	r4, [r3, #4]
 80068b6:	e7c7      	b.n	8006848 <_free_r+0x24>
 80068b8:	bd38      	pop	{r3, r4, r5, pc}
 80068ba:	bf00      	nop
 80068bc:	20000244 	.word	0x20000244

080068c0 <_malloc_r>:
 80068c0:	b570      	push	{r4, r5, r6, lr}
 80068c2:	1ccd      	adds	r5, r1, #3
 80068c4:	f025 0503 	bic.w	r5, r5, #3
 80068c8:	3508      	adds	r5, #8
 80068ca:	2d0c      	cmp	r5, #12
 80068cc:	bf38      	it	cc
 80068ce:	250c      	movcc	r5, #12
 80068d0:	2d00      	cmp	r5, #0
 80068d2:	4606      	mov	r6, r0
 80068d4:	db01      	blt.n	80068da <_malloc_r+0x1a>
 80068d6:	42a9      	cmp	r1, r5
 80068d8:	d903      	bls.n	80068e2 <_malloc_r+0x22>
 80068da:	230c      	movs	r3, #12
 80068dc:	6033      	str	r3, [r6, #0]
 80068de:	2000      	movs	r0, #0
 80068e0:	bd70      	pop	{r4, r5, r6, pc}
 80068e2:	f002 fcb8 	bl	8009256 <__malloc_lock>
 80068e6:	4a21      	ldr	r2, [pc, #132]	; (800696c <_malloc_r+0xac>)
 80068e8:	6814      	ldr	r4, [r2, #0]
 80068ea:	4621      	mov	r1, r4
 80068ec:	b991      	cbnz	r1, 8006914 <_malloc_r+0x54>
 80068ee:	4c20      	ldr	r4, [pc, #128]	; (8006970 <_malloc_r+0xb0>)
 80068f0:	6823      	ldr	r3, [r4, #0]
 80068f2:	b91b      	cbnz	r3, 80068fc <_malloc_r+0x3c>
 80068f4:	4630      	mov	r0, r6
 80068f6:	f000 fc99 	bl	800722c <_sbrk_r>
 80068fa:	6020      	str	r0, [r4, #0]
 80068fc:	4629      	mov	r1, r5
 80068fe:	4630      	mov	r0, r6
 8006900:	f000 fc94 	bl	800722c <_sbrk_r>
 8006904:	1c43      	adds	r3, r0, #1
 8006906:	d124      	bne.n	8006952 <_malloc_r+0x92>
 8006908:	230c      	movs	r3, #12
 800690a:	6033      	str	r3, [r6, #0]
 800690c:	4630      	mov	r0, r6
 800690e:	f002 fca3 	bl	8009258 <__malloc_unlock>
 8006912:	e7e4      	b.n	80068de <_malloc_r+0x1e>
 8006914:	680b      	ldr	r3, [r1, #0]
 8006916:	1b5b      	subs	r3, r3, r5
 8006918:	d418      	bmi.n	800694c <_malloc_r+0x8c>
 800691a:	2b0b      	cmp	r3, #11
 800691c:	d90f      	bls.n	800693e <_malloc_r+0x7e>
 800691e:	600b      	str	r3, [r1, #0]
 8006920:	50cd      	str	r5, [r1, r3]
 8006922:	18cc      	adds	r4, r1, r3
 8006924:	4630      	mov	r0, r6
 8006926:	f002 fc97 	bl	8009258 <__malloc_unlock>
 800692a:	f104 000b 	add.w	r0, r4, #11
 800692e:	1d23      	adds	r3, r4, #4
 8006930:	f020 0007 	bic.w	r0, r0, #7
 8006934:	1ac3      	subs	r3, r0, r3
 8006936:	d0d3      	beq.n	80068e0 <_malloc_r+0x20>
 8006938:	425a      	negs	r2, r3
 800693a:	50e2      	str	r2, [r4, r3]
 800693c:	e7d0      	b.n	80068e0 <_malloc_r+0x20>
 800693e:	428c      	cmp	r4, r1
 8006940:	684b      	ldr	r3, [r1, #4]
 8006942:	bf16      	itet	ne
 8006944:	6063      	strne	r3, [r4, #4]
 8006946:	6013      	streq	r3, [r2, #0]
 8006948:	460c      	movne	r4, r1
 800694a:	e7eb      	b.n	8006924 <_malloc_r+0x64>
 800694c:	460c      	mov	r4, r1
 800694e:	6849      	ldr	r1, [r1, #4]
 8006950:	e7cc      	b.n	80068ec <_malloc_r+0x2c>
 8006952:	1cc4      	adds	r4, r0, #3
 8006954:	f024 0403 	bic.w	r4, r4, #3
 8006958:	42a0      	cmp	r0, r4
 800695a:	d005      	beq.n	8006968 <_malloc_r+0xa8>
 800695c:	1a21      	subs	r1, r4, r0
 800695e:	4630      	mov	r0, r6
 8006960:	f000 fc64 	bl	800722c <_sbrk_r>
 8006964:	3001      	adds	r0, #1
 8006966:	d0cf      	beq.n	8006908 <_malloc_r+0x48>
 8006968:	6025      	str	r5, [r4, #0]
 800696a:	e7db      	b.n	8006924 <_malloc_r+0x64>
 800696c:	20000244 	.word	0x20000244
 8006970:	20000248 	.word	0x20000248

08006974 <__cvt>:
 8006974:	e92d 47ff 	stmdb	sp!, {r0, r1, r2, r3, r4, r5, r6, r7, r8, r9, sl, lr}
 8006978:	ec55 4b10 	vmov	r4, r5, d0
 800697c:	9f0d      	ldr	r7, [sp, #52]	; 0x34
 800697e:	f8dd a030 	ldr.w	sl, [sp, #48]	; 0x30
 8006982:	2d00      	cmp	r5, #0
 8006984:	460e      	mov	r6, r1
 8006986:	4691      	mov	r9, r2
 8006988:	4619      	mov	r1, r3
 800698a:	bfb8      	it	lt
 800698c:	4622      	movlt	r2, r4
 800698e:	462b      	mov	r3, r5
 8006990:	f027 0720 	bic.w	r7, r7, #32
 8006994:	bfbb      	ittet	lt
 8006996:	f105 4300 	addlt.w	r3, r5, #2147483648	; 0x80000000
 800699a:	461d      	movlt	r5, r3
 800699c:	2300      	movge	r3, #0
 800699e:	232d      	movlt	r3, #45	; 0x2d
 80069a0:	bfb8      	it	lt
 80069a2:	4614      	movlt	r4, r2
 80069a4:	2f46      	cmp	r7, #70	; 0x46
 80069a6:	700b      	strb	r3, [r1, #0]
 80069a8:	d004      	beq.n	80069b4 <__cvt+0x40>
 80069aa:	2f45      	cmp	r7, #69	; 0x45
 80069ac:	d100      	bne.n	80069b0 <__cvt+0x3c>
 80069ae:	3601      	adds	r6, #1
 80069b0:	2102      	movs	r1, #2
 80069b2:	e000      	b.n	80069b6 <__cvt+0x42>
 80069b4:	2103      	movs	r1, #3
 80069b6:	ab03      	add	r3, sp, #12
 80069b8:	9301      	str	r3, [sp, #4]
 80069ba:	ab02      	add	r3, sp, #8
 80069bc:	9300      	str	r3, [sp, #0]
 80069be:	4632      	mov	r2, r6
 80069c0:	4653      	mov	r3, sl
 80069c2:	ec45 4b10 	vmov	d0, r4, r5
 80069c6:	f001 fb3b 	bl	8008040 <_dtoa_r>
 80069ca:	2f47      	cmp	r7, #71	; 0x47
 80069cc:	4680      	mov	r8, r0
 80069ce:	d102      	bne.n	80069d6 <__cvt+0x62>
 80069d0:	f019 0f01 	tst.w	r9, #1
 80069d4:	d026      	beq.n	8006a24 <__cvt+0xb0>
 80069d6:	2f46      	cmp	r7, #70	; 0x46
 80069d8:	eb08 0906 	add.w	r9, r8, r6
 80069dc:	d111      	bne.n	8006a02 <__cvt+0x8e>
 80069de:	f898 3000 	ldrb.w	r3, [r8]
 80069e2:	2b30      	cmp	r3, #48	; 0x30
 80069e4:	d10a      	bne.n	80069fc <__cvt+0x88>
 80069e6:	2200      	movs	r2, #0
 80069e8:	2300      	movs	r3, #0
 80069ea:	4620      	mov	r0, r4
 80069ec:	4629      	mov	r1, r5
 80069ee:	f7fa f86b 	bl	8000ac8 <__aeabi_dcmpeq>
 80069f2:	b918      	cbnz	r0, 80069fc <__cvt+0x88>
 80069f4:	f1c6 0601 	rsb	r6, r6, #1
 80069f8:	f8ca 6000 	str.w	r6, [sl]
 80069fc:	f8da 3000 	ldr.w	r3, [sl]
 8006a00:	4499      	add	r9, r3
 8006a02:	2200      	movs	r2, #0
 8006a04:	2300      	movs	r3, #0
 8006a06:	4620      	mov	r0, r4
 8006a08:	4629      	mov	r1, r5
 8006a0a:	f7fa f85d 	bl	8000ac8 <__aeabi_dcmpeq>
 8006a0e:	b938      	cbnz	r0, 8006a20 <__cvt+0xac>
 8006a10:	2230      	movs	r2, #48	; 0x30
 8006a12:	9b03      	ldr	r3, [sp, #12]
 8006a14:	454b      	cmp	r3, r9
 8006a16:	d205      	bcs.n	8006a24 <__cvt+0xb0>
 8006a18:	1c59      	adds	r1, r3, #1
 8006a1a:	9103      	str	r1, [sp, #12]
 8006a1c:	701a      	strb	r2, [r3, #0]
 8006a1e:	e7f8      	b.n	8006a12 <__cvt+0x9e>
 8006a20:	f8cd 900c 	str.w	r9, [sp, #12]
 8006a24:	9b03      	ldr	r3, [sp, #12]
 8006a26:	9a0e      	ldr	r2, [sp, #56]	; 0x38
 8006a28:	eba3 0308 	sub.w	r3, r3, r8
 8006a2c:	4640      	mov	r0, r8
 8006a2e:	6013      	str	r3, [r2, #0]
 8006a30:	b004      	add	sp, #16
 8006a32:	e8bd 87f0 	ldmia.w	sp!, {r4, r5, r6, r7, r8, r9, sl, pc}

08006a36 <__exponent>:
 8006a36:	b5f7      	push	{r0, r1, r2, r4, r5, r6, r7, lr}
 8006a38:	2900      	cmp	r1, #0
 8006a3a:	4604      	mov	r4, r0
 8006a3c:	bfba      	itte	lt
 8006a3e:	4249      	neglt	r1, r1
 8006a40:	232d      	movlt	r3, #45	; 0x2d
 8006a42:	232b      	movge	r3, #43	; 0x2b
 8006a44:	2909      	cmp	r1, #9
 8006a46:	f804 2b02 	strb.w	r2, [r4], #2
 8006a4a:	7043      	strb	r3, [r0, #1]
 8006a4c:	dd20      	ble.n	8006a90 <__exponent+0x5a>
 8006a4e:	f10d 0307 	add.w	r3, sp, #7
 8006a52:	461f      	mov	r7, r3
 8006a54:	260a      	movs	r6, #10
 8006a56:	fb91 f5f6 	sdiv	r5, r1, r6
 8006a5a:	fb06 1115 	mls	r1, r6, r5, r1
 8006a5e:	3130      	adds	r1, #48	; 0x30
 8006a60:	2d09      	cmp	r5, #9
 8006a62:	f803 1c01 	strb.w	r1, [r3, #-1]
 8006a66:	f103 32ff 	add.w	r2, r3, #4294967295
 8006a6a:	4629      	mov	r1, r5
 8006a6c:	dc09      	bgt.n	8006a82 <__exponent+0x4c>
 8006a6e:	3130      	adds	r1, #48	; 0x30
 8006a70:	3b02      	subs	r3, #2
 8006a72:	f802 1c01 	strb.w	r1, [r2, #-1]
 8006a76:	42bb      	cmp	r3, r7
 8006a78:	4622      	mov	r2, r4
 8006a7a:	d304      	bcc.n	8006a86 <__exponent+0x50>
 8006a7c:	1a10      	subs	r0, r2, r0
 8006a7e:	b003      	add	sp, #12
 8006a80:	bdf0      	pop	{r4, r5, r6, r7, pc}
 8006a82:	4613      	mov	r3, r2
 8006a84:	e7e7      	b.n	8006a56 <__exponent+0x20>
 8006a86:	f813 2b01 	ldrb.w	r2, [r3], #1
 8006a8a:	f804 2b01 	strb.w	r2, [r4], #1
 8006a8e:	e7f2      	b.n	8006a76 <__exponent+0x40>
 8006a90:	2330      	movs	r3, #48	; 0x30
 8006a92:	4419      	add	r1, r3
 8006a94:	7083      	strb	r3, [r0, #2]
 8006a96:	1d02      	adds	r2, r0, #4
 8006a98:	70c1      	strb	r1, [r0, #3]
 8006a9a:	e7ef      	b.n	8006a7c <__exponent+0x46>

08006a9c <_printf_float>:
 8006a9c:	e92d 4ff0 	stmdb	sp!, {r4, r5, r6, r7, r8, r9, sl, fp, lr}
 8006aa0:	b08d      	sub	sp, #52	; 0x34
 8006aa2:	460c      	mov	r4, r1
 8006aa4:	f8dd 8058 	ldr.w	r8, [sp, #88]	; 0x58
 8006aa8:	4616      	mov	r6, r2
 8006aaa:	461f      	mov	r7, r3
 8006aac:	4605      	mov	r5, r0
 8006aae:	f002 fba7 	bl	8009200 <_localeconv_r>
 8006ab2:	6803      	ldr	r3, [r0, #0]
 8006ab4:	9304      	str	r3, [sp, #16]
 8006ab6:	4618      	mov	r0, r3
 8006ab8:	f7f9 fb8a 	bl	80001d0 <strlen>
 8006abc:	2300      	movs	r3, #0
 8006abe:	930a      	str	r3, [sp, #40]	; 0x28
 8006ac0:	f8d8 3000 	ldr.w	r3, [r8]
 8006ac4:	9005      	str	r0, [sp, #20]
 8006ac6:	3307      	adds	r3, #7
 8006ac8:	f023 0307 	bic.w	r3, r3, #7
 8006acc:	f103 0208 	add.w	r2, r3, #8
 8006ad0:	f894 a018 	ldrb.w	sl, [r4, #24]
 8006ad4:	f8d4 b000 	ldr.w	fp, [r4]
 8006ad8:	f8c8 2000 	str.w	r2, [r8]
 8006adc:	e9d3 2300 	ldrd	r2, r3, [r3]
 8006ae0:	e9c4 2312 	strd	r2, r3, [r4, #72]	; 0x48
 8006ae4:	e9d4 8912 	ldrd	r8, r9, [r4, #72]	; 0x48
 8006ae8:	f029 4300 	bic.w	r3, r9, #2147483648	; 0x80000000
 8006aec:	9307      	str	r3, [sp, #28]
 8006aee:	f8cd 8018 	str.w	r8, [sp, #24]
 8006af2:	f04f 32ff 	mov.w	r2, #4294967295
 8006af6:	4ba7      	ldr	r3, [pc, #668]	; (8006d94 <_printf_float+0x2f8>)
 8006af8:	e9dd 0106 	ldrd	r0, r1, [sp, #24]
 8006afc:	f7fa f816 	bl	8000b2c <__aeabi_dcmpun>
 8006b00:	bb70      	cbnz	r0, 8006b60 <_printf_float+0xc4>
 8006b02:	f04f 32ff 	mov.w	r2, #4294967295
 8006b06:	4ba3      	ldr	r3, [pc, #652]	; (8006d94 <_printf_float+0x2f8>)
 8006b08:	e9dd 0106 	ldrd	r0, r1, [sp, #24]
 8006b0c:	f7f9 fff0 	bl	8000af0 <__aeabi_dcmple>
 8006b10:	bb30      	cbnz	r0, 8006b60 <_printf_float+0xc4>
 8006b12:	2200      	movs	r2, #0
 8006b14:	2300      	movs	r3, #0
 8006b16:	4640      	mov	r0, r8
 8006b18:	4649      	mov	r1, r9
 8006b1a:	f7f9 ffdf 	bl	8000adc <__aeabi_dcmplt>
 8006b1e:	b110      	cbz	r0, 8006b26 <_printf_float+0x8a>
 8006b20:	232d      	movs	r3, #45	; 0x2d
 8006b22:	f884 3043 	strb.w	r3, [r4, #67]	; 0x43
 8006b26:	4a9c      	ldr	r2, [pc, #624]	; (8006d98 <_printf_float+0x2fc>)
 8006b28:	4b9c      	ldr	r3, [pc, #624]	; (8006d9c <_printf_float+0x300>)
 8006b2a:	f1ba 0f47 	cmp.w	sl, #71	; 0x47
 8006b2e:	bf8c      	ite	hi
 8006b30:	4690      	movhi	r8, r2
 8006b32:	4698      	movls	r8, r3
 8006b34:	2303      	movs	r3, #3
 8006b36:	f02b 0204 	bic.w	r2, fp, #4
 8006b3a:	6123      	str	r3, [r4, #16]
 8006b3c:	6022      	str	r2, [r4, #0]
 8006b3e:	f04f 0900 	mov.w	r9, #0
 8006b42:	9700      	str	r7, [sp, #0]
 8006b44:	4633      	mov	r3, r6
 8006b46:	aa0b      	add	r2, sp, #44	; 0x2c
 8006b48:	4621      	mov	r1, r4
 8006b4a:	4628      	mov	r0, r5
 8006b4c:	f000 f9e6 	bl	8006f1c <_printf_common>
 8006b50:	3001      	adds	r0, #1
 8006b52:	f040 808d 	bne.w	8006c70 <_printf_float+0x1d4>
 8006b56:	f04f 30ff 	mov.w	r0, #4294967295
 8006b5a:	b00d      	add	sp, #52	; 0x34
 8006b5c:	e8bd 8ff0 	ldmia.w	sp!, {r4, r5, r6, r7, r8, r9, sl, fp, pc}
 8006b60:	4642      	mov	r2, r8
 8006b62:	464b      	mov	r3, r9
 8006b64:	4640      	mov	r0, r8
 8006b66:	4649      	mov	r1, r9
 8006b68:	f7f9 ffe0 	bl	8000b2c <__aeabi_dcmpun>
 8006b6c:	b110      	cbz	r0, 8006b74 <_printf_float+0xd8>
 8006b6e:	4a8c      	ldr	r2, [pc, #560]	; (8006da0 <_printf_float+0x304>)
 8006b70:	4b8c      	ldr	r3, [pc, #560]	; (8006da4 <_printf_float+0x308>)
 8006b72:	e7da      	b.n	8006b2a <_printf_float+0x8e>
 8006b74:	6861      	ldr	r1, [r4, #4]
 8006b76:	1c4b      	adds	r3, r1, #1
 8006b78:	f44b 6280 	orr.w	r2, fp, #1024	; 0x400
 8006b7c:	a80a      	add	r0, sp, #40	; 0x28
 8006b7e:	d13e      	bne.n	8006bfe <_printf_float+0x162>
 8006b80:	2306      	movs	r3, #6
 8006b82:	6063      	str	r3, [r4, #4]
 8006b84:	2300      	movs	r3, #0
 8006b86:	e9cd 0302 	strd	r0, r3, [sp, #8]
 8006b8a:	ab09      	add	r3, sp, #36	; 0x24
 8006b8c:	9300      	str	r3, [sp, #0]
 8006b8e:	ec49 8b10 	vmov	d0, r8, r9
 8006b92:	f10d 0323 	add.w	r3, sp, #35	; 0x23
 8006b96:	6022      	str	r2, [r4, #0]
 8006b98:	f8cd a004 	str.w	sl, [sp, #4]
 8006b9c:	6861      	ldr	r1, [r4, #4]
 8006b9e:	4628      	mov	r0, r5
 8006ba0:	f7ff fee8 	bl	8006974 <__cvt>
 8006ba4:	f00a 03df 	and.w	r3, sl, #223	; 0xdf
 8006ba8:	2b47      	cmp	r3, #71	; 0x47
 8006baa:	4680      	mov	r8, r0
 8006bac:	d109      	bne.n	8006bc2 <_printf_float+0x126>
 8006bae:	9b09      	ldr	r3, [sp, #36]	; 0x24
 8006bb0:	1cd8      	adds	r0, r3, #3
 8006bb2:	db02      	blt.n	8006bba <_printf_float+0x11e>
 8006bb4:	6862      	ldr	r2, [r4, #4]
 8006bb6:	4293      	cmp	r3, r2
 8006bb8:	dd47      	ble.n	8006c4a <_printf_float+0x1ae>
 8006bba:	f1aa 0a02 	sub.w	sl, sl, #2
 8006bbe:	fa5f fa8a 	uxtb.w	sl, sl
 8006bc2:	f1ba 0f65 	cmp.w	sl, #101	; 0x65
 8006bc6:	9909      	ldr	r1, [sp, #36]	; 0x24
 8006bc8:	d824      	bhi.n	8006c14 <_printf_float+0x178>
 8006bca:	3901      	subs	r1, #1
 8006bcc:	4652      	mov	r2, sl
 8006bce:	f104 0050 	add.w	r0, r4, #80	; 0x50
 8006bd2:	9109      	str	r1, [sp, #36]	; 0x24
 8006bd4:	f7ff ff2f 	bl	8006a36 <__exponent>
 8006bd8:	9a0a      	ldr	r2, [sp, #40]	; 0x28
 8006bda:	1813      	adds	r3, r2, r0
 8006bdc:	2a01      	cmp	r2, #1
 8006bde:	4681      	mov	r9, r0
 8006be0:	6123      	str	r3, [r4, #16]
 8006be2:	dc02      	bgt.n	8006bea <_printf_float+0x14e>
 8006be4:	6822      	ldr	r2, [r4, #0]
 8006be6:	07d1      	lsls	r1, r2, #31
 8006be8:	d501      	bpl.n	8006bee <_printf_float+0x152>
 8006bea:	3301      	adds	r3, #1
 8006bec:	6123      	str	r3, [r4, #16]
 8006bee:	f89d 3023 	ldrb.w	r3, [sp, #35]	; 0x23
 8006bf2:	2b00      	cmp	r3, #0
 8006bf4:	d0a5      	beq.n	8006b42 <_printf_float+0xa6>
 8006bf6:	232d      	movs	r3, #45	; 0x2d
 8006bf8:	f884 3043 	strb.w	r3, [r4, #67]	; 0x43
 8006bfc:	e7a1      	b.n	8006b42 <_printf_float+0xa6>
 8006bfe:	f1ba 0f67 	cmp.w	sl, #103	; 0x67
 8006c02:	f000 8177 	beq.w	8006ef4 <_printf_float+0x458>
 8006c06:	f1ba 0f47 	cmp.w	sl, #71	; 0x47
 8006c0a:	d1bb      	bne.n	8006b84 <_printf_float+0xe8>
 8006c0c:	2900      	cmp	r1, #0
 8006c0e:	d1b9      	bne.n	8006b84 <_printf_float+0xe8>
 8006c10:	2301      	movs	r3, #1
 8006c12:	e7b6      	b.n	8006b82 <_printf_float+0xe6>
 8006c14:	f1ba 0f66 	cmp.w	sl, #102	; 0x66
 8006c18:	d119      	bne.n	8006c4e <_printf_float+0x1b2>
 8006c1a:	2900      	cmp	r1, #0
 8006c1c:	6863      	ldr	r3, [r4, #4]
 8006c1e:	dd0c      	ble.n	8006c3a <_printf_float+0x19e>
 8006c20:	6121      	str	r1, [r4, #16]
 8006c22:	b913      	cbnz	r3, 8006c2a <_printf_float+0x18e>
 8006c24:	6822      	ldr	r2, [r4, #0]
 8006c26:	07d2      	lsls	r2, r2, #31
 8006c28:	d502      	bpl.n	8006c30 <_printf_float+0x194>
 8006c2a:	3301      	adds	r3, #1
 8006c2c:	440b      	add	r3, r1
 8006c2e:	6123      	str	r3, [r4, #16]
 8006c30:	9b09      	ldr	r3, [sp, #36]	; 0x24
 8006c32:	65a3      	str	r3, [r4, #88]	; 0x58
 8006c34:	f04f 0900 	mov.w	r9, #0
 8006c38:	e7d9      	b.n	8006bee <_printf_float+0x152>
 8006c3a:	b913      	cbnz	r3, 8006c42 <_printf_float+0x1a6>
 8006c3c:	6822      	ldr	r2, [r4, #0]
 8006c3e:	07d0      	lsls	r0, r2, #31
 8006c40:	d501      	bpl.n	8006c46 <_printf_float+0x1aa>
 8006c42:	3302      	adds	r3, #2
 8006c44:	e7f3      	b.n	8006c2e <_printf_float+0x192>
 8006c46:	2301      	movs	r3, #1
 8006c48:	e7f1      	b.n	8006c2e <_printf_float+0x192>
 8006c4a:	f04f 0a67 	mov.w	sl, #103	; 0x67
 8006c4e:	e9dd 3209 	ldrd	r3, r2, [sp, #36]	; 0x24
 8006c52:	4293      	cmp	r3, r2
 8006c54:	db05      	blt.n	8006c62 <_printf_float+0x1c6>
 8006c56:	6822      	ldr	r2, [r4, #0]
 8006c58:	6123      	str	r3, [r4, #16]
 8006c5a:	07d1      	lsls	r1, r2, #31
 8006c5c:	d5e8      	bpl.n	8006c30 <_printf_float+0x194>
 8006c5e:	3301      	adds	r3, #1
 8006c60:	e7e5      	b.n	8006c2e <_printf_float+0x192>
 8006c62:	2b00      	cmp	r3, #0
 8006c64:	bfd4      	ite	le
 8006c66:	f1c3 0302 	rsble	r3, r3, #2
 8006c6a:	2301      	movgt	r3, #1
 8006c6c:	4413      	add	r3, r2
 8006c6e:	e7de      	b.n	8006c2e <_printf_float+0x192>
 8006c70:	6823      	ldr	r3, [r4, #0]
 8006c72:	055a      	lsls	r2, r3, #21
 8006c74:	d407      	bmi.n	8006c86 <_printf_float+0x1ea>
 8006c76:	6923      	ldr	r3, [r4, #16]
 8006c78:	4642      	mov	r2, r8
 8006c7a:	4631      	mov	r1, r6
 8006c7c:	4628      	mov	r0, r5
 8006c7e:	47b8      	blx	r7
 8006c80:	3001      	adds	r0, #1
 8006c82:	d12b      	bne.n	8006cdc <_printf_float+0x240>
 8006c84:	e767      	b.n	8006b56 <_printf_float+0xba>
 8006c86:	f1ba 0f65 	cmp.w	sl, #101	; 0x65
 8006c8a:	f240 80dc 	bls.w	8006e46 <_printf_float+0x3aa>
 8006c8e:	2200      	movs	r2, #0
 8006c90:	2300      	movs	r3, #0
 8006c92:	e9d4 0112 	ldrd	r0, r1, [r4, #72]	; 0x48
 8006c96:	f7f9 ff17 	bl	8000ac8 <__aeabi_dcmpeq>
 8006c9a:	2800      	cmp	r0, #0
 8006c9c:	d033      	beq.n	8006d06 <_printf_float+0x26a>
 8006c9e:	2301      	movs	r3, #1
 8006ca0:	4a41      	ldr	r2, [pc, #260]	; (8006da8 <_printf_float+0x30c>)
 8006ca2:	4631      	mov	r1, r6
 8006ca4:	4628      	mov	r0, r5
 8006ca6:	47b8      	blx	r7
 8006ca8:	3001      	adds	r0, #1
 8006caa:	f43f af54 	beq.w	8006b56 <_printf_float+0xba>
 8006cae:	e9dd 2309 	ldrd	r2, r3, [sp, #36]	; 0x24
 8006cb2:	429a      	cmp	r2, r3
 8006cb4:	db02      	blt.n	8006cbc <_printf_float+0x220>
 8006cb6:	6823      	ldr	r3, [r4, #0]
 8006cb8:	07d8      	lsls	r0, r3, #31
 8006cba:	d50f      	bpl.n	8006cdc <_printf_float+0x240>
 8006cbc:	e9dd 2304 	ldrd	r2, r3, [sp, #16]
 8006cc0:	4631      	mov	r1, r6
 8006cc2:	4628      	mov	r0, r5
 8006cc4:	47b8      	blx	r7
 8006cc6:	3001      	adds	r0, #1
 8006cc8:	f43f af45 	beq.w	8006b56 <_printf_float+0xba>
 8006ccc:	f04f 0800 	mov.w	r8, #0
 8006cd0:	f104 091a 	add.w	r9, r4, #26
 8006cd4:	9b0a      	ldr	r3, [sp, #40]	; 0x28
 8006cd6:	3b01      	subs	r3, #1
 8006cd8:	4543      	cmp	r3, r8
 8006cda:	dc09      	bgt.n	8006cf0 <_printf_float+0x254>
 8006cdc:	6823      	ldr	r3, [r4, #0]
 8006cde:	079b      	lsls	r3, r3, #30
 8006ce0:	f100 8103 	bmi.w	8006eea <_printf_float+0x44e>
 8006ce4:	68e0      	ldr	r0, [r4, #12]
 8006ce6:	9b0b      	ldr	r3, [sp, #44]	; 0x2c
 8006ce8:	4298      	cmp	r0, r3
 8006cea:	bfb8      	it	lt
 8006cec:	4618      	movlt	r0, r3
 8006cee:	e734      	b.n	8006b5a <_printf_float+0xbe>
 8006cf0:	2301      	movs	r3, #1
 8006cf2:	464a      	mov	r2, r9
 8006cf4:	4631      	mov	r1, r6
 8006cf6:	4628      	mov	r0, r5
 8006cf8:	47b8      	blx	r7
 8006cfa:	3001      	adds	r0, #1
 8006cfc:	f43f af2b 	beq.w	8006b56 <_printf_float+0xba>
 8006d00:	f108 0801 	add.w	r8, r8, #1
 8006d04:	e7e6      	b.n	8006cd4 <_printf_float+0x238>
 8006d06:	9b09      	ldr	r3, [sp, #36]	; 0x24
 8006d08:	2b00      	cmp	r3, #0
 8006d0a:	dc2b      	bgt.n	8006d64 <_printf_float+0x2c8>
 8006d0c:	2301      	movs	r3, #1
 8006d0e:	4a26      	ldr	r2, [pc, #152]	; (8006da8 <_printf_float+0x30c>)
 8006d10:	4631      	mov	r1, r6
 8006d12:	4628      	mov	r0, r5
 8006d14:	47b8      	blx	r7
 8006d16:	3001      	adds	r0, #1
 8006d18:	f43f af1d 	beq.w	8006b56 <_printf_float+0xba>
 8006d1c:	9b09      	ldr	r3, [sp, #36]	; 0x24
 8006d1e:	b923      	cbnz	r3, 8006d2a <_printf_float+0x28e>
 8006d20:	9b0a      	ldr	r3, [sp, #40]	; 0x28
 8006d22:	b913      	cbnz	r3, 8006d2a <_printf_float+0x28e>
 8006d24:	6823      	ldr	r3, [r4, #0]
 8006d26:	07d9      	lsls	r1, r3, #31
 8006d28:	d5d8      	bpl.n	8006cdc <_printf_float+0x240>
 8006d2a:	e9dd 2304 	ldrd	r2, r3, [sp, #16]
 8006d2e:	4631      	mov	r1, r6
 8006d30:	4628      	mov	r0, r5
 8006d32:	47b8      	blx	r7
 8006d34:	3001      	adds	r0, #1
 8006d36:	f43f af0e 	beq.w	8006b56 <_printf_float+0xba>
 8006d3a:	f04f 0900 	mov.w	r9, #0
 8006d3e:	f104 0a1a 	add.w	sl, r4, #26
 8006d42:	9b09      	ldr	r3, [sp, #36]	; 0x24
 8006d44:	425b      	negs	r3, r3
 8006d46:	454b      	cmp	r3, r9
 8006d48:	dc01      	bgt.n	8006d4e <_printf_float+0x2b2>
 8006d4a:	9b0a      	ldr	r3, [sp, #40]	; 0x28
 8006d4c:	e794      	b.n	8006c78 <_printf_float+0x1dc>
 8006d4e:	2301      	movs	r3, #1
 8006d50:	4652      	mov	r2, sl
 8006d52:	4631      	mov	r1, r6
 8006d54:	4628      	mov	r0, r5
 8006d56:	47b8      	blx	r7
 8006d58:	3001      	adds	r0, #1
 8006d5a:	f43f aefc 	beq.w	8006b56 <_printf_float+0xba>
 8006d5e:	f109 0901 	add.w	r9, r9, #1
 8006d62:	e7ee      	b.n	8006d42 <_printf_float+0x2a6>
 8006d64:	9a0a      	ldr	r2, [sp, #40]	; 0x28
 8006d66:	6da3      	ldr	r3, [r4, #88]	; 0x58
 8006d68:	429a      	cmp	r2, r3
 8006d6a:	bfa8      	it	ge
 8006d6c:	461a      	movge	r2, r3
 8006d6e:	2a00      	cmp	r2, #0
 8006d70:	4691      	mov	r9, r2
 8006d72:	dd07      	ble.n	8006d84 <_printf_float+0x2e8>
 8006d74:	4613      	mov	r3, r2
 8006d76:	4631      	mov	r1, r6
 8006d78:	4642      	mov	r2, r8
 8006d7a:	4628      	mov	r0, r5
 8006d7c:	47b8      	blx	r7
 8006d7e:	3001      	adds	r0, #1
 8006d80:	f43f aee9 	beq.w	8006b56 <_printf_float+0xba>
 8006d84:	f104 031a 	add.w	r3, r4, #26
 8006d88:	f04f 0b00 	mov.w	fp, #0
 8006d8c:	ea29 79e9 	bic.w	r9, r9, r9, asr #31
 8006d90:	9306      	str	r3, [sp, #24]
 8006d92:	e015      	b.n	8006dc0 <_printf_float+0x324>
 8006d94:	7fefffff 	.word	0x7fefffff
 8006d98:	0800b3a0 	.word	0x0800b3a0
 8006d9c:	0800b39c 	.word	0x0800b39c
 8006da0:	0800b3a8 	.word	0x0800b3a8
 8006da4:	0800b3a4 	.word	0x0800b3a4
 8006da8:	0800b3ac 	.word	0x0800b3ac
 8006dac:	2301      	movs	r3, #1
 8006dae:	9a06      	ldr	r2, [sp, #24]
 8006db0:	4631      	mov	r1, r6
 8006db2:	4628      	mov	r0, r5
 8006db4:	47b8      	blx	r7
 8006db6:	3001      	adds	r0, #1
 8006db8:	f43f aecd 	beq.w	8006b56 <_printf_float+0xba>
 8006dbc:	f10b 0b01 	add.w	fp, fp, #1
 8006dc0:	f8d4 a058 	ldr.w	sl, [r4, #88]	; 0x58
 8006dc4:	ebaa 0309 	sub.w	r3, sl, r9
 8006dc8:	455b      	cmp	r3, fp
 8006dca:	dcef      	bgt.n	8006dac <_printf_float+0x310>
 8006dcc:	e9dd 2309 	ldrd	r2, r3, [sp, #36]	; 0x24
 8006dd0:	429a      	cmp	r2, r3
 8006dd2:	44d0      	add	r8, sl
 8006dd4:	db15      	blt.n	8006e02 <_printf_float+0x366>
 8006dd6:	6823      	ldr	r3, [r4, #0]
 8006dd8:	07da      	lsls	r2, r3, #31
 8006dda:	d412      	bmi.n	8006e02 <_printf_float+0x366>
 8006ddc:	9b0a      	ldr	r3, [sp, #40]	; 0x28
 8006dde:	9909      	ldr	r1, [sp, #36]	; 0x24
 8006de0:	eba3 020a 	sub.w	r2, r3, sl
 8006de4:	eba3 0a01 	sub.w	sl, r3, r1
 8006de8:	4592      	cmp	sl, r2
 8006dea:	bfa8      	it	ge
 8006dec:	4692      	movge	sl, r2
 8006dee:	f1ba 0f00 	cmp.w	sl, #0
 8006df2:	dc0e      	bgt.n	8006e12 <_printf_float+0x376>
 8006df4:	f04f 0800 	mov.w	r8, #0
 8006df8:	ea2a 7aea 	bic.w	sl, sl, sl, asr #31
 8006dfc:	f104 091a 	add.w	r9, r4, #26
 8006e00:	e019      	b.n	8006e36 <_printf_float+0x39a>
 8006e02:	e9dd 2304 	ldrd	r2, r3, [sp, #16]
 8006e06:	4631      	mov	r1, r6
 8006e08:	4628      	mov	r0, r5
 8006e0a:	47b8      	blx	r7
 8006e0c:	3001      	adds	r0, #1
 8006e0e:	d1e5      	bne.n	8006ddc <_printf_float+0x340>
 8006e10:	e6a1      	b.n	8006b56 <_printf_float+0xba>
 8006e12:	4653      	mov	r3, sl
 8006e14:	4642      	mov	r2, r8
 8006e16:	4631      	mov	r1, r6
 8006e18:	4628      	mov	r0, r5
 8006e1a:	47b8      	blx	r7
 8006e1c:	3001      	adds	r0, #1
 8006e1e:	d1e9      	bne.n	8006df4 <_printf_float+0x358>
 8006e20:	e699      	b.n	8006b56 <_printf_float+0xba>
 8006e22:	2301      	movs	r3, #1
 8006e24:	464a      	mov	r2, r9
 8006e26:	4631      	mov	r1, r6
 8006e28:	4628      	mov	r0, r5
 8006e2a:	47b8      	blx	r7
 8006e2c:	3001      	adds	r0, #1
 8006e2e:	f43f ae92 	beq.w	8006b56 <_printf_float+0xba>
 8006e32:	f108 0801 	add.w	r8, r8, #1
 8006e36:	e9dd 2309 	ldrd	r2, r3, [sp, #36]	; 0x24
 8006e3a:	1a9b      	subs	r3, r3, r2
 8006e3c:	eba3 030a 	sub.w	r3, r3, sl
 8006e40:	4543      	cmp	r3, r8
 8006e42:	dcee      	bgt.n	8006e22 <_printf_float+0x386>
 8006e44:	e74a      	b.n	8006cdc <_printf_float+0x240>
 8006e46:	9a0a      	ldr	r2, [sp, #40]	; 0x28
 8006e48:	2a01      	cmp	r2, #1
 8006e4a:	dc01      	bgt.n	8006e50 <_printf_float+0x3b4>
 8006e4c:	07db      	lsls	r3, r3, #31
 8006e4e:	d53a      	bpl.n	8006ec6 <_printf_float+0x42a>
 8006e50:	2301      	movs	r3, #1
 8006e52:	4642      	mov	r2, r8
 8006e54:	4631      	mov	r1, r6
 8006e56:	4628      	mov	r0, r5
 8006e58:	47b8      	blx	r7
 8006e5a:	3001      	adds	r0, #1
 8006e5c:	f43f ae7b 	beq.w	8006b56 <_printf_float+0xba>
 8006e60:	e9dd 2304 	ldrd	r2, r3, [sp, #16]
 8006e64:	4631      	mov	r1, r6
 8006e66:	4628      	mov	r0, r5
 8006e68:	47b8      	blx	r7
 8006e6a:	3001      	adds	r0, #1
 8006e6c:	f108 0801 	add.w	r8, r8, #1
 8006e70:	f43f ae71 	beq.w	8006b56 <_printf_float+0xba>
 8006e74:	9b0a      	ldr	r3, [sp, #40]	; 0x28
 8006e76:	2200      	movs	r2, #0
 8006e78:	f103 3aff 	add.w	sl, r3, #4294967295
 8006e7c:	e9d4 0112 	ldrd	r0, r1, [r4, #72]	; 0x48
 8006e80:	2300      	movs	r3, #0
 8006e82:	f7f9 fe21 	bl	8000ac8 <__aeabi_dcmpeq>
 8006e86:	b9c8      	cbnz	r0, 8006ebc <_printf_float+0x420>
 8006e88:	4653      	mov	r3, sl
 8006e8a:	4642      	mov	r2, r8
 8006e8c:	4631      	mov	r1, r6
 8006e8e:	4628      	mov	r0, r5
 8006e90:	47b8      	blx	r7
 8006e92:	3001      	adds	r0, #1
 8006e94:	d10e      	bne.n	8006eb4 <_printf_float+0x418>
 8006e96:	e65e      	b.n	8006b56 <_printf_float+0xba>
 8006e98:	2301      	movs	r3, #1
 8006e9a:	4652      	mov	r2, sl
 8006e9c:	4631      	mov	r1, r6
 8006e9e:	4628      	mov	r0, r5
 8006ea0:	47b8      	blx	r7
 8006ea2:	3001      	adds	r0, #1
 8006ea4:	f43f ae57 	beq.w	8006b56 <_printf_float+0xba>
 8006ea8:	f108 0801 	add.w	r8, r8, #1
 8006eac:	9b0a      	ldr	r3, [sp, #40]	; 0x28
 8006eae:	3b01      	subs	r3, #1
 8006eb0:	4543      	cmp	r3, r8
 8006eb2:	dcf1      	bgt.n	8006e98 <_printf_float+0x3fc>
 8006eb4:	464b      	mov	r3, r9
 8006eb6:	f104 0250 	add.w	r2, r4, #80	; 0x50
 8006eba:	e6de      	b.n	8006c7a <_printf_float+0x1de>
 8006ebc:	f04f 0800 	mov.w	r8, #0
 8006ec0:	f104 0a1a 	add.w	sl, r4, #26
 8006ec4:	e7f2      	b.n	8006eac <_printf_float+0x410>
 8006ec6:	2301      	movs	r3, #1
 8006ec8:	e7df      	b.n	8006e8a <_printf_float+0x3ee>
 8006eca:	2301      	movs	r3, #1
 8006ecc:	464a      	mov	r2, r9
 8006ece:	4631      	mov	r1, r6
 8006ed0:	4628      	mov	r0, r5
 8006ed2:	47b8      	blx	r7
 8006ed4:	3001      	adds	r0, #1
 8006ed6:	f43f ae3e 	beq.w	8006b56 <_printf_float+0xba>
 8006eda:	f108 0801 	add.w	r8, r8, #1
 8006ede:	68e3      	ldr	r3, [r4, #12]
 8006ee0:	9a0b      	ldr	r2, [sp, #44]	; 0x2c
 8006ee2:	1a9b      	subs	r3, r3, r2
 8006ee4:	4543      	cmp	r3, r8
 8006ee6:	dcf0      	bgt.n	8006eca <_printf_float+0x42e>
 8006ee8:	e6fc      	b.n	8006ce4 <_printf_float+0x248>
 8006eea:	f04f 0800 	mov.w	r8, #0
 8006eee:	f104 0919 	add.w	r9, r4, #25
 8006ef2:	e7f4      	b.n	8006ede <_printf_float+0x442>
 8006ef4:	2900      	cmp	r1, #0
 8006ef6:	f43f ae8b 	beq.w	8006c10 <_printf_float+0x174>
 8006efa:	2300      	movs	r3, #0
 8006efc:	e9cd 0302 	strd	r0, r3, [sp, #8]
 8006f00:	ab09      	add	r3, sp, #36	; 0x24
 8006f02:	9300      	str	r3, [sp, #0]
 8006f04:	ec49 8b10 	vmov	d0, r8, r9
 8006f08:	6022      	str	r2, [r4, #0]
 8006f0a:	f8cd a004 	str.w	sl, [sp, #4]
 8006f0e:	f10d 0323 	add.w	r3, sp, #35	; 0x23
 8006f12:	4628      	mov	r0, r5
 8006f14:	f7ff fd2e 	bl	8006974 <__cvt>
 8006f18:	4680      	mov	r8, r0
 8006f1a:	e648      	b.n	8006bae <_printf_float+0x112>

08006f1c <_printf_common>:
 8006f1c:	e92d 47f0 	stmdb	sp!, {r4, r5, r6, r7, r8, r9, sl, lr}
 8006f20:	4691      	mov	r9, r2
 8006f22:	461f      	mov	r7, r3
 8006f24:	688a      	ldr	r2, [r1, #8]
 8006f26:	690b      	ldr	r3, [r1, #16]
 8006f28:	f8dd 8020 	ldr.w	r8, [sp, #32]
 8006f2c:	4293      	cmp	r3, r2
 8006f2e:	bfb8      	it	lt
 8006f30:	4613      	movlt	r3, r2
 8006f32:	f8c9 3000 	str.w	r3, [r9]
 8006f36:	f891 2043 	ldrb.w	r2, [r1, #67]	; 0x43
 8006f3a:	4606      	mov	r6, r0
 8006f3c:	460c      	mov	r4, r1
 8006f3e:	b112      	cbz	r2, 8006f46 <_printf_common+0x2a>
 8006f40:	3301      	adds	r3, #1
 8006f42:	f8c9 3000 	str.w	r3, [r9]
 8006f46:	6823      	ldr	r3, [r4, #0]
 8006f48:	0699      	lsls	r1, r3, #26
 8006f4a:	bf42      	ittt	mi
 8006f4c:	f8d9 3000 	ldrmi.w	r3, [r9]
 8006f50:	3302      	addmi	r3, #2
 8006f52:	f8c9 3000 	strmi.w	r3, [r9]
 8006f56:	6825      	ldr	r5, [r4, #0]
 8006f58:	f015 0506 	ands.w	r5, r5, #6
 8006f5c:	d107      	bne.n	8006f6e <_printf_common+0x52>
 8006f5e:	f104 0a19 	add.w	sl, r4, #25
 8006f62:	68e3      	ldr	r3, [r4, #12]
 8006f64:	f8d9 2000 	ldr.w	r2, [r9]
 8006f68:	1a9b      	subs	r3, r3, r2
 8006f6a:	42ab      	cmp	r3, r5
 8006f6c:	dc28      	bgt.n	8006fc0 <_printf_common+0xa4>
 8006f6e:	f894 3043 	ldrb.w	r3, [r4, #67]	; 0x43
 8006f72:	6822      	ldr	r2, [r4, #0]
 8006f74:	3300      	adds	r3, #0
 8006f76:	bf18      	it	ne
 8006f78:	2301      	movne	r3, #1
 8006f7a:	0692      	lsls	r2, r2, #26
 8006f7c:	d42d      	bmi.n	8006fda <_printf_common+0xbe>
 8006f7e:	f104 0243 	add.w	r2, r4, #67	; 0x43
 8006f82:	4639      	mov	r1, r7
 8006f84:	4630      	mov	r0, r6
 8006f86:	47c0      	blx	r8
 8006f88:	3001      	adds	r0, #1
 8006f8a:	d020      	beq.n	8006fce <_printf_common+0xb2>
 8006f8c:	6823      	ldr	r3, [r4, #0]
 8006f8e:	68e5      	ldr	r5, [r4, #12]
 8006f90:	f8d9 2000 	ldr.w	r2, [r9]
 8006f94:	f003 0306 	and.w	r3, r3, #6
 8006f98:	2b04      	cmp	r3, #4
 8006f9a:	bf08      	it	eq
 8006f9c:	1aad      	subeq	r5, r5, r2
 8006f9e:	68a3      	ldr	r3, [r4, #8]
 8006fa0:	6922      	ldr	r2, [r4, #16]
 8006fa2:	bf0c      	ite	eq
 8006fa4:	ea25 75e5 	biceq.w	r5, r5, r5, asr #31
 8006fa8:	2500      	movne	r5, #0
 8006faa:	4293      	cmp	r3, r2
 8006fac:	bfc4      	itt	gt
 8006fae:	1a9b      	subgt	r3, r3, r2
 8006fb0:	18ed      	addgt	r5, r5, r3
 8006fb2:	f04f 0900 	mov.w	r9, #0
 8006fb6:	341a      	adds	r4, #26
 8006fb8:	454d      	cmp	r5, r9
 8006fba:	d11a      	bne.n	8006ff2 <_printf_common+0xd6>
 8006fbc:	2000      	movs	r0, #0
 8006fbe:	e008      	b.n	8006fd2 <_printf_common+0xb6>
 8006fc0:	2301      	movs	r3, #1
 8006fc2:	4652      	mov	r2, sl
 8006fc4:	4639      	mov	r1, r7
 8006fc6:	4630      	mov	r0, r6
 8006fc8:	47c0      	blx	r8
 8006fca:	3001      	adds	r0, #1
 8006fcc:	d103      	bne.n	8006fd6 <_printf_common+0xba>
 8006fce:	f04f 30ff 	mov.w	r0, #4294967295
 8006fd2:	e8bd 87f0 	ldmia.w	sp!, {r4, r5, r6, r7, r8, r9, sl, pc}
 8006fd6:	3501      	adds	r5, #1
 8006fd8:	e7c3      	b.n	8006f62 <_printf_common+0x46>
 8006fda:	18e1      	adds	r1, r4, r3
 8006fdc:	1c5a      	adds	r2, r3, #1
 8006fde:	2030      	movs	r0, #48	; 0x30
 8006fe0:	f881 0043 	strb.w	r0, [r1, #67]	; 0x43
 8006fe4:	4422      	add	r2, r4
 8006fe6:	f894 1045 	ldrb.w	r1, [r4, #69]	; 0x45
 8006fea:	f882 1043 	strb.w	r1, [r2, #67]	; 0x43
 8006fee:	3302      	adds	r3, #2
 8006ff0:	e7c5      	b.n	8006f7e <_printf_common+0x62>
 8006ff2:	2301      	movs	r3, #1
 8006ff4:	4622      	mov	r2, r4
 8006ff6:	4639      	mov	r1, r7
 8006ff8:	4630      	mov	r0, r6
 8006ffa:	47c0      	blx	r8
 8006ffc:	3001      	adds	r0, #1
 8006ffe:	d0e6      	beq.n	8006fce <_printf_common+0xb2>
 8007000:	f109 0901 	add.w	r9, r9, #1
 8007004:	e7d8      	b.n	8006fb8 <_printf_common+0x9c>
	...

08007008 <_printf_i>:
 8007008:	e92d 43f0 	stmdb	sp!, {r4, r5, r6, r7, r8, r9, lr}
 800700c:	f101 0c43 	add.w	ip, r1, #67	; 0x43
 8007010:	460c      	mov	r4, r1
 8007012:	7e09      	ldrb	r1, [r1, #24]
 8007014:	b085      	sub	sp, #20
 8007016:	296e      	cmp	r1, #110	; 0x6e
 8007018:	4617      	mov	r7, r2
 800701a:	4606      	mov	r6, r0
 800701c:	4698      	mov	r8, r3
 800701e:	9a0c      	ldr	r2, [sp, #48]	; 0x30
 8007020:	f000 80b3 	beq.w	800718a <_printf_i+0x182>
 8007024:	d822      	bhi.n	800706c <_printf_i+0x64>
 8007026:	2963      	cmp	r1, #99	; 0x63
 8007028:	d036      	beq.n	8007098 <_printf_i+0x90>
 800702a:	d80a      	bhi.n	8007042 <_printf_i+0x3a>
 800702c:	2900      	cmp	r1, #0
 800702e:	f000 80b9 	beq.w	80071a4 <_printf_i+0x19c>
 8007032:	2958      	cmp	r1, #88	; 0x58
 8007034:	f000 8083 	beq.w	800713e <_printf_i+0x136>
 8007038:	f104 0542 	add.w	r5, r4, #66	; 0x42
 800703c:	f884 1042 	strb.w	r1, [r4, #66]	; 0x42
 8007040:	e032      	b.n	80070a8 <_printf_i+0xa0>
 8007042:	2964      	cmp	r1, #100	; 0x64
 8007044:	d001      	beq.n	800704a <_printf_i+0x42>
 8007046:	2969      	cmp	r1, #105	; 0x69
 8007048:	d1f6      	bne.n	8007038 <_printf_i+0x30>
 800704a:	6820      	ldr	r0, [r4, #0]
 800704c:	6813      	ldr	r3, [r2, #0]
 800704e:	0605      	lsls	r5, r0, #24
 8007050:	f103 0104 	add.w	r1, r3, #4
 8007054:	d52a      	bpl.n	80070ac <_printf_i+0xa4>
 8007056:	681b      	ldr	r3, [r3, #0]
 8007058:	6011      	str	r1, [r2, #0]
 800705a:	2b00      	cmp	r3, #0
 800705c:	da03      	bge.n	8007066 <_printf_i+0x5e>
 800705e:	222d      	movs	r2, #45	; 0x2d
 8007060:	425b      	negs	r3, r3
 8007062:	f884 2043 	strb.w	r2, [r4, #67]	; 0x43
 8007066:	486f      	ldr	r0, [pc, #444]	; (8007224 <_printf_i+0x21c>)
 8007068:	220a      	movs	r2, #10
 800706a:	e039      	b.n	80070e0 <_printf_i+0xd8>
 800706c:	2973      	cmp	r1, #115	; 0x73
 800706e:	f000 809d 	beq.w	80071ac <_printf_i+0x1a4>
 8007072:	d808      	bhi.n	8007086 <_printf_i+0x7e>
 8007074:	296f      	cmp	r1, #111	; 0x6f
 8007076:	d020      	beq.n	80070ba <_printf_i+0xb2>
 8007078:	2970      	cmp	r1, #112	; 0x70
 800707a:	d1dd      	bne.n	8007038 <_printf_i+0x30>
 800707c:	6823      	ldr	r3, [r4, #0]
 800707e:	f043 0320 	orr.w	r3, r3, #32
 8007082:	6023      	str	r3, [r4, #0]
 8007084:	e003      	b.n	800708e <_printf_i+0x86>
 8007086:	2975      	cmp	r1, #117	; 0x75
 8007088:	d017      	beq.n	80070ba <_printf_i+0xb2>
 800708a:	2978      	cmp	r1, #120	; 0x78
 800708c:	d1d4      	bne.n	8007038 <_printf_i+0x30>
 800708e:	2378      	movs	r3, #120	; 0x78
 8007090:	f884 3045 	strb.w	r3, [r4, #69]	; 0x45
 8007094:	4864      	ldr	r0, [pc, #400]	; (8007228 <_printf_i+0x220>)
 8007096:	e055      	b.n	8007144 <_printf_i+0x13c>
 8007098:	6813      	ldr	r3, [r2, #0]
 800709a:	1d19      	adds	r1, r3, #4
 800709c:	681b      	ldr	r3, [r3, #0]
 800709e:	6011      	str	r1, [r2, #0]
 80070a0:	f104 0542 	add.w	r5, r4, #66	; 0x42
 80070a4:	f884 3042 	strb.w	r3, [r4, #66]	; 0x42
 80070a8:	2301      	movs	r3, #1
 80070aa:	e08c      	b.n	80071c6 <_printf_i+0x1be>
 80070ac:	681b      	ldr	r3, [r3, #0]
 80070ae:	6011      	str	r1, [r2, #0]
 80070b0:	f010 0f40 	tst.w	r0, #64	; 0x40
 80070b4:	bf18      	it	ne
 80070b6:	b21b      	sxthne	r3, r3
 80070b8:	e7cf      	b.n	800705a <_printf_i+0x52>
 80070ba:	6813      	ldr	r3, [r2, #0]
 80070bc:	6825      	ldr	r5, [r4, #0]
 80070be:	1d18      	adds	r0, r3, #4
 80070c0:	6010      	str	r0, [r2, #0]
 80070c2:	0628      	lsls	r0, r5, #24
 80070c4:	d501      	bpl.n	80070ca <_printf_i+0xc2>
 80070c6:	681b      	ldr	r3, [r3, #0]
 80070c8:	e002      	b.n	80070d0 <_printf_i+0xc8>
 80070ca:	0668      	lsls	r0, r5, #25
 80070cc:	d5fb      	bpl.n	80070c6 <_printf_i+0xbe>
 80070ce:	881b      	ldrh	r3, [r3, #0]
 80070d0:	4854      	ldr	r0, [pc, #336]	; (8007224 <_printf_i+0x21c>)
 80070d2:	296f      	cmp	r1, #111	; 0x6f
 80070d4:	bf14      	ite	ne
 80070d6:	220a      	movne	r2, #10
 80070d8:	2208      	moveq	r2, #8
 80070da:	2100      	movs	r1, #0
 80070dc:	f884 1043 	strb.w	r1, [r4, #67]	; 0x43
 80070e0:	6865      	ldr	r5, [r4, #4]
 80070e2:	60a5      	str	r5, [r4, #8]
 80070e4:	2d00      	cmp	r5, #0
 80070e6:	f2c0 8095 	blt.w	8007214 <_printf_i+0x20c>
 80070ea:	6821      	ldr	r1, [r4, #0]
 80070ec:	f021 0104 	bic.w	r1, r1, #4
 80070f0:	6021      	str	r1, [r4, #0]
 80070f2:	2b00      	cmp	r3, #0
 80070f4:	d13d      	bne.n	8007172 <_printf_i+0x16a>
 80070f6:	2d00      	cmp	r5, #0
 80070f8:	f040 808e 	bne.w	8007218 <_printf_i+0x210>
 80070fc:	4665      	mov	r5, ip
 80070fe:	2a08      	cmp	r2, #8
 8007100:	d10b      	bne.n	800711a <_printf_i+0x112>
 8007102:	6823      	ldr	r3, [r4, #0]
 8007104:	07db      	lsls	r3, r3, #31
 8007106:	d508      	bpl.n	800711a <_printf_i+0x112>
 8007108:	6923      	ldr	r3, [r4, #16]
 800710a:	6862      	ldr	r2, [r4, #4]
 800710c:	429a      	cmp	r2, r3
 800710e:	bfde      	ittt	le
 8007110:	2330      	movle	r3, #48	; 0x30
 8007112:	f805 3c01 	strble.w	r3, [r5, #-1]
 8007116:	f105 35ff 	addle.w	r5, r5, #4294967295
 800711a:	ebac 0305 	sub.w	r3, ip, r5
 800711e:	6123      	str	r3, [r4, #16]
 8007120:	f8cd 8000 	str.w	r8, [sp]
 8007124:	463b      	mov	r3, r7
 8007126:	aa03      	add	r2, sp, #12
 8007128:	4621      	mov	r1, r4
 800712a:	4630      	mov	r0, r6
 800712c:	f7ff fef6 	bl	8006f1c <_printf_common>
 8007130:	3001      	adds	r0, #1
 8007132:	d14d      	bne.n	80071d0 <_printf_i+0x1c8>
 8007134:	f04f 30ff 	mov.w	r0, #4294967295
 8007138:	b005      	add	sp, #20
 800713a:	e8bd 83f0 	ldmia.w	sp!, {r4, r5, r6, r7, r8, r9, pc}
 800713e:	4839      	ldr	r0, [pc, #228]	; (8007224 <_printf_i+0x21c>)
 8007140:	f884 1045 	strb.w	r1, [r4, #69]	; 0x45
 8007144:	6813      	ldr	r3, [r2, #0]
 8007146:	6821      	ldr	r1, [r4, #0]
 8007148:	1d1d      	adds	r5, r3, #4
 800714a:	681b      	ldr	r3, [r3, #0]
 800714c:	6015      	str	r5, [r2, #0]
 800714e:	060a      	lsls	r2, r1, #24
 8007150:	d50b      	bpl.n	800716a <_printf_i+0x162>
 8007152:	07ca      	lsls	r2, r1, #31
 8007154:	bf44      	itt	mi
 8007156:	f041 0120 	orrmi.w	r1, r1, #32
 800715a:	6021      	strmi	r1, [r4, #0]
 800715c:	b91b      	cbnz	r3, 8007166 <_printf_i+0x15e>
 800715e:	6822      	ldr	r2, [r4, #0]
 8007160:	f022 0220 	bic.w	r2, r2, #32
 8007164:	6022      	str	r2, [r4, #0]
 8007166:	2210      	movs	r2, #16
 8007168:	e7b7      	b.n	80070da <_printf_i+0xd2>
 800716a:	064d      	lsls	r5, r1, #25
 800716c:	bf48      	it	mi
 800716e:	b29b      	uxthmi	r3, r3
 8007170:	e7ef      	b.n	8007152 <_printf_i+0x14a>
 8007172:	4665      	mov	r5, ip
 8007174:	fbb3 f1f2 	udiv	r1, r3, r2
 8007178:	fb02 3311 	mls	r3, r2, r1, r3
 800717c:	5cc3      	ldrb	r3, [r0, r3]
 800717e:	f805 3d01 	strb.w	r3, [r5, #-1]!
 8007182:	460b      	mov	r3, r1
 8007184:	2900      	cmp	r1, #0
 8007186:	d1f5      	bne.n	8007174 <_printf_i+0x16c>
 8007188:	e7b9      	b.n	80070fe <_printf_i+0xf6>
 800718a:	6813      	ldr	r3, [r2, #0]
 800718c:	6825      	ldr	r5, [r4, #0]
 800718e:	6961      	ldr	r1, [r4, #20]
 8007190:	1d18      	adds	r0, r3, #4
 8007192:	6010      	str	r0, [r2, #0]
 8007194:	0628      	lsls	r0, r5, #24
 8007196:	681b      	ldr	r3, [r3, #0]
 8007198:	d501      	bpl.n	800719e <_printf_i+0x196>
 800719a:	6019      	str	r1, [r3, #0]
 800719c:	e002      	b.n	80071a4 <_printf_i+0x19c>
 800719e:	066a      	lsls	r2, r5, #25
 80071a0:	d5fb      	bpl.n	800719a <_printf_i+0x192>
 80071a2:	8019      	strh	r1, [r3, #0]
 80071a4:	2300      	movs	r3, #0
 80071a6:	6123      	str	r3, [r4, #16]
 80071a8:	4665      	mov	r5, ip
 80071aa:	e7b9      	b.n	8007120 <_printf_i+0x118>
 80071ac:	6813      	ldr	r3, [r2, #0]
 80071ae:	1d19      	adds	r1, r3, #4
 80071b0:	6011      	str	r1, [r2, #0]
 80071b2:	681d      	ldr	r5, [r3, #0]
 80071b4:	6862      	ldr	r2, [r4, #4]
 80071b6:	2100      	movs	r1, #0
 80071b8:	4628      	mov	r0, r5
 80071ba:	f7f9 f811 	bl	80001e0 <memchr>
 80071be:	b108      	cbz	r0, 80071c4 <_printf_i+0x1bc>
 80071c0:	1b40      	subs	r0, r0, r5
 80071c2:	6060      	str	r0, [r4, #4]
 80071c4:	6863      	ldr	r3, [r4, #4]
 80071c6:	6123      	str	r3, [r4, #16]
 80071c8:	2300      	movs	r3, #0
 80071ca:	f884 3043 	strb.w	r3, [r4, #67]	; 0x43
 80071ce:	e7a7      	b.n	8007120 <_printf_i+0x118>
 80071d0:	6923      	ldr	r3, [r4, #16]
 80071d2:	462a      	mov	r2, r5
 80071d4:	4639      	mov	r1, r7
 80071d6:	4630      	mov	r0, r6
 80071d8:	47c0      	blx	r8
 80071da:	3001      	adds	r0, #1
 80071dc:	d0aa      	beq.n	8007134 <_printf_i+0x12c>
 80071de:	6823      	ldr	r3, [r4, #0]
 80071e0:	079b      	lsls	r3, r3, #30
 80071e2:	d413      	bmi.n	800720c <_printf_i+0x204>
 80071e4:	68e0      	ldr	r0, [r4, #12]
 80071e6:	9b03      	ldr	r3, [sp, #12]
 80071e8:	4298      	cmp	r0, r3
 80071ea:	bfb8      	it	lt
 80071ec:	4618      	movlt	r0, r3
 80071ee:	e7a3      	b.n	8007138 <_printf_i+0x130>
 80071f0:	2301      	movs	r3, #1
 80071f2:	464a      	mov	r2, r9
 80071f4:	4639      	mov	r1, r7
 80071f6:	4630      	mov	r0, r6
 80071f8:	47c0      	blx	r8
 80071fa:	3001      	adds	r0, #1
 80071fc:	d09a      	beq.n	8007134 <_printf_i+0x12c>
 80071fe:	3501      	adds	r5, #1
 8007200:	68e3      	ldr	r3, [r4, #12]
 8007202:	9a03      	ldr	r2, [sp, #12]
 8007204:	1a9b      	subs	r3, r3, r2
 8007206:	42ab      	cmp	r3, r5
 8007208:	dcf2      	bgt.n	80071f0 <_printf_i+0x1e8>
 800720a:	e7eb      	b.n	80071e4 <_printf_i+0x1dc>
 800720c:	2500      	movs	r5, #0
 800720e:	f104 0919 	add.w	r9, r4, #25
 8007212:	e7f5      	b.n	8007200 <_printf_i+0x1f8>
 8007214:	2b00      	cmp	r3, #0
 8007216:	d1ac      	bne.n	8007172 <_printf_i+0x16a>
 8007218:	7803      	ldrb	r3, [r0, #0]
 800721a:	f884 3042 	strb.w	r3, [r4, #66]	; 0x42
 800721e:	f104 0542 	add.w	r5, r4, #66	; 0x42
 8007222:	e76c      	b.n	80070fe <_printf_i+0xf6>
 8007224:	0800b3ae 	.word	0x0800b3ae
 8007228:	0800b3bf 	.word	0x0800b3bf

0800722c <_sbrk_r>:
 800722c:	b538      	push	{r3, r4, r5, lr}
 800722e:	4c06      	ldr	r4, [pc, #24]	; (8007248 <_sbrk_r+0x1c>)
 8007230:	2300      	movs	r3, #0
 8007232:	4605      	mov	r5, r0
 8007234:	4608      	mov	r0, r1
 8007236:	6023      	str	r3, [r4, #0]
 8007238:	f7fa fe5c 	bl	8001ef4 <_sbrk>
 800723c:	1c43      	adds	r3, r0, #1
 800723e:	d102      	bne.n	8007246 <_sbrk_r+0x1a>
 8007240:	6823      	ldr	r3, [r4, #0]
 8007242:	b103      	cbz	r3, 8007246 <_sbrk_r+0x1a>
 8007244:	602b      	str	r3, [r5, #0]
 8007246:	bd38      	pop	{r3, r4, r5, pc}
 8007248:	20000d90 	.word	0x20000d90

0800724c <siprintf>:
 800724c:	b40e      	push	{r1, r2, r3}
 800724e:	b500      	push	{lr}
 8007250:	b09c      	sub	sp, #112	; 0x70
 8007252:	ab1d      	add	r3, sp, #116	; 0x74
 8007254:	9002      	str	r0, [sp, #8]
 8007256:	9006      	str	r0, [sp, #24]
 8007258:	f06f 4100 	mvn.w	r1, #2147483648	; 0x80000000
 800725c:	4809      	ldr	r0, [pc, #36]	; (8007284 <siprintf+0x38>)
 800725e:	9107      	str	r1, [sp, #28]
 8007260:	9104      	str	r1, [sp, #16]
 8007262:	4909      	ldr	r1, [pc, #36]	; (8007288 <siprintf+0x3c>)
 8007264:	f853 2b04 	ldr.w	r2, [r3], #4
 8007268:	9105      	str	r1, [sp, #20]
 800726a:	6800      	ldr	r0, [r0, #0]
 800726c:	9301      	str	r3, [sp, #4]
 800726e:	a902      	add	r1, sp, #8
 8007270:	f002 fc5a 	bl	8009b28 <_svfiprintf_r>
 8007274:	9b02      	ldr	r3, [sp, #8]
 8007276:	2200      	movs	r2, #0
 8007278:	701a      	strb	r2, [r3, #0]
 800727a:	b01c      	add	sp, #112	; 0x70
 800727c:	f85d eb04 	ldr.w	lr, [sp], #4
 8007280:	b003      	add	sp, #12
 8007282:	4770      	bx	lr
 8007284:	20000034 	.word	0x20000034
 8007288:	ffff0208 	.word	0xffff0208

0800728c <strchr>:
 800728c:	b2c9      	uxtb	r1, r1
 800728e:	4603      	mov	r3, r0
 8007290:	f810 2b01 	ldrb.w	r2, [r0], #1
 8007294:	b11a      	cbz	r2, 800729e <strchr+0x12>
 8007296:	428a      	cmp	r2, r1
 8007298:	d1f9      	bne.n	800728e <strchr+0x2>
 800729a:	4618      	mov	r0, r3
 800729c:	4770      	bx	lr
 800729e:	2900      	cmp	r1, #0
 80072a0:	bf18      	it	ne
 80072a2:	2300      	movne	r3, #0
 80072a4:	e7f9      	b.n	800729a <strchr+0xe>

080072a6 <strstr>:
 80072a6:	b5f0      	push	{r4, r5, r6, r7, lr}
 80072a8:	7803      	ldrb	r3, [r0, #0]
 80072aa:	b17b      	cbz	r3, 80072cc <strstr+0x26>
 80072ac:	4604      	mov	r4, r0
 80072ae:	7823      	ldrb	r3, [r4, #0]
 80072b0:	4620      	mov	r0, r4
 80072b2:	1c66      	adds	r6, r4, #1
 80072b4:	b17b      	cbz	r3, 80072d6 <strstr+0x30>
 80072b6:	1e4a      	subs	r2, r1, #1
 80072b8:	1e63      	subs	r3, r4, #1
 80072ba:	f812 5f01 	ldrb.w	r5, [r2, #1]!
 80072be:	b14d      	cbz	r5, 80072d4 <strstr+0x2e>
 80072c0:	f813 7f01 	ldrb.w	r7, [r3, #1]!
 80072c4:	42af      	cmp	r7, r5
 80072c6:	4634      	mov	r4, r6
 80072c8:	d0f7      	beq.n	80072ba <strstr+0x14>
 80072ca:	e7f0      	b.n	80072ae <strstr+0x8>
 80072cc:	780b      	ldrb	r3, [r1, #0]
 80072ce:	2b00      	cmp	r3, #0
 80072d0:	bf18      	it	ne
 80072d2:	2000      	movne	r0, #0
 80072d4:	bdf0      	pop	{r4, r5, r6, r7, pc}
 80072d6:	4618      	mov	r0, r3
 80072d8:	e7fc      	b.n	80072d4 <strstr+0x2e>

080072da <sulp>:
 80072da:	b570      	push	{r4, r5, r6, lr}
 80072dc:	4604      	mov	r4, r0
 80072de:	460d      	mov	r5, r1
 80072e0:	ec45 4b10 	vmov	d0, r4, r5
 80072e4:	4616      	mov	r6, r2
 80072e6:	f002 fa83 	bl	80097f0 <__ulp>
 80072ea:	ec51 0b10 	vmov	r0, r1, d0
 80072ee:	b17e      	cbz	r6, 8007310 <sulp+0x36>
 80072f0:	f3c5 530a 	ubfx	r3, r5, #20, #11
 80072f4:	f1c3 036b 	rsb	r3, r3, #107	; 0x6b
 80072f8:	2b00      	cmp	r3, #0
 80072fa:	dd09      	ble.n	8007310 <sulp+0x36>
 80072fc:	051b      	lsls	r3, r3, #20
 80072fe:	f103 557f 	add.w	r5, r3, #1069547520	; 0x3fc00000
 8007302:	2400      	movs	r4, #0
 8007304:	f505 1540 	add.w	r5, r5, #3145728	; 0x300000
 8007308:	4622      	mov	r2, r4
 800730a:	462b      	mov	r3, r5
 800730c:	f7f9 f974 	bl	80005f8 <__aeabi_dmul>
 8007310:	bd70      	pop	{r4, r5, r6, pc}
 8007312:	0000      	movs	r0, r0
 8007314:	0000      	movs	r0, r0
	...

08007318 <_strtod_l>:
 8007318:	e92d 4ff0 	stmdb	sp!, {r4, r5, r6, r7, r8, r9, sl, fp, lr}
 800731c:	461f      	mov	r7, r3
 800731e:	b0a1      	sub	sp, #132	; 0x84
 8007320:	2300      	movs	r3, #0
 8007322:	4681      	mov	r9, r0
 8007324:	4638      	mov	r0, r7
 8007326:	460e      	mov	r6, r1
 8007328:	9217      	str	r2, [sp, #92]	; 0x5c
 800732a:	931c      	str	r3, [sp, #112]	; 0x70
 800732c:	f001 ff66 	bl	80091fc <__localeconv_l>
 8007330:	4680      	mov	r8, r0
 8007332:	6800      	ldr	r0, [r0, #0]
 8007334:	f7f8 ff4c 	bl	80001d0 <strlen>
 8007338:	f04f 0a00 	mov.w	sl, #0
 800733c:	4604      	mov	r4, r0
 800733e:	f04f 0b00 	mov.w	fp, #0
 8007342:	961b      	str	r6, [sp, #108]	; 0x6c
 8007344:	9b1b      	ldr	r3, [sp, #108]	; 0x6c
 8007346:	781a      	ldrb	r2, [r3, #0]
 8007348:	2a0d      	cmp	r2, #13
 800734a:	d832      	bhi.n	80073b2 <_strtod_l+0x9a>
 800734c:	2a09      	cmp	r2, #9
 800734e:	d236      	bcs.n	80073be <_strtod_l+0xa6>
 8007350:	2a00      	cmp	r2, #0
 8007352:	d03e      	beq.n	80073d2 <_strtod_l+0xba>
 8007354:	2300      	movs	r3, #0
 8007356:	930d      	str	r3, [sp, #52]	; 0x34
 8007358:	9d1b      	ldr	r5, [sp, #108]	; 0x6c
 800735a:	782b      	ldrb	r3, [r5, #0]
 800735c:	2b30      	cmp	r3, #48	; 0x30
 800735e:	f040 80ac 	bne.w	80074ba <_strtod_l+0x1a2>
 8007362:	786b      	ldrb	r3, [r5, #1]
 8007364:	2b58      	cmp	r3, #88	; 0x58
 8007366:	d001      	beq.n	800736c <_strtod_l+0x54>
 8007368:	2b78      	cmp	r3, #120	; 0x78
 800736a:	d167      	bne.n	800743c <_strtod_l+0x124>
 800736c:	9b0d      	ldr	r3, [sp, #52]	; 0x34
 800736e:	9301      	str	r3, [sp, #4]
 8007370:	ab1c      	add	r3, sp, #112	; 0x70
 8007372:	9300      	str	r3, [sp, #0]
 8007374:	9702      	str	r7, [sp, #8]
 8007376:	ab1d      	add	r3, sp, #116	; 0x74
 8007378:	4a88      	ldr	r2, [pc, #544]	; (800759c <_strtod_l+0x284>)
 800737a:	a91b      	add	r1, sp, #108	; 0x6c
 800737c:	4648      	mov	r0, r9
 800737e:	f001 fc66 	bl	8008c4e <__gethex>
 8007382:	f010 0407 	ands.w	r4, r0, #7
 8007386:	4606      	mov	r6, r0
 8007388:	d005      	beq.n	8007396 <_strtod_l+0x7e>
 800738a:	2c06      	cmp	r4, #6
 800738c:	d12b      	bne.n	80073e6 <_strtod_l+0xce>
 800738e:	3501      	adds	r5, #1
 8007390:	2300      	movs	r3, #0
 8007392:	951b      	str	r5, [sp, #108]	; 0x6c
 8007394:	930d      	str	r3, [sp, #52]	; 0x34
 8007396:	9b17      	ldr	r3, [sp, #92]	; 0x5c
 8007398:	2b00      	cmp	r3, #0
 800739a:	f040 859a 	bne.w	8007ed2 <_strtod_l+0xbba>
 800739e:	9b0d      	ldr	r3, [sp, #52]	; 0x34
 80073a0:	b1e3      	cbz	r3, 80073dc <_strtod_l+0xc4>
 80073a2:	4652      	mov	r2, sl
 80073a4:	f10b 4300 	add.w	r3, fp, #2147483648	; 0x80000000
 80073a8:	ec43 2b10 	vmov	d0, r2, r3
 80073ac:	b021      	add	sp, #132	; 0x84
 80073ae:	e8bd 8ff0 	ldmia.w	sp!, {r4, r5, r6, r7, r8, r9, sl, fp, pc}
 80073b2:	2a2b      	cmp	r2, #43	; 0x2b
 80073b4:	d015      	beq.n	80073e2 <_strtod_l+0xca>
 80073b6:	2a2d      	cmp	r2, #45	; 0x2d
 80073b8:	d004      	beq.n	80073c4 <_strtod_l+0xac>
 80073ba:	2a20      	cmp	r2, #32
 80073bc:	d1ca      	bne.n	8007354 <_strtod_l+0x3c>
 80073be:	3301      	adds	r3, #1
 80073c0:	931b      	str	r3, [sp, #108]	; 0x6c
 80073c2:	e7bf      	b.n	8007344 <_strtod_l+0x2c>
 80073c4:	2201      	movs	r2, #1
 80073c6:	920d      	str	r2, [sp, #52]	; 0x34
 80073c8:	1c5a      	adds	r2, r3, #1
 80073ca:	921b      	str	r2, [sp, #108]	; 0x6c
 80073cc:	785b      	ldrb	r3, [r3, #1]
 80073ce:	2b00      	cmp	r3, #0
 80073d0:	d1c2      	bne.n	8007358 <_strtod_l+0x40>
 80073d2:	9b17      	ldr	r3, [sp, #92]	; 0x5c
 80073d4:	961b      	str	r6, [sp, #108]	; 0x6c
 80073d6:	2b00      	cmp	r3, #0
 80073d8:	f040 8579 	bne.w	8007ece <_strtod_l+0xbb6>
 80073dc:	4652      	mov	r2, sl
 80073de:	465b      	mov	r3, fp
 80073e0:	e7e2      	b.n	80073a8 <_strtod_l+0x90>
 80073e2:	2200      	movs	r2, #0
 80073e4:	e7ef      	b.n	80073c6 <_strtod_l+0xae>
 80073e6:	9a1c      	ldr	r2, [sp, #112]	; 0x70
 80073e8:	b13a      	cbz	r2, 80073fa <_strtod_l+0xe2>
 80073ea:	2135      	movs	r1, #53	; 0x35
 80073ec:	a81e      	add	r0, sp, #120	; 0x78
 80073ee:	f002 faf7 	bl	80099e0 <__copybits>
 80073f2:	991c      	ldr	r1, [sp, #112]	; 0x70
 80073f4:	4648      	mov	r0, r9
 80073f6:	f001 ff64 	bl	80092c2 <_Bfree>
 80073fa:	3c01      	subs	r4, #1
 80073fc:	2c04      	cmp	r4, #4
 80073fe:	d806      	bhi.n	800740e <_strtod_l+0xf6>
 8007400:	e8df f004 	tbb	[pc, r4]
 8007404:	1714030a 	.word	0x1714030a
 8007408:	0a          	.byte	0x0a
 8007409:	00          	.byte	0x00
 800740a:	e9dd ab1e 	ldrd	sl, fp, [sp, #120]	; 0x78
 800740e:	0730      	lsls	r0, r6, #28
 8007410:	d5c1      	bpl.n	8007396 <_strtod_l+0x7e>
 8007412:	f04b 4b00 	orr.w	fp, fp, #2147483648	; 0x80000000
 8007416:	e7be      	b.n	8007396 <_strtod_l+0x7e>
 8007418:	e9dd a31e 	ldrd	sl, r3, [sp, #120]	; 0x78
 800741c:	9a1d      	ldr	r2, [sp, #116]	; 0x74
 800741e:	f423 1380 	bic.w	r3, r3, #1048576	; 0x100000
 8007422:	f202 4233 	addw	r2, r2, #1075	; 0x433
 8007426:	ea43 5b02 	orr.w	fp, r3, r2, lsl #20
 800742a:	e7f0      	b.n	800740e <_strtod_l+0xf6>
 800742c:	f8df b170 	ldr.w	fp, [pc, #368]	; 80075a0 <_strtod_l+0x288>
 8007430:	e7ed      	b.n	800740e <_strtod_l+0xf6>
 8007432:	f06f 4b00 	mvn.w	fp, #2147483648	; 0x80000000
 8007436:	f04f 3aff 	mov.w	sl, #4294967295
 800743a:	e7e8      	b.n	800740e <_strtod_l+0xf6>
 800743c:	9b1b      	ldr	r3, [sp, #108]	; 0x6c
 800743e:	1c5a      	adds	r2, r3, #1
 8007440:	921b      	str	r2, [sp, #108]	; 0x6c
 8007442:	785b      	ldrb	r3, [r3, #1]
 8007444:	2b30      	cmp	r3, #48	; 0x30
 8007446:	d0f9      	beq.n	800743c <_strtod_l+0x124>
 8007448:	2b00      	cmp	r3, #0
 800744a:	d0a4      	beq.n	8007396 <_strtod_l+0x7e>
 800744c:	2301      	movs	r3, #1
 800744e:	2500      	movs	r5, #0
 8007450:	9306      	str	r3, [sp, #24]
 8007452:	9b1b      	ldr	r3, [sp, #108]	; 0x6c
 8007454:	9308      	str	r3, [sp, #32]
 8007456:	9507      	str	r5, [sp, #28]
 8007458:	9505      	str	r5, [sp, #20]
 800745a:	220a      	movs	r2, #10
 800745c:	981b      	ldr	r0, [sp, #108]	; 0x6c
 800745e:	7807      	ldrb	r7, [r0, #0]
 8007460:	f1a7 0330 	sub.w	r3, r7, #48	; 0x30
 8007464:	b2d9      	uxtb	r1, r3
 8007466:	2909      	cmp	r1, #9
 8007468:	d929      	bls.n	80074be <_strtod_l+0x1a6>
 800746a:	4622      	mov	r2, r4
 800746c:	f8d8 1000 	ldr.w	r1, [r8]
 8007470:	f002 fc52 	bl	8009d18 <strncmp>
 8007474:	2800      	cmp	r0, #0
 8007476:	d031      	beq.n	80074dc <_strtod_l+0x1c4>
 8007478:	2000      	movs	r0, #0
 800747a:	9c05      	ldr	r4, [sp, #20]
 800747c:	9004      	str	r0, [sp, #16]
 800747e:	463b      	mov	r3, r7
 8007480:	4602      	mov	r2, r0
 8007482:	2b65      	cmp	r3, #101	; 0x65
 8007484:	d001      	beq.n	800748a <_strtod_l+0x172>
 8007486:	2b45      	cmp	r3, #69	; 0x45
 8007488:	d114      	bne.n	80074b4 <_strtod_l+0x19c>
 800748a:	b924      	cbnz	r4, 8007496 <_strtod_l+0x17e>
 800748c:	b910      	cbnz	r0, 8007494 <_strtod_l+0x17c>
 800748e:	9b06      	ldr	r3, [sp, #24]
 8007490:	2b00      	cmp	r3, #0
 8007492:	d09e      	beq.n	80073d2 <_strtod_l+0xba>
 8007494:	2400      	movs	r4, #0
 8007496:	9e1b      	ldr	r6, [sp, #108]	; 0x6c
 8007498:	1c73      	adds	r3, r6, #1
 800749a:	931b      	str	r3, [sp, #108]	; 0x6c
 800749c:	7873      	ldrb	r3, [r6, #1]
 800749e:	2b2b      	cmp	r3, #43	; 0x2b
 80074a0:	d078      	beq.n	8007594 <_strtod_l+0x27c>
 80074a2:	2b2d      	cmp	r3, #45	; 0x2d
 80074a4:	d070      	beq.n	8007588 <_strtod_l+0x270>
 80074a6:	f04f 0c00 	mov.w	ip, #0
 80074aa:	f1a3 0730 	sub.w	r7, r3, #48	; 0x30
 80074ae:	2f09      	cmp	r7, #9
 80074b0:	d97c      	bls.n	80075ac <_strtod_l+0x294>
 80074b2:	961b      	str	r6, [sp, #108]	; 0x6c
 80074b4:	f04f 0e00 	mov.w	lr, #0
 80074b8:	e09a      	b.n	80075f0 <_strtod_l+0x2d8>
 80074ba:	2300      	movs	r3, #0
 80074bc:	e7c7      	b.n	800744e <_strtod_l+0x136>
 80074be:	9905      	ldr	r1, [sp, #20]
 80074c0:	2908      	cmp	r1, #8
 80074c2:	bfdd      	ittte	le
 80074c4:	9907      	ldrle	r1, [sp, #28]
 80074c6:	fb02 3301 	mlale	r3, r2, r1, r3
 80074ca:	9307      	strle	r3, [sp, #28]
 80074cc:	fb02 3505 	mlagt	r5, r2, r5, r3
 80074d0:	9b05      	ldr	r3, [sp, #20]
 80074d2:	3001      	adds	r0, #1
 80074d4:	3301      	adds	r3, #1
 80074d6:	9305      	str	r3, [sp, #20]
 80074d8:	901b      	str	r0, [sp, #108]	; 0x6c
 80074da:	e7bf      	b.n	800745c <_strtod_l+0x144>
 80074dc:	9b1b      	ldr	r3, [sp, #108]	; 0x6c
 80074de:	191a      	adds	r2, r3, r4
 80074e0:	921b      	str	r2, [sp, #108]	; 0x6c
 80074e2:	9a05      	ldr	r2, [sp, #20]
 80074e4:	5d1b      	ldrb	r3, [r3, r4]
 80074e6:	2a00      	cmp	r2, #0
 80074e8:	d037      	beq.n	800755a <_strtod_l+0x242>
 80074ea:	9c05      	ldr	r4, [sp, #20]
 80074ec:	4602      	mov	r2, r0
 80074ee:	f1a3 0130 	sub.w	r1, r3, #48	; 0x30
 80074f2:	2909      	cmp	r1, #9
 80074f4:	d913      	bls.n	800751e <_strtod_l+0x206>
 80074f6:	2101      	movs	r1, #1
 80074f8:	9104      	str	r1, [sp, #16]
 80074fa:	e7c2      	b.n	8007482 <_strtod_l+0x16a>
 80074fc:	9b1b      	ldr	r3, [sp, #108]	; 0x6c
 80074fe:	1c5a      	adds	r2, r3, #1
 8007500:	921b      	str	r2, [sp, #108]	; 0x6c
 8007502:	785b      	ldrb	r3, [r3, #1]
 8007504:	3001      	adds	r0, #1
 8007506:	2b30      	cmp	r3, #48	; 0x30
 8007508:	d0f8      	beq.n	80074fc <_strtod_l+0x1e4>
 800750a:	f1a3 0231 	sub.w	r2, r3, #49	; 0x31
 800750e:	2a08      	cmp	r2, #8
 8007510:	f200 84e4 	bhi.w	8007edc <_strtod_l+0xbc4>
 8007514:	9a1b      	ldr	r2, [sp, #108]	; 0x6c
 8007516:	9208      	str	r2, [sp, #32]
 8007518:	4602      	mov	r2, r0
 800751a:	2000      	movs	r0, #0
 800751c:	4604      	mov	r4, r0
 800751e:	f1b3 0e30 	subs.w	lr, r3, #48	; 0x30
 8007522:	f100 0101 	add.w	r1, r0, #1
 8007526:	d012      	beq.n	800754e <_strtod_l+0x236>
 8007528:	440a      	add	r2, r1
 800752a:	eb00 0c04 	add.w	ip, r0, r4
 800752e:	4621      	mov	r1, r4
 8007530:	270a      	movs	r7, #10
 8007532:	458c      	cmp	ip, r1
 8007534:	d113      	bne.n	800755e <_strtod_l+0x246>
 8007536:	1821      	adds	r1, r4, r0
 8007538:	2908      	cmp	r1, #8
 800753a:	f104 0401 	add.w	r4, r4, #1
 800753e:	4404      	add	r4, r0
 8007540:	dc19      	bgt.n	8007576 <_strtod_l+0x25e>
 8007542:	9b07      	ldr	r3, [sp, #28]
 8007544:	210a      	movs	r1, #10
 8007546:	fb01 e303 	mla	r3, r1, r3, lr
 800754a:	9307      	str	r3, [sp, #28]
 800754c:	2100      	movs	r1, #0
 800754e:	9b1b      	ldr	r3, [sp, #108]	; 0x6c
 8007550:	1c58      	adds	r0, r3, #1
 8007552:	901b      	str	r0, [sp, #108]	; 0x6c
 8007554:	785b      	ldrb	r3, [r3, #1]
 8007556:	4608      	mov	r0, r1
 8007558:	e7c9      	b.n	80074ee <_strtod_l+0x1d6>
 800755a:	9805      	ldr	r0, [sp, #20]
 800755c:	e7d3      	b.n	8007506 <_strtod_l+0x1ee>
 800755e:	2908      	cmp	r1, #8
 8007560:	f101 0101 	add.w	r1, r1, #1
 8007564:	dc03      	bgt.n	800756e <_strtod_l+0x256>
 8007566:	9b07      	ldr	r3, [sp, #28]
 8007568:	437b      	muls	r3, r7
 800756a:	9307      	str	r3, [sp, #28]
 800756c:	e7e1      	b.n	8007532 <_strtod_l+0x21a>
 800756e:	2910      	cmp	r1, #16
 8007570:	bfd8      	it	le
 8007572:	437d      	mulle	r5, r7
 8007574:	e7dd      	b.n	8007532 <_strtod_l+0x21a>
 8007576:	2c10      	cmp	r4, #16
 8007578:	bfdc      	itt	le
 800757a:	210a      	movle	r1, #10
 800757c:	fb01 e505 	mlale	r5, r1, r5, lr
 8007580:	e7e4      	b.n	800754c <_strtod_l+0x234>
 8007582:	2301      	movs	r3, #1
 8007584:	9304      	str	r3, [sp, #16]
 8007586:	e781      	b.n	800748c <_strtod_l+0x174>
 8007588:	f04f 0c01 	mov.w	ip, #1
 800758c:	1cb3      	adds	r3, r6, #2
 800758e:	931b      	str	r3, [sp, #108]	; 0x6c
 8007590:	78b3      	ldrb	r3, [r6, #2]
 8007592:	e78a      	b.n	80074aa <_strtod_l+0x192>
 8007594:	f04f 0c00 	mov.w	ip, #0
 8007598:	e7f8      	b.n	800758c <_strtod_l+0x274>
 800759a:	bf00      	nop
 800759c:	0800b3d0 	.word	0x0800b3d0
 80075a0:	7ff00000 	.word	0x7ff00000
 80075a4:	9b1b      	ldr	r3, [sp, #108]	; 0x6c
 80075a6:	1c5f      	adds	r7, r3, #1
 80075a8:	971b      	str	r7, [sp, #108]	; 0x6c
 80075aa:	785b      	ldrb	r3, [r3, #1]
 80075ac:	2b30      	cmp	r3, #48	; 0x30
 80075ae:	d0f9      	beq.n	80075a4 <_strtod_l+0x28c>
 80075b0:	f1a3 0731 	sub.w	r7, r3, #49	; 0x31
 80075b4:	2f08      	cmp	r7, #8
 80075b6:	f63f af7d 	bhi.w	80074b4 <_strtod_l+0x19c>
 80075ba:	f1a3 0e30 	sub.w	lr, r3, #48	; 0x30
 80075be:	9b1b      	ldr	r3, [sp, #108]	; 0x6c
 80075c0:	930a      	str	r3, [sp, #40]	; 0x28
 80075c2:	9b1b      	ldr	r3, [sp, #108]	; 0x6c
 80075c4:	1c5f      	adds	r7, r3, #1
 80075c6:	971b      	str	r7, [sp, #108]	; 0x6c
 80075c8:	785b      	ldrb	r3, [r3, #1]
 80075ca:	f1a3 0830 	sub.w	r8, r3, #48	; 0x30
 80075ce:	f1b8 0f09 	cmp.w	r8, #9
 80075d2:	d937      	bls.n	8007644 <_strtod_l+0x32c>
 80075d4:	990a      	ldr	r1, [sp, #40]	; 0x28
 80075d6:	1a7f      	subs	r7, r7, r1
 80075d8:	2f08      	cmp	r7, #8
 80075da:	f644 671f 	movw	r7, #19999	; 0x4e1f
 80075de:	dc37      	bgt.n	8007650 <_strtod_l+0x338>
 80075e0:	45be      	cmp	lr, r7
 80075e2:	bfa8      	it	ge
 80075e4:	46be      	movge	lr, r7
 80075e6:	f1bc 0f00 	cmp.w	ip, #0
 80075ea:	d001      	beq.n	80075f0 <_strtod_l+0x2d8>
 80075ec:	f1ce 0e00 	rsb	lr, lr, #0
 80075f0:	2c00      	cmp	r4, #0
 80075f2:	d151      	bne.n	8007698 <_strtod_l+0x380>
 80075f4:	2800      	cmp	r0, #0
 80075f6:	f47f aece 	bne.w	8007396 <_strtod_l+0x7e>
 80075fa:	9a06      	ldr	r2, [sp, #24]
 80075fc:	2a00      	cmp	r2, #0
 80075fe:	f47f aeca 	bne.w	8007396 <_strtod_l+0x7e>
 8007602:	9a04      	ldr	r2, [sp, #16]
 8007604:	2a00      	cmp	r2, #0
 8007606:	f47f aee4 	bne.w	80073d2 <_strtod_l+0xba>
 800760a:	2b4e      	cmp	r3, #78	; 0x4e
 800760c:	d027      	beq.n	800765e <_strtod_l+0x346>
 800760e:	dc21      	bgt.n	8007654 <_strtod_l+0x33c>
 8007610:	2b49      	cmp	r3, #73	; 0x49
 8007612:	f47f aede 	bne.w	80073d2 <_strtod_l+0xba>
 8007616:	49a0      	ldr	r1, [pc, #640]	; (8007898 <_strtod_l+0x580>)
 8007618:	a81b      	add	r0, sp, #108	; 0x6c
 800761a:	f001 fd4b 	bl	80090b4 <__match>
 800761e:	2800      	cmp	r0, #0
 8007620:	f43f aed7 	beq.w	80073d2 <_strtod_l+0xba>
 8007624:	9b1b      	ldr	r3, [sp, #108]	; 0x6c
 8007626:	499d      	ldr	r1, [pc, #628]	; (800789c <_strtod_l+0x584>)
 8007628:	3b01      	subs	r3, #1
 800762a:	a81b      	add	r0, sp, #108	; 0x6c
 800762c:	931b      	str	r3, [sp, #108]	; 0x6c
 800762e:	f001 fd41 	bl	80090b4 <__match>
 8007632:	b910      	cbnz	r0, 800763a <_strtod_l+0x322>
 8007634:	9b1b      	ldr	r3, [sp, #108]	; 0x6c
 8007636:	3301      	adds	r3, #1
 8007638:	931b      	str	r3, [sp, #108]	; 0x6c
 800763a:	f8df b274 	ldr.w	fp, [pc, #628]	; 80078b0 <_strtod_l+0x598>
 800763e:	f04f 0a00 	mov.w	sl, #0
 8007642:	e6a8      	b.n	8007396 <_strtod_l+0x7e>
 8007644:	210a      	movs	r1, #10
 8007646:	fb01 3e0e 	mla	lr, r1, lr, r3
 800764a:	f1ae 0e30 	sub.w	lr, lr, #48	; 0x30
 800764e:	e7b8      	b.n	80075c2 <_strtod_l+0x2aa>
 8007650:	46be      	mov	lr, r7
 8007652:	e7c8      	b.n	80075e6 <_strtod_l+0x2ce>
 8007654:	2b69      	cmp	r3, #105	; 0x69
 8007656:	d0de      	beq.n	8007616 <_strtod_l+0x2fe>
 8007658:	2b6e      	cmp	r3, #110	; 0x6e
 800765a:	f47f aeba 	bne.w	80073d2 <_strtod_l+0xba>
 800765e:	4990      	ldr	r1, [pc, #576]	; (80078a0 <_strtod_l+0x588>)
 8007660:	a81b      	add	r0, sp, #108	; 0x6c
 8007662:	f001 fd27 	bl	80090b4 <__match>
 8007666:	2800      	cmp	r0, #0
 8007668:	f43f aeb3 	beq.w	80073d2 <_strtod_l+0xba>
 800766c:	9b1b      	ldr	r3, [sp, #108]	; 0x6c
 800766e:	781b      	ldrb	r3, [r3, #0]
 8007670:	2b28      	cmp	r3, #40	; 0x28
 8007672:	d10e      	bne.n	8007692 <_strtod_l+0x37a>
 8007674:	aa1e      	add	r2, sp, #120	; 0x78
 8007676:	498b      	ldr	r1, [pc, #556]	; (80078a4 <_strtod_l+0x58c>)
 8007678:	a81b      	add	r0, sp, #108	; 0x6c
 800767a:	f001 fd2f 	bl	80090dc <__hexnan>
 800767e:	2805      	cmp	r0, #5
 8007680:	d107      	bne.n	8007692 <_strtod_l+0x37a>
 8007682:	9b1f      	ldr	r3, [sp, #124]	; 0x7c
 8007684:	f8dd a078 	ldr.w	sl, [sp, #120]	; 0x78
 8007688:	f043 4bff 	orr.w	fp, r3, #2139095040	; 0x7f800000
 800768c:	f44b 0be0 	orr.w	fp, fp, #7340032	; 0x700000
 8007690:	e681      	b.n	8007396 <_strtod_l+0x7e>
 8007692:	f8df b224 	ldr.w	fp, [pc, #548]	; 80078b8 <_strtod_l+0x5a0>
 8007696:	e7d2      	b.n	800763e <_strtod_l+0x326>
 8007698:	ebae 0302 	sub.w	r3, lr, r2
 800769c:	9306      	str	r3, [sp, #24]
 800769e:	9b05      	ldr	r3, [sp, #20]
 80076a0:	9807      	ldr	r0, [sp, #28]
 80076a2:	2b00      	cmp	r3, #0
 80076a4:	bf08      	it	eq
 80076a6:	4623      	moveq	r3, r4
 80076a8:	2c10      	cmp	r4, #16
 80076aa:	9305      	str	r3, [sp, #20]
 80076ac:	46a0      	mov	r8, r4
 80076ae:	bfa8      	it	ge
 80076b0:	f04f 0810 	movge.w	r8, #16
 80076b4:	f7f8 ff26 	bl	8000504 <__aeabi_ui2d>
 80076b8:	2c09      	cmp	r4, #9
 80076ba:	4682      	mov	sl, r0
 80076bc:	468b      	mov	fp, r1
 80076be:	dc13      	bgt.n	80076e8 <_strtod_l+0x3d0>
 80076c0:	9b06      	ldr	r3, [sp, #24]
 80076c2:	2b00      	cmp	r3, #0
 80076c4:	f43f ae67 	beq.w	8007396 <_strtod_l+0x7e>
 80076c8:	9b06      	ldr	r3, [sp, #24]
 80076ca:	dd7a      	ble.n	80077c2 <_strtod_l+0x4aa>
 80076cc:	2b16      	cmp	r3, #22
 80076ce:	dc61      	bgt.n	8007794 <_strtod_l+0x47c>
 80076d0:	4a75      	ldr	r2, [pc, #468]	; (80078a8 <_strtod_l+0x590>)
 80076d2:	eb02 0ec3 	add.w	lr, r2, r3, lsl #3
 80076d6:	e9de 0100 	ldrd	r0, r1, [lr]
 80076da:	4652      	mov	r2, sl
 80076dc:	465b      	mov	r3, fp
 80076de:	f7f8 ff8b 	bl	80005f8 <__aeabi_dmul>
 80076e2:	4682      	mov	sl, r0
 80076e4:	468b      	mov	fp, r1
 80076e6:	e656      	b.n	8007396 <_strtod_l+0x7e>
 80076e8:	4b6f      	ldr	r3, [pc, #444]	; (80078a8 <_strtod_l+0x590>)
 80076ea:	eb03 03c8 	add.w	r3, r3, r8, lsl #3
 80076ee:	e953 2312 	ldrd	r2, r3, [r3, #-72]	; 0x48
 80076f2:	f7f8 ff81 	bl	80005f8 <__aeabi_dmul>
 80076f6:	4606      	mov	r6, r0
 80076f8:	4628      	mov	r0, r5
 80076fa:	460f      	mov	r7, r1
 80076fc:	f7f8 ff02 	bl	8000504 <__aeabi_ui2d>
 8007700:	4602      	mov	r2, r0
 8007702:	460b      	mov	r3, r1
 8007704:	4630      	mov	r0, r6
 8007706:	4639      	mov	r1, r7
 8007708:	f7f8 fdc0 	bl	800028c <__adddf3>
 800770c:	2c0f      	cmp	r4, #15
 800770e:	4682      	mov	sl, r0
 8007710:	468b      	mov	fp, r1
 8007712:	ddd5      	ble.n	80076c0 <_strtod_l+0x3a8>
 8007714:	9b06      	ldr	r3, [sp, #24]
 8007716:	eba4 0808 	sub.w	r8, r4, r8
 800771a:	4498      	add	r8, r3
 800771c:	f1b8 0f00 	cmp.w	r8, #0
 8007720:	f340 8096 	ble.w	8007850 <_strtod_l+0x538>
 8007724:	f018 030f 	ands.w	r3, r8, #15
 8007728:	d00a      	beq.n	8007740 <_strtod_l+0x428>
 800772a:	495f      	ldr	r1, [pc, #380]	; (80078a8 <_strtod_l+0x590>)
 800772c:	eb01 01c3 	add.w	r1, r1, r3, lsl #3
 8007730:	4652      	mov	r2, sl
 8007732:	465b      	mov	r3, fp
 8007734:	e9d1 0100 	ldrd	r0, r1, [r1]
 8007738:	f7f8 ff5e 	bl	80005f8 <__aeabi_dmul>
 800773c:	4682      	mov	sl, r0
 800773e:	468b      	mov	fp, r1
 8007740:	f038 080f 	bics.w	r8, r8, #15
 8007744:	d073      	beq.n	800782e <_strtod_l+0x516>
 8007746:	f5b8 7f9a 	cmp.w	r8, #308	; 0x134
 800774a:	dd47      	ble.n	80077dc <_strtod_l+0x4c4>
 800774c:	2400      	movs	r4, #0
 800774e:	46a0      	mov	r8, r4
 8007750:	9407      	str	r4, [sp, #28]
 8007752:	9405      	str	r4, [sp, #20]
 8007754:	2322      	movs	r3, #34	; 0x22
 8007756:	f8df b158 	ldr.w	fp, [pc, #344]	; 80078b0 <_strtod_l+0x598>
 800775a:	f8c9 3000 	str.w	r3, [r9]
 800775e:	f04f 0a00 	mov.w	sl, #0
 8007762:	9b07      	ldr	r3, [sp, #28]
 8007764:	2b00      	cmp	r3, #0
 8007766:	f43f ae16 	beq.w	8007396 <_strtod_l+0x7e>
 800776a:	991c      	ldr	r1, [sp, #112]	; 0x70
 800776c:	4648      	mov	r0, r9
 800776e:	f001 fda8 	bl	80092c2 <_Bfree>
 8007772:	9905      	ldr	r1, [sp, #20]
 8007774:	4648      	mov	r0, r9
 8007776:	f001 fda4 	bl	80092c2 <_Bfree>
 800777a:	4641      	mov	r1, r8
 800777c:	4648      	mov	r0, r9
 800777e:	f001 fda0 	bl	80092c2 <_Bfree>
 8007782:	9907      	ldr	r1, [sp, #28]
 8007784:	4648      	mov	r0, r9
 8007786:	f001 fd9c 	bl	80092c2 <_Bfree>
 800778a:	4621      	mov	r1, r4
 800778c:	4648      	mov	r0, r9
 800778e:	f001 fd98 	bl	80092c2 <_Bfree>
 8007792:	e600      	b.n	8007396 <_strtod_l+0x7e>
 8007794:	9a06      	ldr	r2, [sp, #24]
 8007796:	f1c4 0325 	rsb	r3, r4, #37	; 0x25
 800779a:	4293      	cmp	r3, r2
 800779c:	dbba      	blt.n	8007714 <_strtod_l+0x3fc>
 800779e:	4d42      	ldr	r5, [pc, #264]	; (80078a8 <_strtod_l+0x590>)
 80077a0:	f1c4 040f 	rsb	r4, r4, #15
 80077a4:	eb05 01c4 	add.w	r1, r5, r4, lsl #3
 80077a8:	4652      	mov	r2, sl
 80077aa:	465b      	mov	r3, fp
 80077ac:	e9d1 0100 	ldrd	r0, r1, [r1]
 80077b0:	f7f8 ff22 	bl	80005f8 <__aeabi_dmul>
 80077b4:	9b06      	ldr	r3, [sp, #24]
 80077b6:	1b1c      	subs	r4, r3, r4
 80077b8:	eb05 05c4 	add.w	r5, r5, r4, lsl #3
 80077bc:	e9d5 2300 	ldrd	r2, r3, [r5]
 80077c0:	e78d      	b.n	80076de <_strtod_l+0x3c6>
 80077c2:	f113 0f16 	cmn.w	r3, #22
 80077c6:	dba5      	blt.n	8007714 <_strtod_l+0x3fc>
 80077c8:	4a37      	ldr	r2, [pc, #220]	; (80078a8 <_strtod_l+0x590>)
 80077ca:	eba2 02c3 	sub.w	r2, r2, r3, lsl #3
 80077ce:	e9d2 2300 	ldrd	r2, r3, [r2]
 80077d2:	4650      	mov	r0, sl
 80077d4:	4659      	mov	r1, fp
 80077d6:	f7f9 f839 	bl	800084c <__aeabi_ddiv>
 80077da:	e782      	b.n	80076e2 <_strtod_l+0x3ca>
 80077dc:	2300      	movs	r3, #0
 80077de:	4e33      	ldr	r6, [pc, #204]	; (80078ac <_strtod_l+0x594>)
 80077e0:	ea4f 1828 	mov.w	r8, r8, asr #4
 80077e4:	4650      	mov	r0, sl
 80077e6:	4659      	mov	r1, fp
 80077e8:	461d      	mov	r5, r3
 80077ea:	f1b8 0f01 	cmp.w	r8, #1
 80077ee:	dc21      	bgt.n	8007834 <_strtod_l+0x51c>
 80077f0:	b10b      	cbz	r3, 80077f6 <_strtod_l+0x4de>
 80077f2:	4682      	mov	sl, r0
 80077f4:	468b      	mov	fp, r1
 80077f6:	4b2d      	ldr	r3, [pc, #180]	; (80078ac <_strtod_l+0x594>)
 80077f8:	f1ab 7b54 	sub.w	fp, fp, #55574528	; 0x3500000
 80077fc:	eb03 05c5 	add.w	r5, r3, r5, lsl #3
 8007800:	4652      	mov	r2, sl
 8007802:	465b      	mov	r3, fp
 8007804:	e9d5 0100 	ldrd	r0, r1, [r5]
 8007808:	f7f8 fef6 	bl	80005f8 <__aeabi_dmul>
 800780c:	4b28      	ldr	r3, [pc, #160]	; (80078b0 <_strtod_l+0x598>)
 800780e:	460a      	mov	r2, r1
 8007810:	400b      	ands	r3, r1
 8007812:	4928      	ldr	r1, [pc, #160]	; (80078b4 <_strtod_l+0x59c>)
 8007814:	428b      	cmp	r3, r1
 8007816:	4682      	mov	sl, r0
 8007818:	d898      	bhi.n	800774c <_strtod_l+0x434>
 800781a:	f5a1 1180 	sub.w	r1, r1, #1048576	; 0x100000
 800781e:	428b      	cmp	r3, r1
 8007820:	bf86      	itte	hi
 8007822:	f8df b098 	ldrhi.w	fp, [pc, #152]	; 80078bc <_strtod_l+0x5a4>
 8007826:	f04f 3aff 	movhi.w	sl, #4294967295
 800782a:	f102 7b54 	addls.w	fp, r2, #55574528	; 0x3500000
 800782e:	2300      	movs	r3, #0
 8007830:	9304      	str	r3, [sp, #16]
 8007832:	e077      	b.n	8007924 <_strtod_l+0x60c>
 8007834:	f018 0f01 	tst.w	r8, #1
 8007838:	d006      	beq.n	8007848 <_strtod_l+0x530>
 800783a:	eb06 03c5 	add.w	r3, r6, r5, lsl #3
 800783e:	e9d3 2300 	ldrd	r2, r3, [r3]
 8007842:	f7f8 fed9 	bl	80005f8 <__aeabi_dmul>
 8007846:	2301      	movs	r3, #1
 8007848:	3501      	adds	r5, #1
 800784a:	ea4f 0868 	mov.w	r8, r8, asr #1
 800784e:	e7cc      	b.n	80077ea <_strtod_l+0x4d2>
 8007850:	d0ed      	beq.n	800782e <_strtod_l+0x516>
 8007852:	f1c8 0800 	rsb	r8, r8, #0
 8007856:	f018 020f 	ands.w	r2, r8, #15
 800785a:	d00a      	beq.n	8007872 <_strtod_l+0x55a>
 800785c:	4b12      	ldr	r3, [pc, #72]	; (80078a8 <_strtod_l+0x590>)
 800785e:	eb03 03c2 	add.w	r3, r3, r2, lsl #3
 8007862:	4650      	mov	r0, sl
 8007864:	4659      	mov	r1, fp
 8007866:	e9d3 2300 	ldrd	r2, r3, [r3]
 800786a:	f7f8 ffef 	bl	800084c <__aeabi_ddiv>
 800786e:	4682      	mov	sl, r0
 8007870:	468b      	mov	fp, r1
 8007872:	ea5f 1828 	movs.w	r8, r8, asr #4
 8007876:	d0da      	beq.n	800782e <_strtod_l+0x516>
 8007878:	f1b8 0f1f 	cmp.w	r8, #31
 800787c:	dd20      	ble.n	80078c0 <_strtod_l+0x5a8>
 800787e:	2400      	movs	r4, #0
 8007880:	46a0      	mov	r8, r4
 8007882:	9407      	str	r4, [sp, #28]
 8007884:	9405      	str	r4, [sp, #20]
 8007886:	2322      	movs	r3, #34	; 0x22
 8007888:	f04f 0a00 	mov.w	sl, #0
 800788c:	f04f 0b00 	mov.w	fp, #0
 8007890:	f8c9 3000 	str.w	r3, [r9]
 8007894:	e765      	b.n	8007762 <_strtod_l+0x44a>
 8007896:	bf00      	nop
 8007898:	0800b3a1 	.word	0x0800b3a1
 800789c:	0800b423 	.word	0x0800b423
 80078a0:	0800b3a9 	.word	0x0800b3a9
 80078a4:	0800b3e4 	.word	0x0800b3e4
 80078a8:	0800b460 	.word	0x0800b460
 80078ac:	0800b438 	.word	0x0800b438
 80078b0:	7ff00000 	.word	0x7ff00000
 80078b4:	7ca00000 	.word	0x7ca00000
 80078b8:	fff80000 	.word	0xfff80000
 80078bc:	7fefffff 	.word	0x7fefffff
 80078c0:	f018 0310 	ands.w	r3, r8, #16
 80078c4:	bf18      	it	ne
 80078c6:	236a      	movne	r3, #106	; 0x6a
 80078c8:	4da0      	ldr	r5, [pc, #640]	; (8007b4c <_strtod_l+0x834>)
 80078ca:	9304      	str	r3, [sp, #16]
 80078cc:	4650      	mov	r0, sl
 80078ce:	4659      	mov	r1, fp
 80078d0:	2300      	movs	r3, #0
 80078d2:	f1b8 0f00 	cmp.w	r8, #0
 80078d6:	f300 810a 	bgt.w	8007aee <_strtod_l+0x7d6>
 80078da:	b10b      	cbz	r3, 80078e0 <_strtod_l+0x5c8>
 80078dc:	4682      	mov	sl, r0
 80078de:	468b      	mov	fp, r1
 80078e0:	9b04      	ldr	r3, [sp, #16]
 80078e2:	b1bb      	cbz	r3, 8007914 <_strtod_l+0x5fc>
 80078e4:	f3cb 530a 	ubfx	r3, fp, #20, #11
 80078e8:	f1c3 036b 	rsb	r3, r3, #107	; 0x6b
 80078ec:	2b00      	cmp	r3, #0
 80078ee:	4659      	mov	r1, fp
 80078f0:	dd10      	ble.n	8007914 <_strtod_l+0x5fc>
 80078f2:	2b1f      	cmp	r3, #31
 80078f4:	f340 8107 	ble.w	8007b06 <_strtod_l+0x7ee>
 80078f8:	2b34      	cmp	r3, #52	; 0x34
 80078fa:	bfde      	ittt	le
 80078fc:	3b20      	suble	r3, #32
 80078fe:	f04f 32ff 	movle.w	r2, #4294967295
 8007902:	fa02 f303 	lslle.w	r3, r2, r3
 8007906:	f04f 0a00 	mov.w	sl, #0
 800790a:	bfcc      	ite	gt
 800790c:	f04f 7b5c 	movgt.w	fp, #57671680	; 0x3700000
 8007910:	ea03 0b01 	andle.w	fp, r3, r1
 8007914:	2200      	movs	r2, #0
 8007916:	2300      	movs	r3, #0
 8007918:	4650      	mov	r0, sl
 800791a:	4659      	mov	r1, fp
 800791c:	f7f9 f8d4 	bl	8000ac8 <__aeabi_dcmpeq>
 8007920:	2800      	cmp	r0, #0
 8007922:	d1ac      	bne.n	800787e <_strtod_l+0x566>
 8007924:	9b07      	ldr	r3, [sp, #28]
 8007926:	9300      	str	r3, [sp, #0]
 8007928:	9a05      	ldr	r2, [sp, #20]
 800792a:	9908      	ldr	r1, [sp, #32]
 800792c:	4623      	mov	r3, r4
 800792e:	4648      	mov	r0, r9
 8007930:	f001 fd19 	bl	8009366 <__s2b>
 8007934:	9007      	str	r0, [sp, #28]
 8007936:	2800      	cmp	r0, #0
 8007938:	f43f af08 	beq.w	800774c <_strtod_l+0x434>
 800793c:	9a06      	ldr	r2, [sp, #24]
 800793e:	9b06      	ldr	r3, [sp, #24]
 8007940:	2a00      	cmp	r2, #0
 8007942:	f1c3 0300 	rsb	r3, r3, #0
 8007946:	bfa8      	it	ge
 8007948:	2300      	movge	r3, #0
 800794a:	930e      	str	r3, [sp, #56]	; 0x38
 800794c:	2400      	movs	r4, #0
 800794e:	ea22 73e2 	bic.w	r3, r2, r2, asr #31
 8007952:	9316      	str	r3, [sp, #88]	; 0x58
 8007954:	46a0      	mov	r8, r4
 8007956:	9b07      	ldr	r3, [sp, #28]
 8007958:	4648      	mov	r0, r9
 800795a:	6859      	ldr	r1, [r3, #4]
 800795c:	f001 fc7d 	bl	800925a <_Balloc>
 8007960:	9005      	str	r0, [sp, #20]
 8007962:	2800      	cmp	r0, #0
 8007964:	f43f aef6 	beq.w	8007754 <_strtod_l+0x43c>
 8007968:	9b07      	ldr	r3, [sp, #28]
 800796a:	691a      	ldr	r2, [r3, #16]
 800796c:	3202      	adds	r2, #2
 800796e:	f103 010c 	add.w	r1, r3, #12
 8007972:	0092      	lsls	r2, r2, #2
 8007974:	300c      	adds	r0, #12
 8007976:	f001 fc63 	bl	8009240 <memcpy>
 800797a:	aa1e      	add	r2, sp, #120	; 0x78
 800797c:	a91d      	add	r1, sp, #116	; 0x74
 800797e:	ec4b ab10 	vmov	d0, sl, fp
 8007982:	4648      	mov	r0, r9
 8007984:	e9cd ab08 	strd	sl, fp, [sp, #32]
 8007988:	f001 ffa8 	bl	80098dc <__d2b>
 800798c:	901c      	str	r0, [sp, #112]	; 0x70
 800798e:	2800      	cmp	r0, #0
 8007990:	f43f aee0 	beq.w	8007754 <_strtod_l+0x43c>
 8007994:	2101      	movs	r1, #1
 8007996:	4648      	mov	r0, r9
 8007998:	f001 fd71 	bl	800947e <__i2b>
 800799c:	4680      	mov	r8, r0
 800799e:	2800      	cmp	r0, #0
 80079a0:	f43f aed8 	beq.w	8007754 <_strtod_l+0x43c>
 80079a4:	9e1d      	ldr	r6, [sp, #116]	; 0x74
 80079a6:	9a1e      	ldr	r2, [sp, #120]	; 0x78
 80079a8:	2e00      	cmp	r6, #0
 80079aa:	bfab      	itete	ge
 80079ac:	9b0e      	ldrge	r3, [sp, #56]	; 0x38
 80079ae:	9b16      	ldrlt	r3, [sp, #88]	; 0x58
 80079b0:	9d16      	ldrge	r5, [sp, #88]	; 0x58
 80079b2:	9f0e      	ldrlt	r7, [sp, #56]	; 0x38
 80079b4:	bfac      	ite	ge
 80079b6:	18f7      	addge	r7, r6, r3
 80079b8:	1b9d      	sublt	r5, r3, r6
 80079ba:	9b04      	ldr	r3, [sp, #16]
 80079bc:	1af6      	subs	r6, r6, r3
 80079be:	4416      	add	r6, r2
 80079c0:	4b63      	ldr	r3, [pc, #396]	; (8007b50 <_strtod_l+0x838>)
 80079c2:	3e01      	subs	r6, #1
 80079c4:	429e      	cmp	r6, r3
 80079c6:	f1c2 0236 	rsb	r2, r2, #54	; 0x36
 80079ca:	f280 80af 	bge.w	8007b2c <_strtod_l+0x814>
 80079ce:	1b9b      	subs	r3, r3, r6
 80079d0:	2b1f      	cmp	r3, #31
 80079d2:	eba2 0203 	sub.w	r2, r2, r3
 80079d6:	f04f 0101 	mov.w	r1, #1
 80079da:	f300 809b 	bgt.w	8007b14 <_strtod_l+0x7fc>
 80079de:	fa01 f303 	lsl.w	r3, r1, r3
 80079e2:	930f      	str	r3, [sp, #60]	; 0x3c
 80079e4:	2300      	movs	r3, #0
 80079e6:	930a      	str	r3, [sp, #40]	; 0x28
 80079e8:	18be      	adds	r6, r7, r2
 80079ea:	9b04      	ldr	r3, [sp, #16]
 80079ec:	42b7      	cmp	r7, r6
 80079ee:	4415      	add	r5, r2
 80079f0:	441d      	add	r5, r3
 80079f2:	463b      	mov	r3, r7
 80079f4:	bfa8      	it	ge
 80079f6:	4633      	movge	r3, r6
 80079f8:	42ab      	cmp	r3, r5
 80079fa:	bfa8      	it	ge
 80079fc:	462b      	movge	r3, r5
 80079fe:	2b00      	cmp	r3, #0
 8007a00:	bfc2      	ittt	gt
 8007a02:	1af6      	subgt	r6, r6, r3
 8007a04:	1aed      	subgt	r5, r5, r3
 8007a06:	1aff      	subgt	r7, r7, r3
 8007a08:	9b0e      	ldr	r3, [sp, #56]	; 0x38
 8007a0a:	b1bb      	cbz	r3, 8007a3c <_strtod_l+0x724>
 8007a0c:	4641      	mov	r1, r8
 8007a0e:	461a      	mov	r2, r3
 8007a10:	4648      	mov	r0, r9
 8007a12:	f001 fdd3 	bl	80095bc <__pow5mult>
 8007a16:	4680      	mov	r8, r0
 8007a18:	2800      	cmp	r0, #0
 8007a1a:	f43f ae9b 	beq.w	8007754 <_strtod_l+0x43c>
 8007a1e:	4601      	mov	r1, r0
 8007a20:	9a1c      	ldr	r2, [sp, #112]	; 0x70
 8007a22:	4648      	mov	r0, r9
 8007a24:	f001 fd34 	bl	8009490 <__multiply>
 8007a28:	900c      	str	r0, [sp, #48]	; 0x30
 8007a2a:	2800      	cmp	r0, #0
 8007a2c:	f43f ae92 	beq.w	8007754 <_strtod_l+0x43c>
 8007a30:	991c      	ldr	r1, [sp, #112]	; 0x70
 8007a32:	4648      	mov	r0, r9
 8007a34:	f001 fc45 	bl	80092c2 <_Bfree>
 8007a38:	9b0c      	ldr	r3, [sp, #48]	; 0x30
 8007a3a:	931c      	str	r3, [sp, #112]	; 0x70
 8007a3c:	2e00      	cmp	r6, #0
 8007a3e:	dc7a      	bgt.n	8007b36 <_strtod_l+0x81e>
 8007a40:	9b06      	ldr	r3, [sp, #24]
 8007a42:	2b00      	cmp	r3, #0
 8007a44:	dd08      	ble.n	8007a58 <_strtod_l+0x740>
 8007a46:	9a16      	ldr	r2, [sp, #88]	; 0x58
 8007a48:	9905      	ldr	r1, [sp, #20]
 8007a4a:	4648      	mov	r0, r9
 8007a4c:	f001 fdb6 	bl	80095bc <__pow5mult>
 8007a50:	9005      	str	r0, [sp, #20]
 8007a52:	2800      	cmp	r0, #0
 8007a54:	f43f ae7e 	beq.w	8007754 <_strtod_l+0x43c>
 8007a58:	2d00      	cmp	r5, #0
 8007a5a:	dd08      	ble.n	8007a6e <_strtod_l+0x756>
 8007a5c:	462a      	mov	r2, r5
 8007a5e:	9905      	ldr	r1, [sp, #20]
 8007a60:	4648      	mov	r0, r9
 8007a62:	f001 fdf9 	bl	8009658 <__lshift>
 8007a66:	9005      	str	r0, [sp, #20]
 8007a68:	2800      	cmp	r0, #0
 8007a6a:	f43f ae73 	beq.w	8007754 <_strtod_l+0x43c>
 8007a6e:	2f00      	cmp	r7, #0
 8007a70:	dd08      	ble.n	8007a84 <_strtod_l+0x76c>
 8007a72:	4641      	mov	r1, r8
 8007a74:	463a      	mov	r2, r7
 8007a76:	4648      	mov	r0, r9
 8007a78:	f001 fdee 	bl	8009658 <__lshift>
 8007a7c:	4680      	mov	r8, r0
 8007a7e:	2800      	cmp	r0, #0
 8007a80:	f43f ae68 	beq.w	8007754 <_strtod_l+0x43c>
 8007a84:	9a05      	ldr	r2, [sp, #20]
 8007a86:	991c      	ldr	r1, [sp, #112]	; 0x70
 8007a88:	4648      	mov	r0, r9
 8007a8a:	f001 fe53 	bl	8009734 <__mdiff>
 8007a8e:	4604      	mov	r4, r0
 8007a90:	2800      	cmp	r0, #0
 8007a92:	f43f ae5f 	beq.w	8007754 <_strtod_l+0x43c>
 8007a96:	68c3      	ldr	r3, [r0, #12]
 8007a98:	930c      	str	r3, [sp, #48]	; 0x30
 8007a9a:	2300      	movs	r3, #0
 8007a9c:	60c3      	str	r3, [r0, #12]
 8007a9e:	4641      	mov	r1, r8
 8007aa0:	f001 fe2e 	bl	8009700 <__mcmp>
 8007aa4:	2800      	cmp	r0, #0
 8007aa6:	da55      	bge.n	8007b54 <_strtod_l+0x83c>
 8007aa8:	9b0c      	ldr	r3, [sp, #48]	; 0x30
 8007aaa:	b9e3      	cbnz	r3, 8007ae6 <_strtod_l+0x7ce>
 8007aac:	f1ba 0f00 	cmp.w	sl, #0
 8007ab0:	d119      	bne.n	8007ae6 <_strtod_l+0x7ce>
 8007ab2:	f3cb 0313 	ubfx	r3, fp, #0, #20
 8007ab6:	b9b3      	cbnz	r3, 8007ae6 <_strtod_l+0x7ce>
 8007ab8:	f02b 4300 	bic.w	r3, fp, #2147483648	; 0x80000000
 8007abc:	0d1b      	lsrs	r3, r3, #20
 8007abe:	051b      	lsls	r3, r3, #20
 8007ac0:	f1b3 6fd6 	cmp.w	r3, #112197632	; 0x6b00000
 8007ac4:	d90f      	bls.n	8007ae6 <_strtod_l+0x7ce>
 8007ac6:	6963      	ldr	r3, [r4, #20]
 8007ac8:	b913      	cbnz	r3, 8007ad0 <_strtod_l+0x7b8>
 8007aca:	6923      	ldr	r3, [r4, #16]
 8007acc:	2b01      	cmp	r3, #1
 8007ace:	dd0a      	ble.n	8007ae6 <_strtod_l+0x7ce>
 8007ad0:	4621      	mov	r1, r4
 8007ad2:	2201      	movs	r2, #1
 8007ad4:	4648      	mov	r0, r9
 8007ad6:	f001 fdbf 	bl	8009658 <__lshift>
 8007ada:	4641      	mov	r1, r8
 8007adc:	4604      	mov	r4, r0
 8007ade:	f001 fe0f 	bl	8009700 <__mcmp>
 8007ae2:	2800      	cmp	r0, #0
 8007ae4:	dc67      	bgt.n	8007bb6 <_strtod_l+0x89e>
 8007ae6:	9b04      	ldr	r3, [sp, #16]
 8007ae8:	2b00      	cmp	r3, #0
 8007aea:	d171      	bne.n	8007bd0 <_strtod_l+0x8b8>
 8007aec:	e63d      	b.n	800776a <_strtod_l+0x452>
 8007aee:	f018 0f01 	tst.w	r8, #1
 8007af2:	d004      	beq.n	8007afe <_strtod_l+0x7e6>
 8007af4:	e9d5 2300 	ldrd	r2, r3, [r5]
 8007af8:	f7f8 fd7e 	bl	80005f8 <__aeabi_dmul>
 8007afc:	2301      	movs	r3, #1
 8007afe:	ea4f 0868 	mov.w	r8, r8, asr #1
 8007b02:	3508      	adds	r5, #8
 8007b04:	e6e5      	b.n	80078d2 <_strtod_l+0x5ba>
 8007b06:	f04f 32ff 	mov.w	r2, #4294967295
 8007b0a:	fa02 f303 	lsl.w	r3, r2, r3
 8007b0e:	ea03 0a0a 	and.w	sl, r3, sl
 8007b12:	e6ff      	b.n	8007914 <_strtod_l+0x5fc>
 8007b14:	f1c6 467f 	rsb	r6, r6, #4278190080	; 0xff000000
 8007b18:	f506 067f 	add.w	r6, r6, #16711680	; 0xff0000
 8007b1c:	f506 467b 	add.w	r6, r6, #64256	; 0xfb00
 8007b20:	36e2      	adds	r6, #226	; 0xe2
 8007b22:	fa01 f306 	lsl.w	r3, r1, r6
 8007b26:	930a      	str	r3, [sp, #40]	; 0x28
 8007b28:	910f      	str	r1, [sp, #60]	; 0x3c
 8007b2a:	e75d      	b.n	80079e8 <_strtod_l+0x6d0>
 8007b2c:	2300      	movs	r3, #0
 8007b2e:	930a      	str	r3, [sp, #40]	; 0x28
 8007b30:	2301      	movs	r3, #1
 8007b32:	930f      	str	r3, [sp, #60]	; 0x3c
 8007b34:	e758      	b.n	80079e8 <_strtod_l+0x6d0>
 8007b36:	4632      	mov	r2, r6
 8007b38:	991c      	ldr	r1, [sp, #112]	; 0x70
 8007b3a:	4648      	mov	r0, r9
 8007b3c:	f001 fd8c 	bl	8009658 <__lshift>
 8007b40:	901c      	str	r0, [sp, #112]	; 0x70
 8007b42:	2800      	cmp	r0, #0
 8007b44:	f47f af7c 	bne.w	8007a40 <_strtod_l+0x728>
 8007b48:	e604      	b.n	8007754 <_strtod_l+0x43c>
 8007b4a:	bf00      	nop
 8007b4c:	0800b3f8 	.word	0x0800b3f8
 8007b50:	fffffc02 	.word	0xfffffc02
 8007b54:	465d      	mov	r5, fp
 8007b56:	f040 8086 	bne.w	8007c66 <_strtod_l+0x94e>
 8007b5a:	9a0c      	ldr	r2, [sp, #48]	; 0x30
 8007b5c:	f3cb 0313 	ubfx	r3, fp, #0, #20
 8007b60:	b32a      	cbz	r2, 8007bae <_strtod_l+0x896>
 8007b62:	4aaf      	ldr	r2, [pc, #700]	; (8007e20 <_strtod_l+0xb08>)
 8007b64:	4293      	cmp	r3, r2
 8007b66:	d153      	bne.n	8007c10 <_strtod_l+0x8f8>
 8007b68:	9b04      	ldr	r3, [sp, #16]
 8007b6a:	4650      	mov	r0, sl
 8007b6c:	b1d3      	cbz	r3, 8007ba4 <_strtod_l+0x88c>
 8007b6e:	4aad      	ldr	r2, [pc, #692]	; (8007e24 <_strtod_l+0xb0c>)
 8007b70:	402a      	ands	r2, r5
 8007b72:	f1b2 6fd4 	cmp.w	r2, #111149056	; 0x6a00000
 8007b76:	f04f 31ff 	mov.w	r1, #4294967295
 8007b7a:	d816      	bhi.n	8007baa <_strtod_l+0x892>
 8007b7c:	0d12      	lsrs	r2, r2, #20
 8007b7e:	f1c2 036b 	rsb	r3, r2, #107	; 0x6b
 8007b82:	fa01 f303 	lsl.w	r3, r1, r3
 8007b86:	4298      	cmp	r0, r3
 8007b88:	d142      	bne.n	8007c10 <_strtod_l+0x8f8>
 8007b8a:	4ba7      	ldr	r3, [pc, #668]	; (8007e28 <_strtod_l+0xb10>)
 8007b8c:	429d      	cmp	r5, r3
 8007b8e:	d102      	bne.n	8007b96 <_strtod_l+0x87e>
 8007b90:	3001      	adds	r0, #1
 8007b92:	f43f addf 	beq.w	8007754 <_strtod_l+0x43c>
 8007b96:	4ba3      	ldr	r3, [pc, #652]	; (8007e24 <_strtod_l+0xb0c>)
 8007b98:	402b      	ands	r3, r5
 8007b9a:	f503 1b80 	add.w	fp, r3, #1048576	; 0x100000
 8007b9e:	f04f 0a00 	mov.w	sl, #0
 8007ba2:	e7a0      	b.n	8007ae6 <_strtod_l+0x7ce>
 8007ba4:	f04f 33ff 	mov.w	r3, #4294967295
 8007ba8:	e7ed      	b.n	8007b86 <_strtod_l+0x86e>
 8007baa:	460b      	mov	r3, r1
 8007bac:	e7eb      	b.n	8007b86 <_strtod_l+0x86e>
 8007bae:	bb7b      	cbnz	r3, 8007c10 <_strtod_l+0x8f8>
 8007bb0:	f1ba 0f00 	cmp.w	sl, #0
 8007bb4:	d12c      	bne.n	8007c10 <_strtod_l+0x8f8>
 8007bb6:	9904      	ldr	r1, [sp, #16]
 8007bb8:	4a9a      	ldr	r2, [pc, #616]	; (8007e24 <_strtod_l+0xb0c>)
 8007bba:	465b      	mov	r3, fp
 8007bbc:	b1f1      	cbz	r1, 8007bfc <_strtod_l+0x8e4>
 8007bbe:	ea02 010b 	and.w	r1, r2, fp
 8007bc2:	f1b1 6fd6 	cmp.w	r1, #112197632	; 0x6b00000
 8007bc6:	dc19      	bgt.n	8007bfc <_strtod_l+0x8e4>
 8007bc8:	f1b1 7f5c 	cmp.w	r1, #57671680	; 0x3700000
 8007bcc:	f77f ae5b 	ble.w	8007886 <_strtod_l+0x56e>
 8007bd0:	4a96      	ldr	r2, [pc, #600]	; (8007e2c <_strtod_l+0xb14>)
 8007bd2:	2300      	movs	r3, #0
 8007bd4:	e9cd 3214 	strd	r3, r2, [sp, #80]	; 0x50
 8007bd8:	4650      	mov	r0, sl
 8007bda:	4659      	mov	r1, fp
 8007bdc:	e9dd 2314 	ldrd	r2, r3, [sp, #80]	; 0x50
 8007be0:	f7f8 fd0a 	bl	80005f8 <__aeabi_dmul>
 8007be4:	4682      	mov	sl, r0
 8007be6:	468b      	mov	fp, r1
 8007be8:	2900      	cmp	r1, #0
 8007bea:	f47f adbe 	bne.w	800776a <_strtod_l+0x452>
 8007bee:	2800      	cmp	r0, #0
 8007bf0:	f47f adbb 	bne.w	800776a <_strtod_l+0x452>
 8007bf4:	2322      	movs	r3, #34	; 0x22
 8007bf6:	f8c9 3000 	str.w	r3, [r9]
 8007bfa:	e5b6      	b.n	800776a <_strtod_l+0x452>
 8007bfc:	4013      	ands	r3, r2
 8007bfe:	f5a3 1380 	sub.w	r3, r3, #1048576	; 0x100000
 8007c02:	ea6f 5b13 	mvn.w	fp, r3, lsr #20
 8007c06:	ea6f 5b0b 	mvn.w	fp, fp, lsl #20
 8007c0a:	f04f 3aff 	mov.w	sl, #4294967295
 8007c0e:	e76a      	b.n	8007ae6 <_strtod_l+0x7ce>
 8007c10:	9b0a      	ldr	r3, [sp, #40]	; 0x28
 8007c12:	b193      	cbz	r3, 8007c3a <_strtod_l+0x922>
 8007c14:	422b      	tst	r3, r5
 8007c16:	f43f af66 	beq.w	8007ae6 <_strtod_l+0x7ce>
 8007c1a:	9b0c      	ldr	r3, [sp, #48]	; 0x30
 8007c1c:	9a04      	ldr	r2, [sp, #16]
 8007c1e:	4650      	mov	r0, sl
 8007c20:	4659      	mov	r1, fp
 8007c22:	b173      	cbz	r3, 8007c42 <_strtod_l+0x92a>
 8007c24:	f7ff fb59 	bl	80072da <sulp>
 8007c28:	4602      	mov	r2, r0
 8007c2a:	460b      	mov	r3, r1
 8007c2c:	e9dd 0108 	ldrd	r0, r1, [sp, #32]
 8007c30:	f7f8 fb2c 	bl	800028c <__adddf3>
 8007c34:	4682      	mov	sl, r0
 8007c36:	468b      	mov	fp, r1
 8007c38:	e755      	b.n	8007ae6 <_strtod_l+0x7ce>
 8007c3a:	9b0f      	ldr	r3, [sp, #60]	; 0x3c
 8007c3c:	ea13 0f0a 	tst.w	r3, sl
 8007c40:	e7e9      	b.n	8007c16 <_strtod_l+0x8fe>
 8007c42:	f7ff fb4a 	bl	80072da <sulp>
 8007c46:	4602      	mov	r2, r0
 8007c48:	460b      	mov	r3, r1
 8007c4a:	e9dd 0108 	ldrd	r0, r1, [sp, #32]
 8007c4e:	f7f8 fb1b 	bl	8000288 <__aeabi_dsub>
 8007c52:	2200      	movs	r2, #0
 8007c54:	2300      	movs	r3, #0
 8007c56:	4682      	mov	sl, r0
 8007c58:	468b      	mov	fp, r1
 8007c5a:	f7f8 ff35 	bl	8000ac8 <__aeabi_dcmpeq>
 8007c5e:	2800      	cmp	r0, #0
 8007c60:	f47f ae11 	bne.w	8007886 <_strtod_l+0x56e>
 8007c64:	e73f      	b.n	8007ae6 <_strtod_l+0x7ce>
 8007c66:	4641      	mov	r1, r8
 8007c68:	4620      	mov	r0, r4
 8007c6a:	f001 fe86 	bl	800997a <__ratio>
 8007c6e:	ec57 6b10 	vmov	r6, r7, d0
 8007c72:	2200      	movs	r2, #0
 8007c74:	f04f 4380 	mov.w	r3, #1073741824	; 0x40000000
 8007c78:	ee10 0a10 	vmov	r0, s0
 8007c7c:	4639      	mov	r1, r7
 8007c7e:	f7f8 ff37 	bl	8000af0 <__aeabi_dcmple>
 8007c82:	2800      	cmp	r0, #0
 8007c84:	d077      	beq.n	8007d76 <_strtod_l+0xa5e>
 8007c86:	9b0c      	ldr	r3, [sp, #48]	; 0x30
 8007c88:	2b00      	cmp	r3, #0
 8007c8a:	d04a      	beq.n	8007d22 <_strtod_l+0xa0a>
 8007c8c:	4b68      	ldr	r3, [pc, #416]	; (8007e30 <_strtod_l+0xb18>)
 8007c8e:	2200      	movs	r2, #0
 8007c90:	e9cd 230a 	strd	r2, r3, [sp, #40]	; 0x28
 8007c94:	4f66      	ldr	r7, [pc, #408]	; (8007e30 <_strtod_l+0xb18>)
 8007c96:	2600      	movs	r6, #0
 8007c98:	4b62      	ldr	r3, [pc, #392]	; (8007e24 <_strtod_l+0xb0c>)
 8007c9a:	402b      	ands	r3, r5
 8007c9c:	930f      	str	r3, [sp, #60]	; 0x3c
 8007c9e:	9a0f      	ldr	r2, [sp, #60]	; 0x3c
 8007ca0:	4b64      	ldr	r3, [pc, #400]	; (8007e34 <_strtod_l+0xb1c>)
 8007ca2:	429a      	cmp	r2, r3
 8007ca4:	f040 80ce 	bne.w	8007e44 <_strtod_l+0xb2c>
 8007ca8:	e9dd 2308 	ldrd	r2, r3, [sp, #32]
 8007cac:	e9dd 010a 	ldrd	r0, r1, [sp, #40]	; 0x28
 8007cb0:	f1a5 7b54 	sub.w	fp, r5, #55574528	; 0x3500000
 8007cb4:	ec4b ab10 	vmov	d0, sl, fp
 8007cb8:	e9cd 2314 	strd	r2, r3, [sp, #80]	; 0x50
 8007cbc:	e9cd 010a 	strd	r0, r1, [sp, #40]	; 0x28
 8007cc0:	f001 fd96 	bl	80097f0 <__ulp>
 8007cc4:	e9dd 010a 	ldrd	r0, r1, [sp, #40]	; 0x28
 8007cc8:	ec53 2b10 	vmov	r2, r3, d0
 8007ccc:	f7f8 fc94 	bl	80005f8 <__aeabi_dmul>
 8007cd0:	4652      	mov	r2, sl
 8007cd2:	465b      	mov	r3, fp
 8007cd4:	f7f8 fada 	bl	800028c <__adddf3>
 8007cd8:	460b      	mov	r3, r1
 8007cda:	4952      	ldr	r1, [pc, #328]	; (8007e24 <_strtod_l+0xb0c>)
 8007cdc:	4a56      	ldr	r2, [pc, #344]	; (8007e38 <_strtod_l+0xb20>)
 8007cde:	4019      	ands	r1, r3
 8007ce0:	4291      	cmp	r1, r2
 8007ce2:	4682      	mov	sl, r0
 8007ce4:	d95b      	bls.n	8007d9e <_strtod_l+0xa86>
 8007ce6:	9b09      	ldr	r3, [sp, #36]	; 0x24
 8007ce8:	f102 7254 	add.w	r2, r2, #55574528	; 0x3500000
 8007cec:	4293      	cmp	r3, r2
 8007cee:	d103      	bne.n	8007cf8 <_strtod_l+0x9e0>
 8007cf0:	9b08      	ldr	r3, [sp, #32]
 8007cf2:	3301      	adds	r3, #1
 8007cf4:	f43f ad2e 	beq.w	8007754 <_strtod_l+0x43c>
 8007cf8:	f8df b12c 	ldr.w	fp, [pc, #300]	; 8007e28 <_strtod_l+0xb10>
 8007cfc:	f04f 3aff 	mov.w	sl, #4294967295
 8007d00:	991c      	ldr	r1, [sp, #112]	; 0x70
 8007d02:	4648      	mov	r0, r9
 8007d04:	f001 fadd 	bl	80092c2 <_Bfree>
 8007d08:	9905      	ldr	r1, [sp, #20]
 8007d0a:	4648      	mov	r0, r9
 8007d0c:	f001 fad9 	bl	80092c2 <_Bfree>
 8007d10:	4641      	mov	r1, r8
 8007d12:	4648      	mov	r0, r9
 8007d14:	f001 fad5 	bl	80092c2 <_Bfree>
 8007d18:	4621      	mov	r1, r4
 8007d1a:	4648      	mov	r0, r9
 8007d1c:	f001 fad1 	bl	80092c2 <_Bfree>
 8007d20:	e619      	b.n	8007956 <_strtod_l+0x63e>
 8007d22:	f1ba 0f00 	cmp.w	sl, #0
 8007d26:	d11a      	bne.n	8007d5e <_strtod_l+0xa46>
 8007d28:	f3cb 0313 	ubfx	r3, fp, #0, #20
 8007d2c:	b9eb      	cbnz	r3, 8007d6a <_strtod_l+0xa52>
 8007d2e:	2200      	movs	r2, #0
 8007d30:	4b3f      	ldr	r3, [pc, #252]	; (8007e30 <_strtod_l+0xb18>)
 8007d32:	4630      	mov	r0, r6
 8007d34:	4639      	mov	r1, r7
 8007d36:	f7f8 fed1 	bl	8000adc <__aeabi_dcmplt>
 8007d3a:	b9c8      	cbnz	r0, 8007d70 <_strtod_l+0xa58>
 8007d3c:	4630      	mov	r0, r6
 8007d3e:	4639      	mov	r1, r7
 8007d40:	2200      	movs	r2, #0
 8007d42:	4b3e      	ldr	r3, [pc, #248]	; (8007e3c <_strtod_l+0xb24>)
 8007d44:	f7f8 fc58 	bl	80005f8 <__aeabi_dmul>
 8007d48:	4606      	mov	r6, r0
 8007d4a:	460f      	mov	r7, r1
 8007d4c:	f107 4300 	add.w	r3, r7, #2147483648	; 0x80000000
 8007d50:	9618      	str	r6, [sp, #96]	; 0x60
 8007d52:	9319      	str	r3, [sp, #100]	; 0x64
 8007d54:	e9dd 2318 	ldrd	r2, r3, [sp, #96]	; 0x60
 8007d58:	e9cd 230a 	strd	r2, r3, [sp, #40]	; 0x28
 8007d5c:	e79c      	b.n	8007c98 <_strtod_l+0x980>
 8007d5e:	f1ba 0f01 	cmp.w	sl, #1
 8007d62:	d102      	bne.n	8007d6a <_strtod_l+0xa52>
 8007d64:	2d00      	cmp	r5, #0
 8007d66:	f43f ad8e 	beq.w	8007886 <_strtod_l+0x56e>
 8007d6a:	2200      	movs	r2, #0
 8007d6c:	4b34      	ldr	r3, [pc, #208]	; (8007e40 <_strtod_l+0xb28>)
 8007d6e:	e78f      	b.n	8007c90 <_strtod_l+0x978>
 8007d70:	2600      	movs	r6, #0
 8007d72:	4f32      	ldr	r7, [pc, #200]	; (8007e3c <_strtod_l+0xb24>)
 8007d74:	e7ea      	b.n	8007d4c <_strtod_l+0xa34>
 8007d76:	4b31      	ldr	r3, [pc, #196]	; (8007e3c <_strtod_l+0xb24>)
 8007d78:	4630      	mov	r0, r6
 8007d7a:	4639      	mov	r1, r7
 8007d7c:	2200      	movs	r2, #0
 8007d7e:	f7f8 fc3b 	bl	80005f8 <__aeabi_dmul>
 8007d82:	9b0c      	ldr	r3, [sp, #48]	; 0x30
 8007d84:	4606      	mov	r6, r0
 8007d86:	460f      	mov	r7, r1
 8007d88:	b933      	cbnz	r3, 8007d98 <_strtod_l+0xa80>
 8007d8a:	f101 4300 	add.w	r3, r1, #2147483648	; 0x80000000
 8007d8e:	9010      	str	r0, [sp, #64]	; 0x40
 8007d90:	9311      	str	r3, [sp, #68]	; 0x44
 8007d92:	e9dd 2310 	ldrd	r2, r3, [sp, #64]	; 0x40
 8007d96:	e7df      	b.n	8007d58 <_strtod_l+0xa40>
 8007d98:	e9cd 6710 	strd	r6, r7, [sp, #64]	; 0x40
 8007d9c:	e7f9      	b.n	8007d92 <_strtod_l+0xa7a>
 8007d9e:	f103 7b54 	add.w	fp, r3, #55574528	; 0x3500000
 8007da2:	9b04      	ldr	r3, [sp, #16]
 8007da4:	2b00      	cmp	r3, #0
 8007da6:	d1ab      	bne.n	8007d00 <_strtod_l+0x9e8>
 8007da8:	f02b 4300 	bic.w	r3, fp, #2147483648	; 0x80000000
 8007dac:	0d1b      	lsrs	r3, r3, #20
 8007dae:	9a0f      	ldr	r2, [sp, #60]	; 0x3c
 8007db0:	051b      	lsls	r3, r3, #20
 8007db2:	429a      	cmp	r2, r3
 8007db4:	465d      	mov	r5, fp
 8007db6:	d1a3      	bne.n	8007d00 <_strtod_l+0x9e8>
 8007db8:	4639      	mov	r1, r7
 8007dba:	4630      	mov	r0, r6
 8007dbc:	f7f8 fecc 	bl	8000b58 <__aeabi_d2iz>
 8007dc0:	f7f8 fbb0 	bl	8000524 <__aeabi_i2d>
 8007dc4:	460b      	mov	r3, r1
 8007dc6:	4602      	mov	r2, r0
 8007dc8:	4639      	mov	r1, r7
 8007dca:	4630      	mov	r0, r6
 8007dcc:	f7f8 fa5c 	bl	8000288 <__aeabi_dsub>
 8007dd0:	9b0c      	ldr	r3, [sp, #48]	; 0x30
 8007dd2:	4606      	mov	r6, r0
 8007dd4:	460f      	mov	r7, r1
 8007dd6:	b933      	cbnz	r3, 8007de6 <_strtod_l+0xace>
 8007dd8:	f1ba 0f00 	cmp.w	sl, #0
 8007ddc:	d103      	bne.n	8007de6 <_strtod_l+0xace>
 8007dde:	f3cb 0513 	ubfx	r5, fp, #0, #20
 8007de2:	2d00      	cmp	r5, #0
 8007de4:	d06d      	beq.n	8007ec2 <_strtod_l+0xbaa>
 8007de6:	a30a      	add	r3, pc, #40	; (adr r3, 8007e10 <_strtod_l+0xaf8>)
 8007de8:	e9d3 2300 	ldrd	r2, r3, [r3]
 8007dec:	4630      	mov	r0, r6
 8007dee:	4639      	mov	r1, r7
 8007df0:	f7f8 fe74 	bl	8000adc <__aeabi_dcmplt>
 8007df4:	2800      	cmp	r0, #0
 8007df6:	f47f acb8 	bne.w	800776a <_strtod_l+0x452>
 8007dfa:	a307      	add	r3, pc, #28	; (adr r3, 8007e18 <_strtod_l+0xb00>)
 8007dfc:	e9d3 2300 	ldrd	r2, r3, [r3]
 8007e00:	4630      	mov	r0, r6
 8007e02:	4639      	mov	r1, r7
 8007e04:	f7f8 fe88 	bl	8000b18 <__aeabi_dcmpgt>
 8007e08:	2800      	cmp	r0, #0
 8007e0a:	f43f af79 	beq.w	8007d00 <_strtod_l+0x9e8>
 8007e0e:	e4ac      	b.n	800776a <_strtod_l+0x452>
 8007e10:	94a03595 	.word	0x94a03595
 8007e14:	3fdfffff 	.word	0x3fdfffff
 8007e18:	35afe535 	.word	0x35afe535
 8007e1c:	3fe00000 	.word	0x3fe00000
 8007e20:	000fffff 	.word	0x000fffff
 8007e24:	7ff00000 	.word	0x7ff00000
 8007e28:	7fefffff 	.word	0x7fefffff
 8007e2c:	39500000 	.word	0x39500000
 8007e30:	3ff00000 	.word	0x3ff00000
 8007e34:	7fe00000 	.word	0x7fe00000
 8007e38:	7c9fffff 	.word	0x7c9fffff
 8007e3c:	3fe00000 	.word	0x3fe00000
 8007e40:	bff00000 	.word	0xbff00000
 8007e44:	9b04      	ldr	r3, [sp, #16]
 8007e46:	b333      	cbz	r3, 8007e96 <_strtod_l+0xb7e>
 8007e48:	9b0f      	ldr	r3, [sp, #60]	; 0x3c
 8007e4a:	f1b3 6fd4 	cmp.w	r3, #111149056	; 0x6a00000
 8007e4e:	d822      	bhi.n	8007e96 <_strtod_l+0xb7e>
 8007e50:	a327      	add	r3, pc, #156	; (adr r3, 8007ef0 <_strtod_l+0xbd8>)
 8007e52:	e9d3 2300 	ldrd	r2, r3, [r3]
 8007e56:	4630      	mov	r0, r6
 8007e58:	4639      	mov	r1, r7
 8007e5a:	f7f8 fe49 	bl	8000af0 <__aeabi_dcmple>
 8007e5e:	b1a0      	cbz	r0, 8007e8a <_strtod_l+0xb72>
 8007e60:	4639      	mov	r1, r7
 8007e62:	4630      	mov	r0, r6
 8007e64:	f7f8 fea0 	bl	8000ba8 <__aeabi_d2uiz>
 8007e68:	2800      	cmp	r0, #0
 8007e6a:	bf08      	it	eq
 8007e6c:	2001      	moveq	r0, #1
 8007e6e:	f7f8 fb49 	bl	8000504 <__aeabi_ui2d>
 8007e72:	9b0c      	ldr	r3, [sp, #48]	; 0x30
 8007e74:	4606      	mov	r6, r0
 8007e76:	460f      	mov	r7, r1
 8007e78:	bb03      	cbnz	r3, 8007ebc <_strtod_l+0xba4>
 8007e7a:	f101 4300 	add.w	r3, r1, #2147483648	; 0x80000000
 8007e7e:	9012      	str	r0, [sp, #72]	; 0x48
 8007e80:	9313      	str	r3, [sp, #76]	; 0x4c
 8007e82:	e9dd 2312 	ldrd	r2, r3, [sp, #72]	; 0x48
 8007e86:	e9cd 230a 	strd	r2, r3, [sp, #40]	; 0x28
 8007e8a:	9b0b      	ldr	r3, [sp, #44]	; 0x2c
 8007e8c:	9a0f      	ldr	r2, [sp, #60]	; 0x3c
 8007e8e:	f103 63d6 	add.w	r3, r3, #112197632	; 0x6b00000
 8007e92:	1a9b      	subs	r3, r3, r2
 8007e94:	930b      	str	r3, [sp, #44]	; 0x2c
 8007e96:	ed9d 0b08 	vldr	d0, [sp, #32]
 8007e9a:	e9dd ab0a 	ldrd	sl, fp, [sp, #40]	; 0x28
 8007e9e:	f001 fca7 	bl	80097f0 <__ulp>
 8007ea2:	4650      	mov	r0, sl
 8007ea4:	ec53 2b10 	vmov	r2, r3, d0
 8007ea8:	4659      	mov	r1, fp
 8007eaa:	f7f8 fba5 	bl	80005f8 <__aeabi_dmul>
 8007eae:	e9dd 2308 	ldrd	r2, r3, [sp, #32]
 8007eb2:	f7f8 f9eb 	bl	800028c <__adddf3>
 8007eb6:	4682      	mov	sl, r0
 8007eb8:	468b      	mov	fp, r1
 8007eba:	e772      	b.n	8007da2 <_strtod_l+0xa8a>
 8007ebc:	e9cd 6712 	strd	r6, r7, [sp, #72]	; 0x48
 8007ec0:	e7df      	b.n	8007e82 <_strtod_l+0xb6a>
 8007ec2:	a30d      	add	r3, pc, #52	; (adr r3, 8007ef8 <_strtod_l+0xbe0>)
 8007ec4:	e9d3 2300 	ldrd	r2, r3, [r3]
 8007ec8:	f7f8 fe08 	bl	8000adc <__aeabi_dcmplt>
 8007ecc:	e79c      	b.n	8007e08 <_strtod_l+0xaf0>
 8007ece:	2300      	movs	r3, #0
 8007ed0:	930d      	str	r3, [sp, #52]	; 0x34
 8007ed2:	9a17      	ldr	r2, [sp, #92]	; 0x5c
 8007ed4:	9b1b      	ldr	r3, [sp, #108]	; 0x6c
 8007ed6:	6013      	str	r3, [r2, #0]
 8007ed8:	f7ff ba61 	b.w	800739e <_strtod_l+0x86>
 8007edc:	2b65      	cmp	r3, #101	; 0x65
 8007ede:	f04f 0200 	mov.w	r2, #0
 8007ee2:	f43f ab4e 	beq.w	8007582 <_strtod_l+0x26a>
 8007ee6:	2101      	movs	r1, #1
 8007ee8:	4614      	mov	r4, r2
 8007eea:	9104      	str	r1, [sp, #16]
 8007eec:	f7ff bacb 	b.w	8007486 <_strtod_l+0x16e>
 8007ef0:	ffc00000 	.word	0xffc00000
 8007ef4:	41dfffff 	.word	0x41dfffff
 8007ef8:	94a03595 	.word	0x94a03595
 8007efc:	3fcfffff 	.word	0x3fcfffff

08007f00 <strtod>:
 8007f00:	4b07      	ldr	r3, [pc, #28]	; (8007f20 <strtod+0x20>)
 8007f02:	4a08      	ldr	r2, [pc, #32]	; (8007f24 <strtod+0x24>)
 8007f04:	b410      	push	{r4}
 8007f06:	681c      	ldr	r4, [r3, #0]
 8007f08:	6a23      	ldr	r3, [r4, #32]
 8007f0a:	2b00      	cmp	r3, #0
 8007f0c:	bf08      	it	eq
 8007f0e:	4613      	moveq	r3, r2
 8007f10:	460a      	mov	r2, r1
 8007f12:	4601      	mov	r1, r0
 8007f14:	4620      	mov	r0, r4
 8007f16:	f85d 4b04 	ldr.w	r4, [sp], #4
 8007f1a:	f7ff b9fd 	b.w	8007318 <_strtod_l>
 8007f1e:	bf00      	nop
 8007f20:	20000034 	.word	0x20000034
 8007f24:	20000098 	.word	0x20000098

08007f28 <quorem>:
 8007f28:	e92d 4ff7 	stmdb	sp!, {r0, r1, r2, r4, r5, r6, r7, r8, r9, sl, fp, lr}
 8007f2c:	6903      	ldr	r3, [r0, #16]
 8007f2e:	690c      	ldr	r4, [r1, #16]
 8007f30:	42a3      	cmp	r3, r4
 8007f32:	4680      	mov	r8, r0
 8007f34:	f2c0 8082 	blt.w	800803c <quorem+0x114>
 8007f38:	3c01      	subs	r4, #1
 8007f3a:	f101 0714 	add.w	r7, r1, #20
 8007f3e:	ea4f 0c84 	mov.w	ip, r4, lsl #2
 8007f42:	f100 0614 	add.w	r6, r0, #20
 8007f46:	f857 5024 	ldr.w	r5, [r7, r4, lsl #2]
 8007f4a:	f856 0024 	ldr.w	r0, [r6, r4, lsl #2]
 8007f4e:	eb06 030c 	add.w	r3, r6, ip
 8007f52:	3501      	adds	r5, #1
 8007f54:	eb07 090c 	add.w	r9, r7, ip
 8007f58:	9301      	str	r3, [sp, #4]
 8007f5a:	fbb0 f5f5 	udiv	r5, r0, r5
 8007f5e:	b395      	cbz	r5, 8007fc6 <quorem+0x9e>
 8007f60:	f04f 0a00 	mov.w	sl, #0
 8007f64:	4638      	mov	r0, r7
 8007f66:	46b6      	mov	lr, r6
 8007f68:	46d3      	mov	fp, sl
 8007f6a:	f850 2b04 	ldr.w	r2, [r0], #4
 8007f6e:	b293      	uxth	r3, r2
 8007f70:	fb05 a303 	mla	r3, r5, r3, sl
 8007f74:	ea4f 4a13 	mov.w	sl, r3, lsr #16
 8007f78:	b29b      	uxth	r3, r3
 8007f7a:	ebab 0303 	sub.w	r3, fp, r3
 8007f7e:	0c12      	lsrs	r2, r2, #16
 8007f80:	f8de b000 	ldr.w	fp, [lr]
 8007f84:	fb05 a202 	mla	r2, r5, r2, sl
 8007f88:	fa13 f38b 	uxtah	r3, r3, fp
 8007f8c:	ea4f 4a12 	mov.w	sl, r2, lsr #16
 8007f90:	fa1f fb82 	uxth.w	fp, r2
 8007f94:	f8de 2000 	ldr.w	r2, [lr]
 8007f98:	ebcb 4212 	rsb	r2, fp, r2, lsr #16
 8007f9c:	eb02 4223 	add.w	r2, r2, r3, asr #16
 8007fa0:	b29b      	uxth	r3, r3
 8007fa2:	ea43 4302 	orr.w	r3, r3, r2, lsl #16
 8007fa6:	4581      	cmp	r9, r0
 8007fa8:	ea4f 4b22 	mov.w	fp, r2, asr #16
 8007fac:	f84e 3b04 	str.w	r3, [lr], #4
 8007fb0:	d2db      	bcs.n	8007f6a <quorem+0x42>
 8007fb2:	f856 300c 	ldr.w	r3, [r6, ip]
 8007fb6:	b933      	cbnz	r3, 8007fc6 <quorem+0x9e>
 8007fb8:	9b01      	ldr	r3, [sp, #4]
 8007fba:	3b04      	subs	r3, #4
 8007fbc:	429e      	cmp	r6, r3
 8007fbe:	461a      	mov	r2, r3
 8007fc0:	d330      	bcc.n	8008024 <quorem+0xfc>
 8007fc2:	f8c8 4010 	str.w	r4, [r8, #16]
 8007fc6:	4640      	mov	r0, r8
 8007fc8:	f001 fb9a 	bl	8009700 <__mcmp>
 8007fcc:	2800      	cmp	r0, #0
 8007fce:	db25      	blt.n	800801c <quorem+0xf4>
 8007fd0:	3501      	adds	r5, #1
 8007fd2:	4630      	mov	r0, r6
 8007fd4:	f04f 0c00 	mov.w	ip, #0
 8007fd8:	f857 2b04 	ldr.w	r2, [r7], #4
 8007fdc:	f8d0 e000 	ldr.w	lr, [r0]
 8007fe0:	b293      	uxth	r3, r2
 8007fe2:	ebac 0303 	sub.w	r3, ip, r3
 8007fe6:	0c12      	lsrs	r2, r2, #16
 8007fe8:	fa13 f38e 	uxtah	r3, r3, lr
 8007fec:	ebc2 421e 	rsb	r2, r2, lr, lsr #16
 8007ff0:	eb02 4223 	add.w	r2, r2, r3, asr #16
 8007ff4:	b29b      	uxth	r3, r3
 8007ff6:	ea43 4302 	orr.w	r3, r3, r2, lsl #16
 8007ffa:	45b9      	cmp	r9, r7
 8007ffc:	ea4f 4c22 	mov.w	ip, r2, asr #16
 8008000:	f840 3b04 	str.w	r3, [r0], #4
 8008004:	d2e8      	bcs.n	8007fd8 <quorem+0xb0>
 8008006:	f856 2024 	ldr.w	r2, [r6, r4, lsl #2]
 800800a:	eb06 0384 	add.w	r3, r6, r4, lsl #2
 800800e:	b92a      	cbnz	r2, 800801c <quorem+0xf4>
 8008010:	3b04      	subs	r3, #4
 8008012:	429e      	cmp	r6, r3
 8008014:	461a      	mov	r2, r3
 8008016:	d30b      	bcc.n	8008030 <quorem+0x108>
 8008018:	f8c8 4010 	str.w	r4, [r8, #16]
 800801c:	4628      	mov	r0, r5
 800801e:	b003      	add	sp, #12
 8008020:	e8bd 8ff0 	ldmia.w	sp!, {r4, r5, r6, r7, r8, r9, sl, fp, pc}
 8008024:	6812      	ldr	r2, [r2, #0]
 8008026:	3b04      	subs	r3, #4
 8008028:	2a00      	cmp	r2, #0
 800802a:	d1ca      	bne.n	8007fc2 <quorem+0x9a>
 800802c:	3c01      	subs	r4, #1
 800802e:	e7c5      	b.n	8007fbc <quorem+0x94>
 8008030:	6812      	ldr	r2, [r2, #0]
 8008032:	3b04      	subs	r3, #4
 8008034:	2a00      	cmp	r2, #0
 8008036:	d1ef      	bne.n	8008018 <quorem+0xf0>
 8008038:	3c01      	subs	r4, #1
 800803a:	e7ea      	b.n	8008012 <quorem+0xea>
 800803c:	2000      	movs	r0, #0
 800803e:	e7ee      	b.n	800801e <quorem+0xf6>

08008040 <_dtoa_r>:
 8008040:	e92d 4ff0 	stmdb	sp!, {r4, r5, r6, r7, r8, r9, sl, fp, lr}
 8008044:	ec57 6b10 	vmov	r6, r7, d0
 8008048:	b097      	sub	sp, #92	; 0x5c
 800804a:	6a45      	ldr	r5, [r0, #36]	; 0x24
 800804c:	9106      	str	r1, [sp, #24]
 800804e:	4604      	mov	r4, r0
 8008050:	920b      	str	r2, [sp, #44]	; 0x2c
 8008052:	9312      	str	r3, [sp, #72]	; 0x48
 8008054:	f8dd 8080 	ldr.w	r8, [sp, #128]	; 0x80
 8008058:	e9cd 6700 	strd	r6, r7, [sp]
 800805c:	b93d      	cbnz	r5, 800806e <_dtoa_r+0x2e>
 800805e:	2010      	movs	r0, #16
 8008060:	f7fe fbc8 	bl	80067f4 <malloc>
 8008064:	6260      	str	r0, [r4, #36]	; 0x24
 8008066:	e9c0 5501 	strd	r5, r5, [r0, #4]
 800806a:	6005      	str	r5, [r0, #0]
 800806c:	60c5      	str	r5, [r0, #12]
 800806e:	6a63      	ldr	r3, [r4, #36]	; 0x24
 8008070:	6819      	ldr	r1, [r3, #0]
 8008072:	b151      	cbz	r1, 800808a <_dtoa_r+0x4a>
 8008074:	685a      	ldr	r2, [r3, #4]
 8008076:	604a      	str	r2, [r1, #4]
 8008078:	2301      	movs	r3, #1
 800807a:	4093      	lsls	r3, r2
 800807c:	608b      	str	r3, [r1, #8]
 800807e:	4620      	mov	r0, r4
 8008080:	f001 f91f 	bl	80092c2 <_Bfree>
 8008084:	6a63      	ldr	r3, [r4, #36]	; 0x24
 8008086:	2200      	movs	r2, #0
 8008088:	601a      	str	r2, [r3, #0]
 800808a:	1e3b      	subs	r3, r7, #0
 800808c:	bfbb      	ittet	lt
 800808e:	f023 4300 	biclt.w	r3, r3, #2147483648	; 0x80000000
 8008092:	9301      	strlt	r3, [sp, #4]
 8008094:	2300      	movge	r3, #0
 8008096:	2201      	movlt	r2, #1
 8008098:	bfac      	ite	ge
 800809a:	f8c8 3000 	strge.w	r3, [r8]
 800809e:	f8c8 2000 	strlt.w	r2, [r8]
 80080a2:	4baf      	ldr	r3, [pc, #700]	; (8008360 <_dtoa_r+0x320>)
 80080a4:	f8dd 8004 	ldr.w	r8, [sp, #4]
 80080a8:	ea33 0308 	bics.w	r3, r3, r8
 80080ac:	d114      	bne.n	80080d8 <_dtoa_r+0x98>
 80080ae:	9a12      	ldr	r2, [sp, #72]	; 0x48
 80080b0:	f242 730f 	movw	r3, #9999	; 0x270f
 80080b4:	6013      	str	r3, [r2, #0]
 80080b6:	9b00      	ldr	r3, [sp, #0]
 80080b8:	b923      	cbnz	r3, 80080c4 <_dtoa_r+0x84>
 80080ba:	f3c8 0013 	ubfx	r0, r8, #0, #20
 80080be:	2800      	cmp	r0, #0
 80080c0:	f000 8542 	beq.w	8008b48 <_dtoa_r+0xb08>
 80080c4:	9b21      	ldr	r3, [sp, #132]	; 0x84
 80080c6:	f8df b2ac 	ldr.w	fp, [pc, #684]	; 8008374 <_dtoa_r+0x334>
 80080ca:	2b00      	cmp	r3, #0
 80080cc:	f000 8544 	beq.w	8008b58 <_dtoa_r+0xb18>
 80080d0:	f10b 0303 	add.w	r3, fp, #3
 80080d4:	f000 bd3e 	b.w	8008b54 <_dtoa_r+0xb14>
 80080d8:	e9dd 6700 	ldrd	r6, r7, [sp]
 80080dc:	2200      	movs	r2, #0
 80080de:	2300      	movs	r3, #0
 80080e0:	4630      	mov	r0, r6
 80080e2:	4639      	mov	r1, r7
 80080e4:	f7f8 fcf0 	bl	8000ac8 <__aeabi_dcmpeq>
 80080e8:	4681      	mov	r9, r0
 80080ea:	b168      	cbz	r0, 8008108 <_dtoa_r+0xc8>
 80080ec:	9a12      	ldr	r2, [sp, #72]	; 0x48
 80080ee:	2301      	movs	r3, #1
 80080f0:	6013      	str	r3, [r2, #0]
 80080f2:	9b21      	ldr	r3, [sp, #132]	; 0x84
 80080f4:	2b00      	cmp	r3, #0
 80080f6:	f000 8524 	beq.w	8008b42 <_dtoa_r+0xb02>
 80080fa:	4b9a      	ldr	r3, [pc, #616]	; (8008364 <_dtoa_r+0x324>)
 80080fc:	9a21      	ldr	r2, [sp, #132]	; 0x84
 80080fe:	f103 3bff 	add.w	fp, r3, #4294967295
 8008102:	6013      	str	r3, [r2, #0]
 8008104:	f000 bd28 	b.w	8008b58 <_dtoa_r+0xb18>
 8008108:	aa14      	add	r2, sp, #80	; 0x50
 800810a:	a915      	add	r1, sp, #84	; 0x54
 800810c:	ec47 6b10 	vmov	d0, r6, r7
 8008110:	4620      	mov	r0, r4
 8008112:	f001 fbe3 	bl	80098dc <__d2b>
 8008116:	f3c8 550a 	ubfx	r5, r8, #20, #11
 800811a:	9004      	str	r0, [sp, #16]
 800811c:	2d00      	cmp	r5, #0
 800811e:	d07c      	beq.n	800821a <_dtoa_r+0x1da>
 8008120:	f3c7 0313 	ubfx	r3, r7, #0, #20
 8008124:	f043 5b7f 	orr.w	fp, r3, #1069547520	; 0x3fc00000
 8008128:	46b2      	mov	sl, r6
 800812a:	f44b 1b40 	orr.w	fp, fp, #3145728	; 0x300000
 800812e:	f2a5 35ff 	subw	r5, r5, #1023	; 0x3ff
 8008132:	f8cd 904c 	str.w	r9, [sp, #76]	; 0x4c
 8008136:	2200      	movs	r2, #0
 8008138:	4b8b      	ldr	r3, [pc, #556]	; (8008368 <_dtoa_r+0x328>)
 800813a:	4650      	mov	r0, sl
 800813c:	4659      	mov	r1, fp
 800813e:	f7f8 f8a3 	bl	8000288 <__aeabi_dsub>
 8008142:	a381      	add	r3, pc, #516	; (adr r3, 8008348 <_dtoa_r+0x308>)
 8008144:	e9d3 2300 	ldrd	r2, r3, [r3]
 8008148:	f7f8 fa56 	bl	80005f8 <__aeabi_dmul>
 800814c:	a380      	add	r3, pc, #512	; (adr r3, 8008350 <_dtoa_r+0x310>)
 800814e:	e9d3 2300 	ldrd	r2, r3, [r3]
 8008152:	f7f8 f89b 	bl	800028c <__adddf3>
 8008156:	4606      	mov	r6, r0
 8008158:	4628      	mov	r0, r5
 800815a:	460f      	mov	r7, r1
 800815c:	f7f8 f9e2 	bl	8000524 <__aeabi_i2d>
 8008160:	a37d      	add	r3, pc, #500	; (adr r3, 8008358 <_dtoa_r+0x318>)
 8008162:	e9d3 2300 	ldrd	r2, r3, [r3]
 8008166:	f7f8 fa47 	bl	80005f8 <__aeabi_dmul>
 800816a:	4602      	mov	r2, r0
 800816c:	460b      	mov	r3, r1
 800816e:	4630      	mov	r0, r6
 8008170:	4639      	mov	r1, r7
 8008172:	f7f8 f88b 	bl	800028c <__adddf3>
 8008176:	4606      	mov	r6, r0
 8008178:	460f      	mov	r7, r1
 800817a:	f7f8 fced 	bl	8000b58 <__aeabi_d2iz>
 800817e:	2200      	movs	r2, #0
 8008180:	4682      	mov	sl, r0
 8008182:	2300      	movs	r3, #0
 8008184:	4630      	mov	r0, r6
 8008186:	4639      	mov	r1, r7
 8008188:	f7f8 fca8 	bl	8000adc <__aeabi_dcmplt>
 800818c:	b148      	cbz	r0, 80081a2 <_dtoa_r+0x162>
 800818e:	4650      	mov	r0, sl
 8008190:	f7f8 f9c8 	bl	8000524 <__aeabi_i2d>
 8008194:	4632      	mov	r2, r6
 8008196:	463b      	mov	r3, r7
 8008198:	f7f8 fc96 	bl	8000ac8 <__aeabi_dcmpeq>
 800819c:	b908      	cbnz	r0, 80081a2 <_dtoa_r+0x162>
 800819e:	f10a 3aff 	add.w	sl, sl, #4294967295
 80081a2:	f1ba 0f16 	cmp.w	sl, #22
 80081a6:	d859      	bhi.n	800825c <_dtoa_r+0x21c>
 80081a8:	4970      	ldr	r1, [pc, #448]	; (800836c <_dtoa_r+0x32c>)
 80081aa:	eb01 01ca 	add.w	r1, r1, sl, lsl #3
 80081ae:	e9dd 2300 	ldrd	r2, r3, [sp]
 80081b2:	e9d1 0100 	ldrd	r0, r1, [r1]
 80081b6:	f7f8 fcaf 	bl	8000b18 <__aeabi_dcmpgt>
 80081ba:	2800      	cmp	r0, #0
 80081bc:	d050      	beq.n	8008260 <_dtoa_r+0x220>
 80081be:	f10a 3aff 	add.w	sl, sl, #4294967295
 80081c2:	2300      	movs	r3, #0
 80081c4:	930f      	str	r3, [sp, #60]	; 0x3c
 80081c6:	9b14      	ldr	r3, [sp, #80]	; 0x50
 80081c8:	1b5d      	subs	r5, r3, r5
 80081ca:	f1b5 0801 	subs.w	r8, r5, #1
 80081ce:	bf49      	itett	mi
 80081d0:	f1c5 0301 	rsbmi	r3, r5, #1
 80081d4:	2300      	movpl	r3, #0
 80081d6:	9305      	strmi	r3, [sp, #20]
 80081d8:	f04f 0800 	movmi.w	r8, #0
 80081dc:	bf58      	it	pl
 80081de:	9305      	strpl	r3, [sp, #20]
 80081e0:	f1ba 0f00 	cmp.w	sl, #0
 80081e4:	db3e      	blt.n	8008264 <_dtoa_r+0x224>
 80081e6:	2300      	movs	r3, #0
 80081e8:	44d0      	add	r8, sl
 80081ea:	f8cd a038 	str.w	sl, [sp, #56]	; 0x38
 80081ee:	9307      	str	r3, [sp, #28]
 80081f0:	9b06      	ldr	r3, [sp, #24]
 80081f2:	2b09      	cmp	r3, #9
 80081f4:	f200 8090 	bhi.w	8008318 <_dtoa_r+0x2d8>
 80081f8:	2b05      	cmp	r3, #5
 80081fa:	bfc4      	itt	gt
 80081fc:	3b04      	subgt	r3, #4
 80081fe:	9306      	strgt	r3, [sp, #24]
 8008200:	9b06      	ldr	r3, [sp, #24]
 8008202:	f1a3 0302 	sub.w	r3, r3, #2
 8008206:	bfcc      	ite	gt
 8008208:	2500      	movgt	r5, #0
 800820a:	2501      	movle	r5, #1
 800820c:	2b03      	cmp	r3, #3
 800820e:	f200 808f 	bhi.w	8008330 <_dtoa_r+0x2f0>
 8008212:	e8df f003 	tbb	[pc, r3]
 8008216:	7f7d      	.short	0x7f7d
 8008218:	7131      	.short	0x7131
 800821a:	e9dd 5314 	ldrd	r5, r3, [sp, #80]	; 0x50
 800821e:	441d      	add	r5, r3
 8008220:	f205 4032 	addw	r0, r5, #1074	; 0x432
 8008224:	2820      	cmp	r0, #32
 8008226:	dd13      	ble.n	8008250 <_dtoa_r+0x210>
 8008228:	f1c0 0040 	rsb	r0, r0, #64	; 0x40
 800822c:	9b00      	ldr	r3, [sp, #0]
 800822e:	fa08 f800 	lsl.w	r8, r8, r0
 8008232:	f205 4012 	addw	r0, r5, #1042	; 0x412
 8008236:	fa23 f000 	lsr.w	r0, r3, r0
 800823a:	ea48 0000 	orr.w	r0, r8, r0
 800823e:	f7f8 f961 	bl	8000504 <__aeabi_ui2d>
 8008242:	2301      	movs	r3, #1
 8008244:	4682      	mov	sl, r0
 8008246:	f1a1 7bf8 	sub.w	fp, r1, #32505856	; 0x1f00000
 800824a:	3d01      	subs	r5, #1
 800824c:	9313      	str	r3, [sp, #76]	; 0x4c
 800824e:	e772      	b.n	8008136 <_dtoa_r+0xf6>
 8008250:	9b00      	ldr	r3, [sp, #0]
 8008252:	f1c0 0020 	rsb	r0, r0, #32
 8008256:	fa03 f000 	lsl.w	r0, r3, r0
 800825a:	e7f0      	b.n	800823e <_dtoa_r+0x1fe>
 800825c:	2301      	movs	r3, #1
 800825e:	e7b1      	b.n	80081c4 <_dtoa_r+0x184>
 8008260:	900f      	str	r0, [sp, #60]	; 0x3c
 8008262:	e7b0      	b.n	80081c6 <_dtoa_r+0x186>
 8008264:	9b05      	ldr	r3, [sp, #20]
 8008266:	eba3 030a 	sub.w	r3, r3, sl
 800826a:	9305      	str	r3, [sp, #20]
 800826c:	f1ca 0300 	rsb	r3, sl, #0
 8008270:	9307      	str	r3, [sp, #28]
 8008272:	2300      	movs	r3, #0
 8008274:	930e      	str	r3, [sp, #56]	; 0x38
 8008276:	e7bb      	b.n	80081f0 <_dtoa_r+0x1b0>
 8008278:	2301      	movs	r3, #1
 800827a:	930a      	str	r3, [sp, #40]	; 0x28
 800827c:	9b0b      	ldr	r3, [sp, #44]	; 0x2c
 800827e:	2b00      	cmp	r3, #0
 8008280:	dd59      	ble.n	8008336 <_dtoa_r+0x2f6>
 8008282:	9302      	str	r3, [sp, #8]
 8008284:	4699      	mov	r9, r3
 8008286:	6a66      	ldr	r6, [r4, #36]	; 0x24
 8008288:	2200      	movs	r2, #0
 800828a:	6072      	str	r2, [r6, #4]
 800828c:	2204      	movs	r2, #4
 800828e:	f102 0014 	add.w	r0, r2, #20
 8008292:	4298      	cmp	r0, r3
 8008294:	6871      	ldr	r1, [r6, #4]
 8008296:	d953      	bls.n	8008340 <_dtoa_r+0x300>
 8008298:	4620      	mov	r0, r4
 800829a:	f000 ffde 	bl	800925a <_Balloc>
 800829e:	6a63      	ldr	r3, [r4, #36]	; 0x24
 80082a0:	6030      	str	r0, [r6, #0]
 80082a2:	f1b9 0f0e 	cmp.w	r9, #14
 80082a6:	f8d3 b000 	ldr.w	fp, [r3]
 80082aa:	f200 80e6 	bhi.w	800847a <_dtoa_r+0x43a>
 80082ae:	2d00      	cmp	r5, #0
 80082b0:	f000 80e3 	beq.w	800847a <_dtoa_r+0x43a>
 80082b4:	ed9d 7b00 	vldr	d7, [sp]
 80082b8:	f1ba 0f00 	cmp.w	sl, #0
 80082bc:	ed8d 7b10 	vstr	d7, [sp, #64]	; 0x40
 80082c0:	dd74      	ble.n	80083ac <_dtoa_r+0x36c>
 80082c2:	4a2a      	ldr	r2, [pc, #168]	; (800836c <_dtoa_r+0x32c>)
 80082c4:	f00a 030f 	and.w	r3, sl, #15
 80082c8:	eb02 03c3 	add.w	r3, r2, r3, lsl #3
 80082cc:	ed93 7b00 	vldr	d7, [r3]
 80082d0:	ea4f 162a 	mov.w	r6, sl, asr #4
 80082d4:	06f0      	lsls	r0, r6, #27
 80082d6:	ed8d 7b08 	vstr	d7, [sp, #32]
 80082da:	d565      	bpl.n	80083a8 <_dtoa_r+0x368>
 80082dc:	4b24      	ldr	r3, [pc, #144]	; (8008370 <_dtoa_r+0x330>)
 80082de:	e9dd 0110 	ldrd	r0, r1, [sp, #64]	; 0x40
 80082e2:	e9d3 2308 	ldrd	r2, r3, [r3, #32]
 80082e6:	f7f8 fab1 	bl	800084c <__aeabi_ddiv>
 80082ea:	e9cd 0100 	strd	r0, r1, [sp]
 80082ee:	f006 060f 	and.w	r6, r6, #15
 80082f2:	2503      	movs	r5, #3
 80082f4:	4f1e      	ldr	r7, [pc, #120]	; (8008370 <_dtoa_r+0x330>)
 80082f6:	e04c      	b.n	8008392 <_dtoa_r+0x352>
 80082f8:	2301      	movs	r3, #1
 80082fa:	930a      	str	r3, [sp, #40]	; 0x28
 80082fc:	9b0b      	ldr	r3, [sp, #44]	; 0x2c
 80082fe:	4453      	add	r3, sl
 8008300:	f103 0901 	add.w	r9, r3, #1
 8008304:	9302      	str	r3, [sp, #8]
 8008306:	464b      	mov	r3, r9
 8008308:	2b01      	cmp	r3, #1
 800830a:	bfb8      	it	lt
 800830c:	2301      	movlt	r3, #1
 800830e:	e7ba      	b.n	8008286 <_dtoa_r+0x246>
 8008310:	2300      	movs	r3, #0
 8008312:	e7b2      	b.n	800827a <_dtoa_r+0x23a>
 8008314:	2300      	movs	r3, #0
 8008316:	e7f0      	b.n	80082fa <_dtoa_r+0x2ba>
 8008318:	2501      	movs	r5, #1
 800831a:	2300      	movs	r3, #0
 800831c:	9306      	str	r3, [sp, #24]
 800831e:	950a      	str	r5, [sp, #40]	; 0x28
 8008320:	f04f 33ff 	mov.w	r3, #4294967295
 8008324:	9302      	str	r3, [sp, #8]
 8008326:	4699      	mov	r9, r3
 8008328:	2200      	movs	r2, #0
 800832a:	2312      	movs	r3, #18
 800832c:	920b      	str	r2, [sp, #44]	; 0x2c
 800832e:	e7aa      	b.n	8008286 <_dtoa_r+0x246>
 8008330:	2301      	movs	r3, #1
 8008332:	930a      	str	r3, [sp, #40]	; 0x28
 8008334:	e7f4      	b.n	8008320 <_dtoa_r+0x2e0>
 8008336:	2301      	movs	r3, #1
 8008338:	9302      	str	r3, [sp, #8]
 800833a:	4699      	mov	r9, r3
 800833c:	461a      	mov	r2, r3
 800833e:	e7f5      	b.n	800832c <_dtoa_r+0x2ec>
 8008340:	3101      	adds	r1, #1
 8008342:	6071      	str	r1, [r6, #4]
 8008344:	0052      	lsls	r2, r2, #1
 8008346:	e7a2      	b.n	800828e <_dtoa_r+0x24e>
 8008348:	636f4361 	.word	0x636f4361
 800834c:	3fd287a7 	.word	0x3fd287a7
 8008350:	8b60c8b3 	.word	0x8b60c8b3
 8008354:	3fc68a28 	.word	0x3fc68a28
 8008358:	509f79fb 	.word	0x509f79fb
 800835c:	3fd34413 	.word	0x3fd34413
 8008360:	7ff00000 	.word	0x7ff00000
 8008364:	0800b3ad 	.word	0x0800b3ad
 8008368:	3ff80000 	.word	0x3ff80000
 800836c:	0800b460 	.word	0x0800b460
 8008370:	0800b438 	.word	0x0800b438
 8008374:	0800b429 	.word	0x0800b429
 8008378:	07f1      	lsls	r1, r6, #31
 800837a:	d508      	bpl.n	800838e <_dtoa_r+0x34e>
 800837c:	e9dd 0108 	ldrd	r0, r1, [sp, #32]
 8008380:	e9d7 2300 	ldrd	r2, r3, [r7]
 8008384:	f7f8 f938 	bl	80005f8 <__aeabi_dmul>
 8008388:	e9cd 0108 	strd	r0, r1, [sp, #32]
 800838c:	3501      	adds	r5, #1
 800838e:	1076      	asrs	r6, r6, #1
 8008390:	3708      	adds	r7, #8
 8008392:	2e00      	cmp	r6, #0
 8008394:	d1f0      	bne.n	8008378 <_dtoa_r+0x338>
 8008396:	e9dd 2308 	ldrd	r2, r3, [sp, #32]
 800839a:	e9dd 0100 	ldrd	r0, r1, [sp]
 800839e:	f7f8 fa55 	bl	800084c <__aeabi_ddiv>
 80083a2:	e9cd 0100 	strd	r0, r1, [sp]
 80083a6:	e01a      	b.n	80083de <_dtoa_r+0x39e>
 80083a8:	2502      	movs	r5, #2
 80083aa:	e7a3      	b.n	80082f4 <_dtoa_r+0x2b4>
 80083ac:	f000 80a0 	beq.w	80084f0 <_dtoa_r+0x4b0>
 80083b0:	f1ca 0600 	rsb	r6, sl, #0
 80083b4:	4b9f      	ldr	r3, [pc, #636]	; (8008634 <_dtoa_r+0x5f4>)
 80083b6:	4fa0      	ldr	r7, [pc, #640]	; (8008638 <_dtoa_r+0x5f8>)
 80083b8:	f006 020f 	and.w	r2, r6, #15
 80083bc:	eb03 03c2 	add.w	r3, r3, r2, lsl #3
 80083c0:	e9d3 2300 	ldrd	r2, r3, [r3]
 80083c4:	e9dd 0110 	ldrd	r0, r1, [sp, #64]	; 0x40
 80083c8:	f7f8 f916 	bl	80005f8 <__aeabi_dmul>
 80083cc:	e9cd 0100 	strd	r0, r1, [sp]
 80083d0:	1136      	asrs	r6, r6, #4
 80083d2:	2300      	movs	r3, #0
 80083d4:	2502      	movs	r5, #2
 80083d6:	2e00      	cmp	r6, #0
 80083d8:	d17f      	bne.n	80084da <_dtoa_r+0x49a>
 80083da:	2b00      	cmp	r3, #0
 80083dc:	d1e1      	bne.n	80083a2 <_dtoa_r+0x362>
 80083de:	9b0f      	ldr	r3, [sp, #60]	; 0x3c
 80083e0:	2b00      	cmp	r3, #0
 80083e2:	f000 8087 	beq.w	80084f4 <_dtoa_r+0x4b4>
 80083e6:	e9dd 6700 	ldrd	r6, r7, [sp]
 80083ea:	2200      	movs	r2, #0
 80083ec:	4b93      	ldr	r3, [pc, #588]	; (800863c <_dtoa_r+0x5fc>)
 80083ee:	4630      	mov	r0, r6
 80083f0:	4639      	mov	r1, r7
 80083f2:	f7f8 fb73 	bl	8000adc <__aeabi_dcmplt>
 80083f6:	2800      	cmp	r0, #0
 80083f8:	d07c      	beq.n	80084f4 <_dtoa_r+0x4b4>
 80083fa:	f1b9 0f00 	cmp.w	r9, #0
 80083fe:	d079      	beq.n	80084f4 <_dtoa_r+0x4b4>
 8008400:	9b02      	ldr	r3, [sp, #8]
 8008402:	2b00      	cmp	r3, #0
 8008404:	dd35      	ble.n	8008472 <_dtoa_r+0x432>
 8008406:	f10a 33ff 	add.w	r3, sl, #4294967295
 800840a:	9308      	str	r3, [sp, #32]
 800840c:	4639      	mov	r1, r7
 800840e:	2200      	movs	r2, #0
 8008410:	4b8b      	ldr	r3, [pc, #556]	; (8008640 <_dtoa_r+0x600>)
 8008412:	4630      	mov	r0, r6
 8008414:	f7f8 f8f0 	bl	80005f8 <__aeabi_dmul>
 8008418:	e9cd 0100 	strd	r0, r1, [sp]
 800841c:	9f02      	ldr	r7, [sp, #8]
 800841e:	3501      	adds	r5, #1
 8008420:	4628      	mov	r0, r5
 8008422:	f7f8 f87f 	bl	8000524 <__aeabi_i2d>
 8008426:	e9dd 2300 	ldrd	r2, r3, [sp]
 800842a:	f7f8 f8e5 	bl	80005f8 <__aeabi_dmul>
 800842e:	2200      	movs	r2, #0
 8008430:	4b84      	ldr	r3, [pc, #528]	; (8008644 <_dtoa_r+0x604>)
 8008432:	f7f7 ff2b 	bl	800028c <__adddf3>
 8008436:	4605      	mov	r5, r0
 8008438:	f1a1 7650 	sub.w	r6, r1, #54525952	; 0x3400000
 800843c:	2f00      	cmp	r7, #0
 800843e:	d15d      	bne.n	80084fc <_dtoa_r+0x4bc>
 8008440:	2200      	movs	r2, #0
 8008442:	4b81      	ldr	r3, [pc, #516]	; (8008648 <_dtoa_r+0x608>)
 8008444:	e9dd 0100 	ldrd	r0, r1, [sp]
 8008448:	f7f7 ff1e 	bl	8000288 <__aeabi_dsub>
 800844c:	462a      	mov	r2, r5
 800844e:	4633      	mov	r3, r6
 8008450:	e9cd 0100 	strd	r0, r1, [sp]
 8008454:	f7f8 fb60 	bl	8000b18 <__aeabi_dcmpgt>
 8008458:	2800      	cmp	r0, #0
 800845a:	f040 8288 	bne.w	800896e <_dtoa_r+0x92e>
 800845e:	462a      	mov	r2, r5
 8008460:	f106 4300 	add.w	r3, r6, #2147483648	; 0x80000000
 8008464:	e9dd 0100 	ldrd	r0, r1, [sp]
 8008468:	f7f8 fb38 	bl	8000adc <__aeabi_dcmplt>
 800846c:	2800      	cmp	r0, #0
 800846e:	f040 827c 	bne.w	800896a <_dtoa_r+0x92a>
 8008472:	e9dd 2310 	ldrd	r2, r3, [sp, #64]	; 0x40
 8008476:	e9cd 2300 	strd	r2, r3, [sp]
 800847a:	9b15      	ldr	r3, [sp, #84]	; 0x54
 800847c:	2b00      	cmp	r3, #0
 800847e:	f2c0 8150 	blt.w	8008722 <_dtoa_r+0x6e2>
 8008482:	f1ba 0f0e 	cmp.w	sl, #14
 8008486:	f300 814c 	bgt.w	8008722 <_dtoa_r+0x6e2>
 800848a:	4b6a      	ldr	r3, [pc, #424]	; (8008634 <_dtoa_r+0x5f4>)
 800848c:	eb03 03ca 	add.w	r3, r3, sl, lsl #3
 8008490:	ed93 7b00 	vldr	d7, [r3]
 8008494:	9b0b      	ldr	r3, [sp, #44]	; 0x2c
 8008496:	2b00      	cmp	r3, #0
 8008498:	ed8d 7b02 	vstr	d7, [sp, #8]
 800849c:	f280 80d8 	bge.w	8008650 <_dtoa_r+0x610>
 80084a0:	f1b9 0f00 	cmp.w	r9, #0
 80084a4:	f300 80d4 	bgt.w	8008650 <_dtoa_r+0x610>
 80084a8:	f040 825e 	bne.w	8008968 <_dtoa_r+0x928>
 80084ac:	2200      	movs	r2, #0
 80084ae:	4b66      	ldr	r3, [pc, #408]	; (8008648 <_dtoa_r+0x608>)
 80084b0:	ec51 0b17 	vmov	r0, r1, d7
 80084b4:	f7f8 f8a0 	bl	80005f8 <__aeabi_dmul>
 80084b8:	e9dd 2300 	ldrd	r2, r3, [sp]
 80084bc:	f7f8 fb22 	bl	8000b04 <__aeabi_dcmpge>
 80084c0:	464f      	mov	r7, r9
 80084c2:	464e      	mov	r6, r9
 80084c4:	2800      	cmp	r0, #0
 80084c6:	f040 8234 	bne.w	8008932 <_dtoa_r+0x8f2>
 80084ca:	2331      	movs	r3, #49	; 0x31
 80084cc:	f10b 0501 	add.w	r5, fp, #1
 80084d0:	f88b 3000 	strb.w	r3, [fp]
 80084d4:	f10a 0a01 	add.w	sl, sl, #1
 80084d8:	e22f      	b.n	800893a <_dtoa_r+0x8fa>
 80084da:	07f2      	lsls	r2, r6, #31
 80084dc:	d505      	bpl.n	80084ea <_dtoa_r+0x4aa>
 80084de:	e9d7 2300 	ldrd	r2, r3, [r7]
 80084e2:	f7f8 f889 	bl	80005f8 <__aeabi_dmul>
 80084e6:	3501      	adds	r5, #1
 80084e8:	2301      	movs	r3, #1
 80084ea:	1076      	asrs	r6, r6, #1
 80084ec:	3708      	adds	r7, #8
 80084ee:	e772      	b.n	80083d6 <_dtoa_r+0x396>
 80084f0:	2502      	movs	r5, #2
 80084f2:	e774      	b.n	80083de <_dtoa_r+0x39e>
 80084f4:	f8cd a020 	str.w	sl, [sp, #32]
 80084f8:	464f      	mov	r7, r9
 80084fa:	e791      	b.n	8008420 <_dtoa_r+0x3e0>
 80084fc:	4b4d      	ldr	r3, [pc, #308]	; (8008634 <_dtoa_r+0x5f4>)
 80084fe:	eb03 03c7 	add.w	r3, r3, r7, lsl #3
 8008502:	e953 0102 	ldrd	r0, r1, [r3, #-8]
 8008506:	9b0a      	ldr	r3, [sp, #40]	; 0x28
 8008508:	2b00      	cmp	r3, #0
 800850a:	d047      	beq.n	800859c <_dtoa_r+0x55c>
 800850c:	4602      	mov	r2, r0
 800850e:	460b      	mov	r3, r1
 8008510:	2000      	movs	r0, #0
 8008512:	494e      	ldr	r1, [pc, #312]	; (800864c <_dtoa_r+0x60c>)
 8008514:	f7f8 f99a 	bl	800084c <__aeabi_ddiv>
 8008518:	462a      	mov	r2, r5
 800851a:	4633      	mov	r3, r6
 800851c:	f7f7 feb4 	bl	8000288 <__aeabi_dsub>
 8008520:	e9cd 010c 	strd	r0, r1, [sp, #48]	; 0x30
 8008524:	465d      	mov	r5, fp
 8008526:	e9dd 0100 	ldrd	r0, r1, [sp]
 800852a:	f7f8 fb15 	bl	8000b58 <__aeabi_d2iz>
 800852e:	4606      	mov	r6, r0
 8008530:	f7f7 fff8 	bl	8000524 <__aeabi_i2d>
 8008534:	4602      	mov	r2, r0
 8008536:	460b      	mov	r3, r1
 8008538:	e9dd 0100 	ldrd	r0, r1, [sp]
 800853c:	f7f7 fea4 	bl	8000288 <__aeabi_dsub>
 8008540:	3630      	adds	r6, #48	; 0x30
 8008542:	f805 6b01 	strb.w	r6, [r5], #1
 8008546:	e9dd 230c 	ldrd	r2, r3, [sp, #48]	; 0x30
 800854a:	e9cd 0100 	strd	r0, r1, [sp]
 800854e:	f7f8 fac5 	bl	8000adc <__aeabi_dcmplt>
 8008552:	2800      	cmp	r0, #0
 8008554:	d163      	bne.n	800861e <_dtoa_r+0x5de>
 8008556:	e9dd 2300 	ldrd	r2, r3, [sp]
 800855a:	2000      	movs	r0, #0
 800855c:	4937      	ldr	r1, [pc, #220]	; (800863c <_dtoa_r+0x5fc>)
 800855e:	f7f7 fe93 	bl	8000288 <__aeabi_dsub>
 8008562:	e9dd 230c 	ldrd	r2, r3, [sp, #48]	; 0x30
 8008566:	f7f8 fab9 	bl	8000adc <__aeabi_dcmplt>
 800856a:	2800      	cmp	r0, #0
 800856c:	f040 80b7 	bne.w	80086de <_dtoa_r+0x69e>
 8008570:	eba5 030b 	sub.w	r3, r5, fp
 8008574:	429f      	cmp	r7, r3
 8008576:	f77f af7c 	ble.w	8008472 <_dtoa_r+0x432>
 800857a:	2200      	movs	r2, #0
 800857c:	4b30      	ldr	r3, [pc, #192]	; (8008640 <_dtoa_r+0x600>)
 800857e:	e9dd 010c 	ldrd	r0, r1, [sp, #48]	; 0x30
 8008582:	f7f8 f839 	bl	80005f8 <__aeabi_dmul>
 8008586:	2200      	movs	r2, #0
 8008588:	e9cd 010c 	strd	r0, r1, [sp, #48]	; 0x30
 800858c:	4b2c      	ldr	r3, [pc, #176]	; (8008640 <_dtoa_r+0x600>)
 800858e:	e9dd 0100 	ldrd	r0, r1, [sp]
 8008592:	f7f8 f831 	bl	80005f8 <__aeabi_dmul>
 8008596:	e9cd 0100 	strd	r0, r1, [sp]
 800859a:	e7c4      	b.n	8008526 <_dtoa_r+0x4e6>
 800859c:	462a      	mov	r2, r5
 800859e:	4633      	mov	r3, r6
 80085a0:	f7f8 f82a 	bl	80005f8 <__aeabi_dmul>
 80085a4:	e9cd 010c 	strd	r0, r1, [sp, #48]	; 0x30
 80085a8:	eb0b 0507 	add.w	r5, fp, r7
 80085ac:	465e      	mov	r6, fp
 80085ae:	e9dd 0100 	ldrd	r0, r1, [sp]
 80085b2:	f7f8 fad1 	bl	8000b58 <__aeabi_d2iz>
 80085b6:	4607      	mov	r7, r0
 80085b8:	f7f7 ffb4 	bl	8000524 <__aeabi_i2d>
 80085bc:	3730      	adds	r7, #48	; 0x30
 80085be:	4602      	mov	r2, r0
 80085c0:	460b      	mov	r3, r1
 80085c2:	e9dd 0100 	ldrd	r0, r1, [sp]
 80085c6:	f7f7 fe5f 	bl	8000288 <__aeabi_dsub>
 80085ca:	f806 7b01 	strb.w	r7, [r6], #1
 80085ce:	42ae      	cmp	r6, r5
 80085d0:	e9cd 0100 	strd	r0, r1, [sp]
 80085d4:	f04f 0200 	mov.w	r2, #0
 80085d8:	d126      	bne.n	8008628 <_dtoa_r+0x5e8>
 80085da:	4b1c      	ldr	r3, [pc, #112]	; (800864c <_dtoa_r+0x60c>)
 80085dc:	e9dd 010c 	ldrd	r0, r1, [sp, #48]	; 0x30
 80085e0:	f7f7 fe54 	bl	800028c <__adddf3>
 80085e4:	4602      	mov	r2, r0
 80085e6:	460b      	mov	r3, r1
 80085e8:	e9dd 0100 	ldrd	r0, r1, [sp]
 80085ec:	f7f8 fa94 	bl	8000b18 <__aeabi_dcmpgt>
 80085f0:	2800      	cmp	r0, #0
 80085f2:	d174      	bne.n	80086de <_dtoa_r+0x69e>
 80085f4:	e9dd 230c 	ldrd	r2, r3, [sp, #48]	; 0x30
 80085f8:	2000      	movs	r0, #0
 80085fa:	4914      	ldr	r1, [pc, #80]	; (800864c <_dtoa_r+0x60c>)
 80085fc:	f7f7 fe44 	bl	8000288 <__aeabi_dsub>
 8008600:	4602      	mov	r2, r0
 8008602:	460b      	mov	r3, r1
 8008604:	e9dd 0100 	ldrd	r0, r1, [sp]
 8008608:	f7f8 fa68 	bl	8000adc <__aeabi_dcmplt>
 800860c:	2800      	cmp	r0, #0
 800860e:	f43f af30 	beq.w	8008472 <_dtoa_r+0x432>
 8008612:	f815 3c01 	ldrb.w	r3, [r5, #-1]
 8008616:	2b30      	cmp	r3, #48	; 0x30
 8008618:	f105 32ff 	add.w	r2, r5, #4294967295
 800861c:	d002      	beq.n	8008624 <_dtoa_r+0x5e4>
 800861e:	f8dd a020 	ldr.w	sl, [sp, #32]
 8008622:	e04a      	b.n	80086ba <_dtoa_r+0x67a>
 8008624:	4615      	mov	r5, r2
 8008626:	e7f4      	b.n	8008612 <_dtoa_r+0x5d2>
 8008628:	4b05      	ldr	r3, [pc, #20]	; (8008640 <_dtoa_r+0x600>)
 800862a:	f7f7 ffe5 	bl	80005f8 <__aeabi_dmul>
 800862e:	e9cd 0100 	strd	r0, r1, [sp]
 8008632:	e7bc      	b.n	80085ae <_dtoa_r+0x56e>
 8008634:	0800b460 	.word	0x0800b460
 8008638:	0800b438 	.word	0x0800b438
 800863c:	3ff00000 	.word	0x3ff00000
 8008640:	40240000 	.word	0x40240000
 8008644:	401c0000 	.word	0x401c0000
 8008648:	40140000 	.word	0x40140000
 800864c:	3fe00000 	.word	0x3fe00000
 8008650:	e9dd 6700 	ldrd	r6, r7, [sp]
 8008654:	465d      	mov	r5, fp
 8008656:	e9dd 2302 	ldrd	r2, r3, [sp, #8]
 800865a:	4630      	mov	r0, r6
 800865c:	4639      	mov	r1, r7
 800865e:	f7f8 f8f5 	bl	800084c <__aeabi_ddiv>
 8008662:	f7f8 fa79 	bl	8000b58 <__aeabi_d2iz>
 8008666:	4680      	mov	r8, r0
 8008668:	f7f7 ff5c 	bl	8000524 <__aeabi_i2d>
 800866c:	e9dd 2302 	ldrd	r2, r3, [sp, #8]
 8008670:	f7f7 ffc2 	bl	80005f8 <__aeabi_dmul>
 8008674:	4602      	mov	r2, r0
 8008676:	460b      	mov	r3, r1
 8008678:	4630      	mov	r0, r6
 800867a:	4639      	mov	r1, r7
 800867c:	f108 0630 	add.w	r6, r8, #48	; 0x30
 8008680:	f7f7 fe02 	bl	8000288 <__aeabi_dsub>
 8008684:	f805 6b01 	strb.w	r6, [r5], #1
 8008688:	eba5 060b 	sub.w	r6, r5, fp
 800868c:	45b1      	cmp	r9, r6
 800868e:	4602      	mov	r2, r0
 8008690:	460b      	mov	r3, r1
 8008692:	d139      	bne.n	8008708 <_dtoa_r+0x6c8>
 8008694:	f7f7 fdfa 	bl	800028c <__adddf3>
 8008698:	e9dd 2302 	ldrd	r2, r3, [sp, #8]
 800869c:	4606      	mov	r6, r0
 800869e:	460f      	mov	r7, r1
 80086a0:	f7f8 fa3a 	bl	8000b18 <__aeabi_dcmpgt>
 80086a4:	b9c8      	cbnz	r0, 80086da <_dtoa_r+0x69a>
 80086a6:	e9dd 2302 	ldrd	r2, r3, [sp, #8]
 80086aa:	4630      	mov	r0, r6
 80086ac:	4639      	mov	r1, r7
 80086ae:	f7f8 fa0b 	bl	8000ac8 <__aeabi_dcmpeq>
 80086b2:	b110      	cbz	r0, 80086ba <_dtoa_r+0x67a>
 80086b4:	f018 0f01 	tst.w	r8, #1
 80086b8:	d10f      	bne.n	80086da <_dtoa_r+0x69a>
 80086ba:	9904      	ldr	r1, [sp, #16]
 80086bc:	4620      	mov	r0, r4
 80086be:	f000 fe00 	bl	80092c2 <_Bfree>
 80086c2:	2300      	movs	r3, #0
 80086c4:	9a12      	ldr	r2, [sp, #72]	; 0x48
 80086c6:	702b      	strb	r3, [r5, #0]
 80086c8:	f10a 0301 	add.w	r3, sl, #1
 80086cc:	6013      	str	r3, [r2, #0]
 80086ce:	9b21      	ldr	r3, [sp, #132]	; 0x84
 80086d0:	2b00      	cmp	r3, #0
 80086d2:	f000 8241 	beq.w	8008b58 <_dtoa_r+0xb18>
 80086d6:	601d      	str	r5, [r3, #0]
 80086d8:	e23e      	b.n	8008b58 <_dtoa_r+0xb18>
 80086da:	f8cd a020 	str.w	sl, [sp, #32]
 80086de:	f815 2c01 	ldrb.w	r2, [r5, #-1]
 80086e2:	2a39      	cmp	r2, #57	; 0x39
 80086e4:	f105 33ff 	add.w	r3, r5, #4294967295
 80086e8:	d108      	bne.n	80086fc <_dtoa_r+0x6bc>
 80086ea:	459b      	cmp	fp, r3
 80086ec:	d10a      	bne.n	8008704 <_dtoa_r+0x6c4>
 80086ee:	9b08      	ldr	r3, [sp, #32]
 80086f0:	3301      	adds	r3, #1
 80086f2:	9308      	str	r3, [sp, #32]
 80086f4:	2330      	movs	r3, #48	; 0x30
 80086f6:	f88b 3000 	strb.w	r3, [fp]
 80086fa:	465b      	mov	r3, fp
 80086fc:	781a      	ldrb	r2, [r3, #0]
 80086fe:	3201      	adds	r2, #1
 8008700:	701a      	strb	r2, [r3, #0]
 8008702:	e78c      	b.n	800861e <_dtoa_r+0x5de>
 8008704:	461d      	mov	r5, r3
 8008706:	e7ea      	b.n	80086de <_dtoa_r+0x69e>
 8008708:	2200      	movs	r2, #0
 800870a:	4b9b      	ldr	r3, [pc, #620]	; (8008978 <_dtoa_r+0x938>)
 800870c:	f7f7 ff74 	bl	80005f8 <__aeabi_dmul>
 8008710:	2200      	movs	r2, #0
 8008712:	2300      	movs	r3, #0
 8008714:	4606      	mov	r6, r0
 8008716:	460f      	mov	r7, r1
 8008718:	f7f8 f9d6 	bl	8000ac8 <__aeabi_dcmpeq>
 800871c:	2800      	cmp	r0, #0
 800871e:	d09a      	beq.n	8008656 <_dtoa_r+0x616>
 8008720:	e7cb      	b.n	80086ba <_dtoa_r+0x67a>
 8008722:	9a0a      	ldr	r2, [sp, #40]	; 0x28
 8008724:	2a00      	cmp	r2, #0
 8008726:	f000 808b 	beq.w	8008840 <_dtoa_r+0x800>
 800872a:	9a06      	ldr	r2, [sp, #24]
 800872c:	2a01      	cmp	r2, #1
 800872e:	dc6e      	bgt.n	800880e <_dtoa_r+0x7ce>
 8008730:	9a13      	ldr	r2, [sp, #76]	; 0x4c
 8008732:	2a00      	cmp	r2, #0
 8008734:	d067      	beq.n	8008806 <_dtoa_r+0x7c6>
 8008736:	f203 4333 	addw	r3, r3, #1075	; 0x433
 800873a:	9f07      	ldr	r7, [sp, #28]
 800873c:	9d05      	ldr	r5, [sp, #20]
 800873e:	9a05      	ldr	r2, [sp, #20]
 8008740:	2101      	movs	r1, #1
 8008742:	441a      	add	r2, r3
 8008744:	4620      	mov	r0, r4
 8008746:	9205      	str	r2, [sp, #20]
 8008748:	4498      	add	r8, r3
 800874a:	f000 fe98 	bl	800947e <__i2b>
 800874e:	4606      	mov	r6, r0
 8008750:	2d00      	cmp	r5, #0
 8008752:	dd0c      	ble.n	800876e <_dtoa_r+0x72e>
 8008754:	f1b8 0f00 	cmp.w	r8, #0
 8008758:	dd09      	ble.n	800876e <_dtoa_r+0x72e>
 800875a:	4545      	cmp	r5, r8
 800875c:	9a05      	ldr	r2, [sp, #20]
 800875e:	462b      	mov	r3, r5
 8008760:	bfa8      	it	ge
 8008762:	4643      	movge	r3, r8
 8008764:	1ad2      	subs	r2, r2, r3
 8008766:	9205      	str	r2, [sp, #20]
 8008768:	1aed      	subs	r5, r5, r3
 800876a:	eba8 0803 	sub.w	r8, r8, r3
 800876e:	9b07      	ldr	r3, [sp, #28]
 8008770:	b1eb      	cbz	r3, 80087ae <_dtoa_r+0x76e>
 8008772:	9b0a      	ldr	r3, [sp, #40]	; 0x28
 8008774:	2b00      	cmp	r3, #0
 8008776:	d067      	beq.n	8008848 <_dtoa_r+0x808>
 8008778:	b18f      	cbz	r7, 800879e <_dtoa_r+0x75e>
 800877a:	4631      	mov	r1, r6
 800877c:	463a      	mov	r2, r7
 800877e:	4620      	mov	r0, r4
 8008780:	f000 ff1c 	bl	80095bc <__pow5mult>
 8008784:	9a04      	ldr	r2, [sp, #16]
 8008786:	4601      	mov	r1, r0
 8008788:	4606      	mov	r6, r0
 800878a:	4620      	mov	r0, r4
 800878c:	f000 fe80 	bl	8009490 <__multiply>
 8008790:	9904      	ldr	r1, [sp, #16]
 8008792:	9008      	str	r0, [sp, #32]
 8008794:	4620      	mov	r0, r4
 8008796:	f000 fd94 	bl	80092c2 <_Bfree>
 800879a:	9b08      	ldr	r3, [sp, #32]
 800879c:	9304      	str	r3, [sp, #16]
 800879e:	9b07      	ldr	r3, [sp, #28]
 80087a0:	1bda      	subs	r2, r3, r7
 80087a2:	d004      	beq.n	80087ae <_dtoa_r+0x76e>
 80087a4:	9904      	ldr	r1, [sp, #16]
 80087a6:	4620      	mov	r0, r4
 80087a8:	f000 ff08 	bl	80095bc <__pow5mult>
 80087ac:	9004      	str	r0, [sp, #16]
 80087ae:	2101      	movs	r1, #1
 80087b0:	4620      	mov	r0, r4
 80087b2:	f000 fe64 	bl	800947e <__i2b>
 80087b6:	9b0e      	ldr	r3, [sp, #56]	; 0x38
 80087b8:	4607      	mov	r7, r0
 80087ba:	2b00      	cmp	r3, #0
 80087bc:	f000 81d0 	beq.w	8008b60 <_dtoa_r+0xb20>
 80087c0:	461a      	mov	r2, r3
 80087c2:	4601      	mov	r1, r0
 80087c4:	4620      	mov	r0, r4
 80087c6:	f000 fef9 	bl	80095bc <__pow5mult>
 80087ca:	9b06      	ldr	r3, [sp, #24]
 80087cc:	2b01      	cmp	r3, #1
 80087ce:	4607      	mov	r7, r0
 80087d0:	dc40      	bgt.n	8008854 <_dtoa_r+0x814>
 80087d2:	9b00      	ldr	r3, [sp, #0]
 80087d4:	2b00      	cmp	r3, #0
 80087d6:	d139      	bne.n	800884c <_dtoa_r+0x80c>
 80087d8:	9b01      	ldr	r3, [sp, #4]
 80087da:	f3c3 0313 	ubfx	r3, r3, #0, #20
 80087de:	2b00      	cmp	r3, #0
 80087e0:	d136      	bne.n	8008850 <_dtoa_r+0x810>
 80087e2:	9b01      	ldr	r3, [sp, #4]
 80087e4:	f023 4300 	bic.w	r3, r3, #2147483648	; 0x80000000
 80087e8:	0d1b      	lsrs	r3, r3, #20
 80087ea:	051b      	lsls	r3, r3, #20
 80087ec:	b12b      	cbz	r3, 80087fa <_dtoa_r+0x7ba>
 80087ee:	9b05      	ldr	r3, [sp, #20]
 80087f0:	3301      	adds	r3, #1
 80087f2:	9305      	str	r3, [sp, #20]
 80087f4:	f108 0801 	add.w	r8, r8, #1
 80087f8:	2301      	movs	r3, #1
 80087fa:	9307      	str	r3, [sp, #28]
 80087fc:	9b0e      	ldr	r3, [sp, #56]	; 0x38
 80087fe:	2b00      	cmp	r3, #0
 8008800:	d12a      	bne.n	8008858 <_dtoa_r+0x818>
 8008802:	2001      	movs	r0, #1
 8008804:	e030      	b.n	8008868 <_dtoa_r+0x828>
 8008806:	9b14      	ldr	r3, [sp, #80]	; 0x50
 8008808:	f1c3 0336 	rsb	r3, r3, #54	; 0x36
 800880c:	e795      	b.n	800873a <_dtoa_r+0x6fa>
 800880e:	9b07      	ldr	r3, [sp, #28]
 8008810:	f109 37ff 	add.w	r7, r9, #4294967295
 8008814:	42bb      	cmp	r3, r7
 8008816:	bfbf      	itttt	lt
 8008818:	9b07      	ldrlt	r3, [sp, #28]
 800881a:	9707      	strlt	r7, [sp, #28]
 800881c:	1afa      	sublt	r2, r7, r3
 800881e:	9b0e      	ldrlt	r3, [sp, #56]	; 0x38
 8008820:	bfbb      	ittet	lt
 8008822:	189b      	addlt	r3, r3, r2
 8008824:	930e      	strlt	r3, [sp, #56]	; 0x38
 8008826:	1bdf      	subge	r7, r3, r7
 8008828:	2700      	movlt	r7, #0
 800882a:	f1b9 0f00 	cmp.w	r9, #0
 800882e:	bfb5      	itete	lt
 8008830:	9b05      	ldrlt	r3, [sp, #20]
 8008832:	9d05      	ldrge	r5, [sp, #20]
 8008834:	eba3 0509 	sublt.w	r5, r3, r9
 8008838:	464b      	movge	r3, r9
 800883a:	bfb8      	it	lt
 800883c:	2300      	movlt	r3, #0
 800883e:	e77e      	b.n	800873e <_dtoa_r+0x6fe>
 8008840:	9f07      	ldr	r7, [sp, #28]
 8008842:	9d05      	ldr	r5, [sp, #20]
 8008844:	9e0a      	ldr	r6, [sp, #40]	; 0x28
 8008846:	e783      	b.n	8008750 <_dtoa_r+0x710>
 8008848:	9a07      	ldr	r2, [sp, #28]
 800884a:	e7ab      	b.n	80087a4 <_dtoa_r+0x764>
 800884c:	2300      	movs	r3, #0
 800884e:	e7d4      	b.n	80087fa <_dtoa_r+0x7ba>
 8008850:	9b00      	ldr	r3, [sp, #0]
 8008852:	e7d2      	b.n	80087fa <_dtoa_r+0x7ba>
 8008854:	2300      	movs	r3, #0
 8008856:	9307      	str	r3, [sp, #28]
 8008858:	693b      	ldr	r3, [r7, #16]
 800885a:	eb07 0383 	add.w	r3, r7, r3, lsl #2
 800885e:	6918      	ldr	r0, [r3, #16]
 8008860:	f000 fdbf 	bl	80093e2 <__hi0bits>
 8008864:	f1c0 0020 	rsb	r0, r0, #32
 8008868:	4440      	add	r0, r8
 800886a:	f010 001f 	ands.w	r0, r0, #31
 800886e:	d047      	beq.n	8008900 <_dtoa_r+0x8c0>
 8008870:	f1c0 0320 	rsb	r3, r0, #32
 8008874:	2b04      	cmp	r3, #4
 8008876:	dd3b      	ble.n	80088f0 <_dtoa_r+0x8b0>
 8008878:	9b05      	ldr	r3, [sp, #20]
 800887a:	f1c0 001c 	rsb	r0, r0, #28
 800887e:	4403      	add	r3, r0
 8008880:	9305      	str	r3, [sp, #20]
 8008882:	4405      	add	r5, r0
 8008884:	4480      	add	r8, r0
 8008886:	9b05      	ldr	r3, [sp, #20]
 8008888:	2b00      	cmp	r3, #0
 800888a:	dd05      	ble.n	8008898 <_dtoa_r+0x858>
 800888c:	461a      	mov	r2, r3
 800888e:	9904      	ldr	r1, [sp, #16]
 8008890:	4620      	mov	r0, r4
 8008892:	f000 fee1 	bl	8009658 <__lshift>
 8008896:	9004      	str	r0, [sp, #16]
 8008898:	f1b8 0f00 	cmp.w	r8, #0
 800889c:	dd05      	ble.n	80088aa <_dtoa_r+0x86a>
 800889e:	4639      	mov	r1, r7
 80088a0:	4642      	mov	r2, r8
 80088a2:	4620      	mov	r0, r4
 80088a4:	f000 fed8 	bl	8009658 <__lshift>
 80088a8:	4607      	mov	r7, r0
 80088aa:	9b0f      	ldr	r3, [sp, #60]	; 0x3c
 80088ac:	b353      	cbz	r3, 8008904 <_dtoa_r+0x8c4>
 80088ae:	4639      	mov	r1, r7
 80088b0:	9804      	ldr	r0, [sp, #16]
 80088b2:	f000 ff25 	bl	8009700 <__mcmp>
 80088b6:	2800      	cmp	r0, #0
 80088b8:	da24      	bge.n	8008904 <_dtoa_r+0x8c4>
 80088ba:	2300      	movs	r3, #0
 80088bc:	220a      	movs	r2, #10
 80088be:	9904      	ldr	r1, [sp, #16]
 80088c0:	4620      	mov	r0, r4
 80088c2:	f000 fd15 	bl	80092f0 <__multadd>
 80088c6:	9b0a      	ldr	r3, [sp, #40]	; 0x28
 80088c8:	9004      	str	r0, [sp, #16]
 80088ca:	f10a 3aff 	add.w	sl, sl, #4294967295
 80088ce:	2b00      	cmp	r3, #0
 80088d0:	f000 814d 	beq.w	8008b6e <_dtoa_r+0xb2e>
 80088d4:	2300      	movs	r3, #0
 80088d6:	4631      	mov	r1, r6
 80088d8:	220a      	movs	r2, #10
 80088da:	4620      	mov	r0, r4
 80088dc:	f000 fd08 	bl	80092f0 <__multadd>
 80088e0:	9b02      	ldr	r3, [sp, #8]
 80088e2:	2b00      	cmp	r3, #0
 80088e4:	4606      	mov	r6, r0
 80088e6:	dc4f      	bgt.n	8008988 <_dtoa_r+0x948>
 80088e8:	9b06      	ldr	r3, [sp, #24]
 80088ea:	2b02      	cmp	r3, #2
 80088ec:	dd4c      	ble.n	8008988 <_dtoa_r+0x948>
 80088ee:	e011      	b.n	8008914 <_dtoa_r+0x8d4>
 80088f0:	d0c9      	beq.n	8008886 <_dtoa_r+0x846>
 80088f2:	9a05      	ldr	r2, [sp, #20]
 80088f4:	331c      	adds	r3, #28
 80088f6:	441a      	add	r2, r3
 80088f8:	9205      	str	r2, [sp, #20]
 80088fa:	441d      	add	r5, r3
 80088fc:	4498      	add	r8, r3
 80088fe:	e7c2      	b.n	8008886 <_dtoa_r+0x846>
 8008900:	4603      	mov	r3, r0
 8008902:	e7f6      	b.n	80088f2 <_dtoa_r+0x8b2>
 8008904:	f1b9 0f00 	cmp.w	r9, #0
 8008908:	dc38      	bgt.n	800897c <_dtoa_r+0x93c>
 800890a:	9b06      	ldr	r3, [sp, #24]
 800890c:	2b02      	cmp	r3, #2
 800890e:	dd35      	ble.n	800897c <_dtoa_r+0x93c>
 8008910:	f8cd 9008 	str.w	r9, [sp, #8]
 8008914:	9b02      	ldr	r3, [sp, #8]
 8008916:	b963      	cbnz	r3, 8008932 <_dtoa_r+0x8f2>
 8008918:	4639      	mov	r1, r7
 800891a:	2205      	movs	r2, #5
 800891c:	4620      	mov	r0, r4
 800891e:	f000 fce7 	bl	80092f0 <__multadd>
 8008922:	4601      	mov	r1, r0
 8008924:	4607      	mov	r7, r0
 8008926:	9804      	ldr	r0, [sp, #16]
 8008928:	f000 feea 	bl	8009700 <__mcmp>
 800892c:	2800      	cmp	r0, #0
 800892e:	f73f adcc 	bgt.w	80084ca <_dtoa_r+0x48a>
 8008932:	9b0b      	ldr	r3, [sp, #44]	; 0x2c
 8008934:	465d      	mov	r5, fp
 8008936:	ea6f 0a03 	mvn.w	sl, r3
 800893a:	f04f 0900 	mov.w	r9, #0
 800893e:	4639      	mov	r1, r7
 8008940:	4620      	mov	r0, r4
 8008942:	f000 fcbe 	bl	80092c2 <_Bfree>
 8008946:	2e00      	cmp	r6, #0
 8008948:	f43f aeb7 	beq.w	80086ba <_dtoa_r+0x67a>
 800894c:	f1b9 0f00 	cmp.w	r9, #0
 8008950:	d005      	beq.n	800895e <_dtoa_r+0x91e>
 8008952:	45b1      	cmp	r9, r6
 8008954:	d003      	beq.n	800895e <_dtoa_r+0x91e>
 8008956:	4649      	mov	r1, r9
 8008958:	4620      	mov	r0, r4
 800895a:	f000 fcb2 	bl	80092c2 <_Bfree>
 800895e:	4631      	mov	r1, r6
 8008960:	4620      	mov	r0, r4
 8008962:	f000 fcae 	bl	80092c2 <_Bfree>
 8008966:	e6a8      	b.n	80086ba <_dtoa_r+0x67a>
 8008968:	2700      	movs	r7, #0
 800896a:	463e      	mov	r6, r7
 800896c:	e7e1      	b.n	8008932 <_dtoa_r+0x8f2>
 800896e:	f8dd a020 	ldr.w	sl, [sp, #32]
 8008972:	463e      	mov	r6, r7
 8008974:	e5a9      	b.n	80084ca <_dtoa_r+0x48a>
 8008976:	bf00      	nop
 8008978:	40240000 	.word	0x40240000
 800897c:	9b0a      	ldr	r3, [sp, #40]	; 0x28
 800897e:	f8cd 9008 	str.w	r9, [sp, #8]
 8008982:	2b00      	cmp	r3, #0
 8008984:	f000 80fa 	beq.w	8008b7c <_dtoa_r+0xb3c>
 8008988:	2d00      	cmp	r5, #0
 800898a:	dd05      	ble.n	8008998 <_dtoa_r+0x958>
 800898c:	4631      	mov	r1, r6
 800898e:	462a      	mov	r2, r5
 8008990:	4620      	mov	r0, r4
 8008992:	f000 fe61 	bl	8009658 <__lshift>
 8008996:	4606      	mov	r6, r0
 8008998:	9b07      	ldr	r3, [sp, #28]
 800899a:	2b00      	cmp	r3, #0
 800899c:	d04c      	beq.n	8008a38 <_dtoa_r+0x9f8>
 800899e:	6871      	ldr	r1, [r6, #4]
 80089a0:	4620      	mov	r0, r4
 80089a2:	f000 fc5a 	bl	800925a <_Balloc>
 80089a6:	6932      	ldr	r2, [r6, #16]
 80089a8:	3202      	adds	r2, #2
 80089aa:	4605      	mov	r5, r0
 80089ac:	0092      	lsls	r2, r2, #2
 80089ae:	f106 010c 	add.w	r1, r6, #12
 80089b2:	300c      	adds	r0, #12
 80089b4:	f000 fc44 	bl	8009240 <memcpy>
 80089b8:	2201      	movs	r2, #1
 80089ba:	4629      	mov	r1, r5
 80089bc:	4620      	mov	r0, r4
 80089be:	f000 fe4b 	bl	8009658 <__lshift>
 80089c2:	9b00      	ldr	r3, [sp, #0]
 80089c4:	f8cd b014 	str.w	fp, [sp, #20]
 80089c8:	f003 0301 	and.w	r3, r3, #1
 80089cc:	46b1      	mov	r9, r6
 80089ce:	9307      	str	r3, [sp, #28]
 80089d0:	4606      	mov	r6, r0
 80089d2:	4639      	mov	r1, r7
 80089d4:	9804      	ldr	r0, [sp, #16]
 80089d6:	f7ff faa7 	bl	8007f28 <quorem>
 80089da:	4649      	mov	r1, r9
 80089dc:	4605      	mov	r5, r0
 80089de:	f100 0830 	add.w	r8, r0, #48	; 0x30
 80089e2:	9804      	ldr	r0, [sp, #16]
 80089e4:	f000 fe8c 	bl	8009700 <__mcmp>
 80089e8:	4632      	mov	r2, r6
 80089ea:	9000      	str	r0, [sp, #0]
 80089ec:	4639      	mov	r1, r7
 80089ee:	4620      	mov	r0, r4
 80089f0:	f000 fea0 	bl	8009734 <__mdiff>
 80089f4:	68c3      	ldr	r3, [r0, #12]
 80089f6:	4602      	mov	r2, r0
 80089f8:	bb03      	cbnz	r3, 8008a3c <_dtoa_r+0x9fc>
 80089fa:	4601      	mov	r1, r0
 80089fc:	9008      	str	r0, [sp, #32]
 80089fe:	9804      	ldr	r0, [sp, #16]
 8008a00:	f000 fe7e 	bl	8009700 <__mcmp>
 8008a04:	9a08      	ldr	r2, [sp, #32]
 8008a06:	4603      	mov	r3, r0
 8008a08:	4611      	mov	r1, r2
 8008a0a:	4620      	mov	r0, r4
 8008a0c:	9308      	str	r3, [sp, #32]
 8008a0e:	f000 fc58 	bl	80092c2 <_Bfree>
 8008a12:	9b08      	ldr	r3, [sp, #32]
 8008a14:	b9a3      	cbnz	r3, 8008a40 <_dtoa_r+0xa00>
 8008a16:	9a06      	ldr	r2, [sp, #24]
 8008a18:	b992      	cbnz	r2, 8008a40 <_dtoa_r+0xa00>
 8008a1a:	9a07      	ldr	r2, [sp, #28]
 8008a1c:	b982      	cbnz	r2, 8008a40 <_dtoa_r+0xa00>
 8008a1e:	f1b8 0f39 	cmp.w	r8, #57	; 0x39
 8008a22:	d029      	beq.n	8008a78 <_dtoa_r+0xa38>
 8008a24:	9b00      	ldr	r3, [sp, #0]
 8008a26:	2b00      	cmp	r3, #0
 8008a28:	dd01      	ble.n	8008a2e <_dtoa_r+0x9ee>
 8008a2a:	f105 0831 	add.w	r8, r5, #49	; 0x31
 8008a2e:	9b05      	ldr	r3, [sp, #20]
 8008a30:	1c5d      	adds	r5, r3, #1
 8008a32:	f883 8000 	strb.w	r8, [r3]
 8008a36:	e782      	b.n	800893e <_dtoa_r+0x8fe>
 8008a38:	4630      	mov	r0, r6
 8008a3a:	e7c2      	b.n	80089c2 <_dtoa_r+0x982>
 8008a3c:	2301      	movs	r3, #1
 8008a3e:	e7e3      	b.n	8008a08 <_dtoa_r+0x9c8>
 8008a40:	9a00      	ldr	r2, [sp, #0]
 8008a42:	2a00      	cmp	r2, #0
 8008a44:	db04      	blt.n	8008a50 <_dtoa_r+0xa10>
 8008a46:	d125      	bne.n	8008a94 <_dtoa_r+0xa54>
 8008a48:	9a06      	ldr	r2, [sp, #24]
 8008a4a:	bb1a      	cbnz	r2, 8008a94 <_dtoa_r+0xa54>
 8008a4c:	9a07      	ldr	r2, [sp, #28]
 8008a4e:	bb0a      	cbnz	r2, 8008a94 <_dtoa_r+0xa54>
 8008a50:	2b00      	cmp	r3, #0
 8008a52:	ddec      	ble.n	8008a2e <_dtoa_r+0x9ee>
 8008a54:	2201      	movs	r2, #1
 8008a56:	9904      	ldr	r1, [sp, #16]
 8008a58:	4620      	mov	r0, r4
 8008a5a:	f000 fdfd 	bl	8009658 <__lshift>
 8008a5e:	4639      	mov	r1, r7
 8008a60:	9004      	str	r0, [sp, #16]
 8008a62:	f000 fe4d 	bl	8009700 <__mcmp>
 8008a66:	2800      	cmp	r0, #0
 8008a68:	dc03      	bgt.n	8008a72 <_dtoa_r+0xa32>
 8008a6a:	d1e0      	bne.n	8008a2e <_dtoa_r+0x9ee>
 8008a6c:	f018 0f01 	tst.w	r8, #1
 8008a70:	d0dd      	beq.n	8008a2e <_dtoa_r+0x9ee>
 8008a72:	f1b8 0f39 	cmp.w	r8, #57	; 0x39
 8008a76:	d1d8      	bne.n	8008a2a <_dtoa_r+0x9ea>
 8008a78:	9b05      	ldr	r3, [sp, #20]
 8008a7a:	9a05      	ldr	r2, [sp, #20]
 8008a7c:	1c5d      	adds	r5, r3, #1
 8008a7e:	2339      	movs	r3, #57	; 0x39
 8008a80:	7013      	strb	r3, [r2, #0]
 8008a82:	f815 3c01 	ldrb.w	r3, [r5, #-1]
 8008a86:	2b39      	cmp	r3, #57	; 0x39
 8008a88:	f105 32ff 	add.w	r2, r5, #4294967295
 8008a8c:	d04f      	beq.n	8008b2e <_dtoa_r+0xaee>
 8008a8e:	3301      	adds	r3, #1
 8008a90:	7013      	strb	r3, [r2, #0]
 8008a92:	e754      	b.n	800893e <_dtoa_r+0x8fe>
 8008a94:	9a05      	ldr	r2, [sp, #20]
 8008a96:	2b00      	cmp	r3, #0
 8008a98:	f102 0501 	add.w	r5, r2, #1
 8008a9c:	dd06      	ble.n	8008aac <_dtoa_r+0xa6c>
 8008a9e:	f1b8 0f39 	cmp.w	r8, #57	; 0x39
 8008aa2:	d0e9      	beq.n	8008a78 <_dtoa_r+0xa38>
 8008aa4:	f108 0801 	add.w	r8, r8, #1
 8008aa8:	9b05      	ldr	r3, [sp, #20]
 8008aaa:	e7c2      	b.n	8008a32 <_dtoa_r+0x9f2>
 8008aac:	9a02      	ldr	r2, [sp, #8]
 8008aae:	f805 8c01 	strb.w	r8, [r5, #-1]
 8008ab2:	eba5 030b 	sub.w	r3, r5, fp
 8008ab6:	4293      	cmp	r3, r2
 8008ab8:	d021      	beq.n	8008afe <_dtoa_r+0xabe>
 8008aba:	2300      	movs	r3, #0
 8008abc:	220a      	movs	r2, #10
 8008abe:	9904      	ldr	r1, [sp, #16]
 8008ac0:	4620      	mov	r0, r4
 8008ac2:	f000 fc15 	bl	80092f0 <__multadd>
 8008ac6:	45b1      	cmp	r9, r6
 8008ac8:	9004      	str	r0, [sp, #16]
 8008aca:	f04f 0300 	mov.w	r3, #0
 8008ace:	f04f 020a 	mov.w	r2, #10
 8008ad2:	4649      	mov	r1, r9
 8008ad4:	4620      	mov	r0, r4
 8008ad6:	d105      	bne.n	8008ae4 <_dtoa_r+0xaa4>
 8008ad8:	f000 fc0a 	bl	80092f0 <__multadd>
 8008adc:	4681      	mov	r9, r0
 8008ade:	4606      	mov	r6, r0
 8008ae0:	9505      	str	r5, [sp, #20]
 8008ae2:	e776      	b.n	80089d2 <_dtoa_r+0x992>
 8008ae4:	f000 fc04 	bl	80092f0 <__multadd>
 8008ae8:	4631      	mov	r1, r6
 8008aea:	4681      	mov	r9, r0
 8008aec:	2300      	movs	r3, #0
 8008aee:	220a      	movs	r2, #10
 8008af0:	4620      	mov	r0, r4
 8008af2:	f000 fbfd 	bl	80092f0 <__multadd>
 8008af6:	4606      	mov	r6, r0
 8008af8:	e7f2      	b.n	8008ae0 <_dtoa_r+0xaa0>
 8008afa:	f04f 0900 	mov.w	r9, #0
 8008afe:	2201      	movs	r2, #1
 8008b00:	9904      	ldr	r1, [sp, #16]
 8008b02:	4620      	mov	r0, r4
 8008b04:	f000 fda8 	bl	8009658 <__lshift>
 8008b08:	4639      	mov	r1, r7
 8008b0a:	9004      	str	r0, [sp, #16]
 8008b0c:	f000 fdf8 	bl	8009700 <__mcmp>
 8008b10:	2800      	cmp	r0, #0
 8008b12:	dcb6      	bgt.n	8008a82 <_dtoa_r+0xa42>
 8008b14:	d102      	bne.n	8008b1c <_dtoa_r+0xadc>
 8008b16:	f018 0f01 	tst.w	r8, #1
 8008b1a:	d1b2      	bne.n	8008a82 <_dtoa_r+0xa42>
 8008b1c:	f815 3c01 	ldrb.w	r3, [r5, #-1]
 8008b20:	2b30      	cmp	r3, #48	; 0x30
 8008b22:	f105 32ff 	add.w	r2, r5, #4294967295
 8008b26:	f47f af0a 	bne.w	800893e <_dtoa_r+0x8fe>
 8008b2a:	4615      	mov	r5, r2
 8008b2c:	e7f6      	b.n	8008b1c <_dtoa_r+0xadc>
 8008b2e:	4593      	cmp	fp, r2
 8008b30:	d105      	bne.n	8008b3e <_dtoa_r+0xafe>
 8008b32:	2331      	movs	r3, #49	; 0x31
 8008b34:	f10a 0a01 	add.w	sl, sl, #1
 8008b38:	f88b 3000 	strb.w	r3, [fp]
 8008b3c:	e6ff      	b.n	800893e <_dtoa_r+0x8fe>
 8008b3e:	4615      	mov	r5, r2
 8008b40:	e79f      	b.n	8008a82 <_dtoa_r+0xa42>
 8008b42:	f8df b064 	ldr.w	fp, [pc, #100]	; 8008ba8 <_dtoa_r+0xb68>
 8008b46:	e007      	b.n	8008b58 <_dtoa_r+0xb18>
 8008b48:	9b21      	ldr	r3, [sp, #132]	; 0x84
 8008b4a:	f8df b060 	ldr.w	fp, [pc, #96]	; 8008bac <_dtoa_r+0xb6c>
 8008b4e:	b11b      	cbz	r3, 8008b58 <_dtoa_r+0xb18>
 8008b50:	f10b 0308 	add.w	r3, fp, #8
 8008b54:	9a21      	ldr	r2, [sp, #132]	; 0x84
 8008b56:	6013      	str	r3, [r2, #0]
 8008b58:	4658      	mov	r0, fp
 8008b5a:	b017      	add	sp, #92	; 0x5c
 8008b5c:	e8bd 8ff0 	ldmia.w	sp!, {r4, r5, r6, r7, r8, r9, sl, fp, pc}
 8008b60:	9b06      	ldr	r3, [sp, #24]
 8008b62:	2b01      	cmp	r3, #1
 8008b64:	f77f ae35 	ble.w	80087d2 <_dtoa_r+0x792>
 8008b68:	9b0e      	ldr	r3, [sp, #56]	; 0x38
 8008b6a:	9307      	str	r3, [sp, #28]
 8008b6c:	e649      	b.n	8008802 <_dtoa_r+0x7c2>
 8008b6e:	9b02      	ldr	r3, [sp, #8]
 8008b70:	2b00      	cmp	r3, #0
 8008b72:	dc03      	bgt.n	8008b7c <_dtoa_r+0xb3c>
 8008b74:	9b06      	ldr	r3, [sp, #24]
 8008b76:	2b02      	cmp	r3, #2
 8008b78:	f73f aecc 	bgt.w	8008914 <_dtoa_r+0x8d4>
 8008b7c:	465d      	mov	r5, fp
 8008b7e:	4639      	mov	r1, r7
 8008b80:	9804      	ldr	r0, [sp, #16]
 8008b82:	f7ff f9d1 	bl	8007f28 <quorem>
 8008b86:	f100 0830 	add.w	r8, r0, #48	; 0x30
 8008b8a:	f805 8b01 	strb.w	r8, [r5], #1
 8008b8e:	9a02      	ldr	r2, [sp, #8]
 8008b90:	eba5 030b 	sub.w	r3, r5, fp
 8008b94:	429a      	cmp	r2, r3
 8008b96:	ddb0      	ble.n	8008afa <_dtoa_r+0xaba>
 8008b98:	2300      	movs	r3, #0
 8008b9a:	220a      	movs	r2, #10
 8008b9c:	9904      	ldr	r1, [sp, #16]
 8008b9e:	4620      	mov	r0, r4
 8008ba0:	f000 fba6 	bl	80092f0 <__multadd>
 8008ba4:	9004      	str	r0, [sp, #16]
 8008ba6:	e7ea      	b.n	8008b7e <_dtoa_r+0xb3e>
 8008ba8:	0800b3ac 	.word	0x0800b3ac
 8008bac:	0800b420 	.word	0x0800b420

08008bb0 <rshift>:
 8008bb0:	b5f0      	push	{r4, r5, r6, r7, lr}
 8008bb2:	6906      	ldr	r6, [r0, #16]
 8008bb4:	114b      	asrs	r3, r1, #5
 8008bb6:	429e      	cmp	r6, r3
 8008bb8:	f100 0414 	add.w	r4, r0, #20
 8008bbc:	dd30      	ble.n	8008c20 <rshift+0x70>
 8008bbe:	f011 011f 	ands.w	r1, r1, #31
 8008bc2:	eb04 0686 	add.w	r6, r4, r6, lsl #2
 8008bc6:	eb04 0283 	add.w	r2, r4, r3, lsl #2
 8008bca:	d108      	bne.n	8008bde <rshift+0x2e>
 8008bcc:	4621      	mov	r1, r4
 8008bce:	42b2      	cmp	r2, r6
 8008bd0:	460b      	mov	r3, r1
 8008bd2:	d211      	bcs.n	8008bf8 <rshift+0x48>
 8008bd4:	f852 3b04 	ldr.w	r3, [r2], #4
 8008bd8:	f841 3b04 	str.w	r3, [r1], #4
 8008bdc:	e7f7      	b.n	8008bce <rshift+0x1e>
 8008bde:	f854 5023 	ldr.w	r5, [r4, r3, lsl #2]
 8008be2:	f1c1 0c20 	rsb	ip, r1, #32
 8008be6:	40cd      	lsrs	r5, r1
 8008be8:	3204      	adds	r2, #4
 8008bea:	4623      	mov	r3, r4
 8008bec:	42b2      	cmp	r2, r6
 8008bee:	4617      	mov	r7, r2
 8008bf0:	d30c      	bcc.n	8008c0c <rshift+0x5c>
 8008bf2:	601d      	str	r5, [r3, #0]
 8008bf4:	b105      	cbz	r5, 8008bf8 <rshift+0x48>
 8008bf6:	3304      	adds	r3, #4
 8008bf8:	1b1a      	subs	r2, r3, r4
 8008bfa:	42a3      	cmp	r3, r4
 8008bfc:	ea4f 02a2 	mov.w	r2, r2, asr #2
 8008c00:	bf08      	it	eq
 8008c02:	2300      	moveq	r3, #0
 8008c04:	6102      	str	r2, [r0, #16]
 8008c06:	bf08      	it	eq
 8008c08:	6143      	streq	r3, [r0, #20]
 8008c0a:	bdf0      	pop	{r4, r5, r6, r7, pc}
 8008c0c:	683f      	ldr	r7, [r7, #0]
 8008c0e:	fa07 f70c 	lsl.w	r7, r7, ip
 8008c12:	433d      	orrs	r5, r7
 8008c14:	f843 5b04 	str.w	r5, [r3], #4
 8008c18:	f852 5b04 	ldr.w	r5, [r2], #4
 8008c1c:	40cd      	lsrs	r5, r1
 8008c1e:	e7e5      	b.n	8008bec <rshift+0x3c>
 8008c20:	4623      	mov	r3, r4
 8008c22:	e7e9      	b.n	8008bf8 <rshift+0x48>

08008c24 <__hexdig_fun>:
 8008c24:	f1a0 0330 	sub.w	r3, r0, #48	; 0x30
 8008c28:	2b09      	cmp	r3, #9
 8008c2a:	d802      	bhi.n	8008c32 <__hexdig_fun+0xe>
 8008c2c:	3820      	subs	r0, #32
 8008c2e:	b2c0      	uxtb	r0, r0
 8008c30:	4770      	bx	lr
 8008c32:	f1a0 0361 	sub.w	r3, r0, #97	; 0x61
 8008c36:	2b05      	cmp	r3, #5
 8008c38:	d801      	bhi.n	8008c3e <__hexdig_fun+0x1a>
 8008c3a:	3847      	subs	r0, #71	; 0x47
 8008c3c:	e7f7      	b.n	8008c2e <__hexdig_fun+0xa>
 8008c3e:	f1a0 0341 	sub.w	r3, r0, #65	; 0x41
 8008c42:	2b05      	cmp	r3, #5
 8008c44:	d801      	bhi.n	8008c4a <__hexdig_fun+0x26>
 8008c46:	3827      	subs	r0, #39	; 0x27
 8008c48:	e7f1      	b.n	8008c2e <__hexdig_fun+0xa>
 8008c4a:	2000      	movs	r0, #0
 8008c4c:	4770      	bx	lr

08008c4e <__gethex>:
 8008c4e:	e92d 4ff0 	stmdb	sp!, {r4, r5, r6, r7, r8, r9, sl, fp, lr}
 8008c52:	b08b      	sub	sp, #44	; 0x2c
 8008c54:	468a      	mov	sl, r1
 8008c56:	9002      	str	r0, [sp, #8]
 8008c58:	9816      	ldr	r0, [sp, #88]	; 0x58
 8008c5a:	9306      	str	r3, [sp, #24]
 8008c5c:	4690      	mov	r8, r2
 8008c5e:	f000 facd 	bl	80091fc <__localeconv_l>
 8008c62:	6803      	ldr	r3, [r0, #0]
 8008c64:	9303      	str	r3, [sp, #12]
 8008c66:	4618      	mov	r0, r3
 8008c68:	f7f7 fab2 	bl	80001d0 <strlen>
 8008c6c:	9b03      	ldr	r3, [sp, #12]
 8008c6e:	9001      	str	r0, [sp, #4]
 8008c70:	4403      	add	r3, r0
 8008c72:	f04f 0b00 	mov.w	fp, #0
 8008c76:	f813 3c01 	ldrb.w	r3, [r3, #-1]
 8008c7a:	9307      	str	r3, [sp, #28]
 8008c7c:	f8da 3000 	ldr.w	r3, [sl]
 8008c80:	3302      	adds	r3, #2
 8008c82:	461f      	mov	r7, r3
 8008c84:	f813 0b01 	ldrb.w	r0, [r3], #1
 8008c88:	2830      	cmp	r0, #48	; 0x30
 8008c8a:	d06c      	beq.n	8008d66 <__gethex+0x118>
 8008c8c:	f7ff ffca 	bl	8008c24 <__hexdig_fun>
 8008c90:	4604      	mov	r4, r0
 8008c92:	2800      	cmp	r0, #0
 8008c94:	d16a      	bne.n	8008d6c <__gethex+0x11e>
 8008c96:	9a01      	ldr	r2, [sp, #4]
 8008c98:	9903      	ldr	r1, [sp, #12]
 8008c9a:	4638      	mov	r0, r7
 8008c9c:	f001 f83c 	bl	8009d18 <strncmp>
 8008ca0:	2800      	cmp	r0, #0
 8008ca2:	d166      	bne.n	8008d72 <__gethex+0x124>
 8008ca4:	9b01      	ldr	r3, [sp, #4]
 8008ca6:	5cf8      	ldrb	r0, [r7, r3]
 8008ca8:	18fe      	adds	r6, r7, r3
 8008caa:	f7ff ffbb 	bl	8008c24 <__hexdig_fun>
 8008cae:	2800      	cmp	r0, #0
 8008cb0:	d062      	beq.n	8008d78 <__gethex+0x12a>
 8008cb2:	4633      	mov	r3, r6
 8008cb4:	7818      	ldrb	r0, [r3, #0]
 8008cb6:	2830      	cmp	r0, #48	; 0x30
 8008cb8:	461f      	mov	r7, r3
 8008cba:	f103 0301 	add.w	r3, r3, #1
 8008cbe:	d0f9      	beq.n	8008cb4 <__gethex+0x66>
 8008cc0:	f7ff ffb0 	bl	8008c24 <__hexdig_fun>
 8008cc4:	fab0 f580 	clz	r5, r0
 8008cc8:	096d      	lsrs	r5, r5, #5
 8008cca:	4634      	mov	r4, r6
 8008ccc:	f04f 0b01 	mov.w	fp, #1
 8008cd0:	463a      	mov	r2, r7
 8008cd2:	4616      	mov	r6, r2
 8008cd4:	3201      	adds	r2, #1
 8008cd6:	7830      	ldrb	r0, [r6, #0]
 8008cd8:	f7ff ffa4 	bl	8008c24 <__hexdig_fun>
 8008cdc:	2800      	cmp	r0, #0
 8008cde:	d1f8      	bne.n	8008cd2 <__gethex+0x84>
 8008ce0:	9a01      	ldr	r2, [sp, #4]
 8008ce2:	9903      	ldr	r1, [sp, #12]
 8008ce4:	4630      	mov	r0, r6
 8008ce6:	f001 f817 	bl	8009d18 <strncmp>
 8008cea:	b950      	cbnz	r0, 8008d02 <__gethex+0xb4>
 8008cec:	b954      	cbnz	r4, 8008d04 <__gethex+0xb6>
 8008cee:	9b01      	ldr	r3, [sp, #4]
 8008cf0:	18f4      	adds	r4, r6, r3
 8008cf2:	4622      	mov	r2, r4
 8008cf4:	4616      	mov	r6, r2
 8008cf6:	3201      	adds	r2, #1
 8008cf8:	7830      	ldrb	r0, [r6, #0]
 8008cfa:	f7ff ff93 	bl	8008c24 <__hexdig_fun>
 8008cfe:	2800      	cmp	r0, #0
 8008d00:	d1f8      	bne.n	8008cf4 <__gethex+0xa6>
 8008d02:	b10c      	cbz	r4, 8008d08 <__gethex+0xba>
 8008d04:	1ba4      	subs	r4, r4, r6
 8008d06:	00a4      	lsls	r4, r4, #2
 8008d08:	7833      	ldrb	r3, [r6, #0]
 8008d0a:	2b50      	cmp	r3, #80	; 0x50
 8008d0c:	d001      	beq.n	8008d12 <__gethex+0xc4>
 8008d0e:	2b70      	cmp	r3, #112	; 0x70
 8008d10:	d140      	bne.n	8008d94 <__gethex+0x146>
 8008d12:	7873      	ldrb	r3, [r6, #1]
 8008d14:	2b2b      	cmp	r3, #43	; 0x2b
 8008d16:	d031      	beq.n	8008d7c <__gethex+0x12e>
 8008d18:	2b2d      	cmp	r3, #45	; 0x2d
 8008d1a:	d033      	beq.n	8008d84 <__gethex+0x136>
 8008d1c:	1c71      	adds	r1, r6, #1
 8008d1e:	f04f 0900 	mov.w	r9, #0
 8008d22:	7808      	ldrb	r0, [r1, #0]
 8008d24:	f7ff ff7e 	bl	8008c24 <__hexdig_fun>
 8008d28:	1e43      	subs	r3, r0, #1
 8008d2a:	b2db      	uxtb	r3, r3
 8008d2c:	2b18      	cmp	r3, #24
 8008d2e:	d831      	bhi.n	8008d94 <__gethex+0x146>
 8008d30:	f1a0 0210 	sub.w	r2, r0, #16
 8008d34:	f811 0f01 	ldrb.w	r0, [r1, #1]!
 8008d38:	f7ff ff74 	bl	8008c24 <__hexdig_fun>
 8008d3c:	1e43      	subs	r3, r0, #1
 8008d3e:	b2db      	uxtb	r3, r3
 8008d40:	2b18      	cmp	r3, #24
 8008d42:	d922      	bls.n	8008d8a <__gethex+0x13c>
 8008d44:	f1b9 0f00 	cmp.w	r9, #0
 8008d48:	d000      	beq.n	8008d4c <__gethex+0xfe>
 8008d4a:	4252      	negs	r2, r2
 8008d4c:	4414      	add	r4, r2
 8008d4e:	f8ca 1000 	str.w	r1, [sl]
 8008d52:	b30d      	cbz	r5, 8008d98 <__gethex+0x14a>
 8008d54:	f1bb 0f00 	cmp.w	fp, #0
 8008d58:	bf0c      	ite	eq
 8008d5a:	2706      	moveq	r7, #6
 8008d5c:	2700      	movne	r7, #0
 8008d5e:	4638      	mov	r0, r7
 8008d60:	b00b      	add	sp, #44	; 0x2c
 8008d62:	e8bd 8ff0 	ldmia.w	sp!, {r4, r5, r6, r7, r8, r9, sl, fp, pc}
 8008d66:	f10b 0b01 	add.w	fp, fp, #1
 8008d6a:	e78a      	b.n	8008c82 <__gethex+0x34>
 8008d6c:	2500      	movs	r5, #0
 8008d6e:	462c      	mov	r4, r5
 8008d70:	e7ae      	b.n	8008cd0 <__gethex+0x82>
 8008d72:	463e      	mov	r6, r7
 8008d74:	2501      	movs	r5, #1
 8008d76:	e7c7      	b.n	8008d08 <__gethex+0xba>
 8008d78:	4604      	mov	r4, r0
 8008d7a:	e7fb      	b.n	8008d74 <__gethex+0x126>
 8008d7c:	f04f 0900 	mov.w	r9, #0
 8008d80:	1cb1      	adds	r1, r6, #2
 8008d82:	e7ce      	b.n	8008d22 <__gethex+0xd4>
 8008d84:	f04f 0901 	mov.w	r9, #1
 8008d88:	e7fa      	b.n	8008d80 <__gethex+0x132>
 8008d8a:	230a      	movs	r3, #10
 8008d8c:	fb03 0202 	mla	r2, r3, r2, r0
 8008d90:	3a10      	subs	r2, #16
 8008d92:	e7cf      	b.n	8008d34 <__gethex+0xe6>
 8008d94:	4631      	mov	r1, r6
 8008d96:	e7da      	b.n	8008d4e <__gethex+0x100>
 8008d98:	1bf3      	subs	r3, r6, r7
 8008d9a:	3b01      	subs	r3, #1
 8008d9c:	4629      	mov	r1, r5
 8008d9e:	2b07      	cmp	r3, #7
 8008da0:	dc49      	bgt.n	8008e36 <__gethex+0x1e8>
 8008da2:	9802      	ldr	r0, [sp, #8]
 8008da4:	f000 fa59 	bl	800925a <_Balloc>
 8008da8:	9b01      	ldr	r3, [sp, #4]
 8008daa:	f100 0914 	add.w	r9, r0, #20
 8008dae:	f04f 0b00 	mov.w	fp, #0
 8008db2:	f1c3 0301 	rsb	r3, r3, #1
 8008db6:	4605      	mov	r5, r0
 8008db8:	f8cd 9010 	str.w	r9, [sp, #16]
 8008dbc:	46da      	mov	sl, fp
 8008dbe:	9308      	str	r3, [sp, #32]
 8008dc0:	42b7      	cmp	r7, r6
 8008dc2:	d33b      	bcc.n	8008e3c <__gethex+0x1ee>
 8008dc4:	9804      	ldr	r0, [sp, #16]
 8008dc6:	f840 ab04 	str.w	sl, [r0], #4
 8008dca:	eba0 0009 	sub.w	r0, r0, r9
 8008dce:	1080      	asrs	r0, r0, #2
 8008dd0:	6128      	str	r0, [r5, #16]
 8008dd2:	0147      	lsls	r7, r0, #5
 8008dd4:	4650      	mov	r0, sl
 8008dd6:	f000 fb04 	bl	80093e2 <__hi0bits>
 8008dda:	f8d8 6000 	ldr.w	r6, [r8]
 8008dde:	1a3f      	subs	r7, r7, r0
 8008de0:	42b7      	cmp	r7, r6
 8008de2:	dd64      	ble.n	8008eae <__gethex+0x260>
 8008de4:	1bbf      	subs	r7, r7, r6
 8008de6:	4639      	mov	r1, r7
 8008de8:	4628      	mov	r0, r5
 8008dea:	f000 fe13 	bl	8009a14 <__any_on>
 8008dee:	4682      	mov	sl, r0
 8008df0:	b178      	cbz	r0, 8008e12 <__gethex+0x1c4>
 8008df2:	1e7b      	subs	r3, r7, #1
 8008df4:	1159      	asrs	r1, r3, #5
 8008df6:	f003 021f 	and.w	r2, r3, #31
 8008dfa:	f04f 0a01 	mov.w	sl, #1
 8008dfe:	f859 1021 	ldr.w	r1, [r9, r1, lsl #2]
 8008e02:	fa0a f202 	lsl.w	r2, sl, r2
 8008e06:	420a      	tst	r2, r1
 8008e08:	d003      	beq.n	8008e12 <__gethex+0x1c4>
 8008e0a:	4553      	cmp	r3, sl
 8008e0c:	dc46      	bgt.n	8008e9c <__gethex+0x24e>
 8008e0e:	f04f 0a02 	mov.w	sl, #2
 8008e12:	4639      	mov	r1, r7
 8008e14:	4628      	mov	r0, r5
 8008e16:	f7ff fecb 	bl	8008bb0 <rshift>
 8008e1a:	443c      	add	r4, r7
 8008e1c:	f8d8 3008 	ldr.w	r3, [r8, #8]
 8008e20:	42a3      	cmp	r3, r4
 8008e22:	da52      	bge.n	8008eca <__gethex+0x27c>
 8008e24:	4629      	mov	r1, r5
 8008e26:	9802      	ldr	r0, [sp, #8]
 8008e28:	f000 fa4b 	bl	80092c2 <_Bfree>
 8008e2c:	9a14      	ldr	r2, [sp, #80]	; 0x50
 8008e2e:	2300      	movs	r3, #0
 8008e30:	6013      	str	r3, [r2, #0]
 8008e32:	27a3      	movs	r7, #163	; 0xa3
 8008e34:	e793      	b.n	8008d5e <__gethex+0x110>
 8008e36:	3101      	adds	r1, #1
 8008e38:	105b      	asrs	r3, r3, #1
 8008e3a:	e7b0      	b.n	8008d9e <__gethex+0x150>
 8008e3c:	1e73      	subs	r3, r6, #1
 8008e3e:	9305      	str	r3, [sp, #20]
 8008e40:	9a07      	ldr	r2, [sp, #28]
 8008e42:	f816 3c01 	ldrb.w	r3, [r6, #-1]
 8008e46:	4293      	cmp	r3, r2
 8008e48:	d018      	beq.n	8008e7c <__gethex+0x22e>
 8008e4a:	f1bb 0f20 	cmp.w	fp, #32
 8008e4e:	d107      	bne.n	8008e60 <__gethex+0x212>
 8008e50:	9b04      	ldr	r3, [sp, #16]
 8008e52:	f8c3 a000 	str.w	sl, [r3]
 8008e56:	3304      	adds	r3, #4
 8008e58:	f04f 0a00 	mov.w	sl, #0
 8008e5c:	9304      	str	r3, [sp, #16]
 8008e5e:	46d3      	mov	fp, sl
 8008e60:	f816 0c01 	ldrb.w	r0, [r6, #-1]
 8008e64:	f7ff fede 	bl	8008c24 <__hexdig_fun>
 8008e68:	f000 000f 	and.w	r0, r0, #15
 8008e6c:	fa00 f00b 	lsl.w	r0, r0, fp
 8008e70:	ea4a 0a00 	orr.w	sl, sl, r0
 8008e74:	f10b 0b04 	add.w	fp, fp, #4
 8008e78:	9b05      	ldr	r3, [sp, #20]
 8008e7a:	e00d      	b.n	8008e98 <__gethex+0x24a>
 8008e7c:	9b05      	ldr	r3, [sp, #20]
 8008e7e:	9a08      	ldr	r2, [sp, #32]
 8008e80:	4413      	add	r3, r2
 8008e82:	42bb      	cmp	r3, r7
 8008e84:	d3e1      	bcc.n	8008e4a <__gethex+0x1fc>
 8008e86:	4618      	mov	r0, r3
 8008e88:	9a01      	ldr	r2, [sp, #4]
 8008e8a:	9903      	ldr	r1, [sp, #12]
 8008e8c:	9309      	str	r3, [sp, #36]	; 0x24
 8008e8e:	f000 ff43 	bl	8009d18 <strncmp>
 8008e92:	9b09      	ldr	r3, [sp, #36]	; 0x24
 8008e94:	2800      	cmp	r0, #0
 8008e96:	d1d8      	bne.n	8008e4a <__gethex+0x1fc>
 8008e98:	461e      	mov	r6, r3
 8008e9a:	e791      	b.n	8008dc0 <__gethex+0x172>
 8008e9c:	1eb9      	subs	r1, r7, #2
 8008e9e:	4628      	mov	r0, r5
 8008ea0:	f000 fdb8 	bl	8009a14 <__any_on>
 8008ea4:	2800      	cmp	r0, #0
 8008ea6:	d0b2      	beq.n	8008e0e <__gethex+0x1c0>
 8008ea8:	f04f 0a03 	mov.w	sl, #3
 8008eac:	e7b1      	b.n	8008e12 <__gethex+0x1c4>
 8008eae:	da09      	bge.n	8008ec4 <__gethex+0x276>
 8008eb0:	1bf7      	subs	r7, r6, r7
 8008eb2:	4629      	mov	r1, r5
 8008eb4:	463a      	mov	r2, r7
 8008eb6:	9802      	ldr	r0, [sp, #8]
 8008eb8:	f000 fbce 	bl	8009658 <__lshift>
 8008ebc:	1be4      	subs	r4, r4, r7
 8008ebe:	4605      	mov	r5, r0
 8008ec0:	f100 0914 	add.w	r9, r0, #20
 8008ec4:	f04f 0a00 	mov.w	sl, #0
 8008ec8:	e7a8      	b.n	8008e1c <__gethex+0x1ce>
 8008eca:	f8d8 0004 	ldr.w	r0, [r8, #4]
 8008ece:	42a0      	cmp	r0, r4
 8008ed0:	dd6a      	ble.n	8008fa8 <__gethex+0x35a>
 8008ed2:	1b04      	subs	r4, r0, r4
 8008ed4:	42a6      	cmp	r6, r4
 8008ed6:	dc2e      	bgt.n	8008f36 <__gethex+0x2e8>
 8008ed8:	f8d8 300c 	ldr.w	r3, [r8, #12]
 8008edc:	2b02      	cmp	r3, #2
 8008ede:	d022      	beq.n	8008f26 <__gethex+0x2d8>
 8008ee0:	2b03      	cmp	r3, #3
 8008ee2:	d024      	beq.n	8008f2e <__gethex+0x2e0>
 8008ee4:	2b01      	cmp	r3, #1
 8008ee6:	d115      	bne.n	8008f14 <__gethex+0x2c6>
 8008ee8:	42a6      	cmp	r6, r4
 8008eea:	d113      	bne.n	8008f14 <__gethex+0x2c6>
 8008eec:	2e01      	cmp	r6, #1
 8008eee:	dc0b      	bgt.n	8008f08 <__gethex+0x2ba>
 8008ef0:	9a06      	ldr	r2, [sp, #24]
 8008ef2:	f8d8 3004 	ldr.w	r3, [r8, #4]
 8008ef6:	6013      	str	r3, [r2, #0]
 8008ef8:	2301      	movs	r3, #1
 8008efa:	612b      	str	r3, [r5, #16]
 8008efc:	f8c9 3000 	str.w	r3, [r9]
 8008f00:	9b14      	ldr	r3, [sp, #80]	; 0x50
 8008f02:	2762      	movs	r7, #98	; 0x62
 8008f04:	601d      	str	r5, [r3, #0]
 8008f06:	e72a      	b.n	8008d5e <__gethex+0x110>
 8008f08:	1e71      	subs	r1, r6, #1
 8008f0a:	4628      	mov	r0, r5
 8008f0c:	f000 fd82 	bl	8009a14 <__any_on>
 8008f10:	2800      	cmp	r0, #0
 8008f12:	d1ed      	bne.n	8008ef0 <__gethex+0x2a2>
 8008f14:	4629      	mov	r1, r5
 8008f16:	9802      	ldr	r0, [sp, #8]
 8008f18:	f000 f9d3 	bl	80092c2 <_Bfree>
 8008f1c:	9a14      	ldr	r2, [sp, #80]	; 0x50
 8008f1e:	2300      	movs	r3, #0
 8008f20:	6013      	str	r3, [r2, #0]
 8008f22:	2750      	movs	r7, #80	; 0x50
 8008f24:	e71b      	b.n	8008d5e <__gethex+0x110>
 8008f26:	9b15      	ldr	r3, [sp, #84]	; 0x54
 8008f28:	2b00      	cmp	r3, #0
 8008f2a:	d0e1      	beq.n	8008ef0 <__gethex+0x2a2>
 8008f2c:	e7f2      	b.n	8008f14 <__gethex+0x2c6>
 8008f2e:	9b15      	ldr	r3, [sp, #84]	; 0x54
 8008f30:	2b00      	cmp	r3, #0
 8008f32:	d1dd      	bne.n	8008ef0 <__gethex+0x2a2>
 8008f34:	e7ee      	b.n	8008f14 <__gethex+0x2c6>
 8008f36:	1e67      	subs	r7, r4, #1
 8008f38:	f1ba 0f00 	cmp.w	sl, #0
 8008f3c:	d131      	bne.n	8008fa2 <__gethex+0x354>
 8008f3e:	b127      	cbz	r7, 8008f4a <__gethex+0x2fc>
 8008f40:	4639      	mov	r1, r7
 8008f42:	4628      	mov	r0, r5
 8008f44:	f000 fd66 	bl	8009a14 <__any_on>
 8008f48:	4682      	mov	sl, r0
 8008f4a:	117a      	asrs	r2, r7, #5
 8008f4c:	2301      	movs	r3, #1
 8008f4e:	f007 071f 	and.w	r7, r7, #31
 8008f52:	fa03 f707 	lsl.w	r7, r3, r7
 8008f56:	f859 3022 	ldr.w	r3, [r9, r2, lsl #2]
 8008f5a:	4621      	mov	r1, r4
 8008f5c:	421f      	tst	r7, r3
 8008f5e:	4628      	mov	r0, r5
 8008f60:	bf18      	it	ne
 8008f62:	f04a 0a02 	orrne.w	sl, sl, #2
 8008f66:	1b36      	subs	r6, r6, r4
 8008f68:	f7ff fe22 	bl	8008bb0 <rshift>
 8008f6c:	f8d8 4004 	ldr.w	r4, [r8, #4]
 8008f70:	2702      	movs	r7, #2
 8008f72:	f1ba 0f00 	cmp.w	sl, #0
 8008f76:	d048      	beq.n	800900a <__gethex+0x3bc>
 8008f78:	f8d8 300c 	ldr.w	r3, [r8, #12]
 8008f7c:	2b02      	cmp	r3, #2
 8008f7e:	d015      	beq.n	8008fac <__gethex+0x35e>
 8008f80:	2b03      	cmp	r3, #3
 8008f82:	d017      	beq.n	8008fb4 <__gethex+0x366>
 8008f84:	2b01      	cmp	r3, #1
 8008f86:	d109      	bne.n	8008f9c <__gethex+0x34e>
 8008f88:	f01a 0f02 	tst.w	sl, #2
 8008f8c:	d006      	beq.n	8008f9c <__gethex+0x34e>
 8008f8e:	f8d9 3000 	ldr.w	r3, [r9]
 8008f92:	ea4a 0a03 	orr.w	sl, sl, r3
 8008f96:	f01a 0f01 	tst.w	sl, #1
 8008f9a:	d10e      	bne.n	8008fba <__gethex+0x36c>
 8008f9c:	f047 0710 	orr.w	r7, r7, #16
 8008fa0:	e033      	b.n	800900a <__gethex+0x3bc>
 8008fa2:	f04f 0a01 	mov.w	sl, #1
 8008fa6:	e7d0      	b.n	8008f4a <__gethex+0x2fc>
 8008fa8:	2701      	movs	r7, #1
 8008faa:	e7e2      	b.n	8008f72 <__gethex+0x324>
 8008fac:	9b15      	ldr	r3, [sp, #84]	; 0x54
 8008fae:	f1c3 0301 	rsb	r3, r3, #1
 8008fb2:	9315      	str	r3, [sp, #84]	; 0x54
 8008fb4:	9b15      	ldr	r3, [sp, #84]	; 0x54
 8008fb6:	2b00      	cmp	r3, #0
 8008fb8:	d0f0      	beq.n	8008f9c <__gethex+0x34e>
 8008fba:	f8d5 9010 	ldr.w	r9, [r5, #16]
 8008fbe:	f105 0314 	add.w	r3, r5, #20
 8008fc2:	ea4f 0a89 	mov.w	sl, r9, lsl #2
 8008fc6:	eb03 010a 	add.w	r1, r3, sl
 8008fca:	f04f 0c00 	mov.w	ip, #0
 8008fce:	4618      	mov	r0, r3
 8008fd0:	f853 2b04 	ldr.w	r2, [r3], #4
 8008fd4:	f1b2 3fff 	cmp.w	r2, #4294967295
 8008fd8:	d01c      	beq.n	8009014 <__gethex+0x3c6>
 8008fda:	3201      	adds	r2, #1
 8008fdc:	6002      	str	r2, [r0, #0]
 8008fde:	2f02      	cmp	r7, #2
 8008fe0:	f105 0314 	add.w	r3, r5, #20
 8008fe4:	d138      	bne.n	8009058 <__gethex+0x40a>
 8008fe6:	f8d8 2000 	ldr.w	r2, [r8]
 8008fea:	3a01      	subs	r2, #1
 8008fec:	42b2      	cmp	r2, r6
 8008fee:	d10a      	bne.n	8009006 <__gethex+0x3b8>
 8008ff0:	1171      	asrs	r1, r6, #5
 8008ff2:	2201      	movs	r2, #1
 8008ff4:	f006 061f 	and.w	r6, r6, #31
 8008ff8:	f853 3021 	ldr.w	r3, [r3, r1, lsl #2]
 8008ffc:	fa02 f606 	lsl.w	r6, r2, r6
 8009000:	421e      	tst	r6, r3
 8009002:	bf18      	it	ne
 8009004:	4617      	movne	r7, r2
 8009006:	f047 0720 	orr.w	r7, r7, #32
 800900a:	9b14      	ldr	r3, [sp, #80]	; 0x50
 800900c:	601d      	str	r5, [r3, #0]
 800900e:	9b06      	ldr	r3, [sp, #24]
 8009010:	601c      	str	r4, [r3, #0]
 8009012:	e6a4      	b.n	8008d5e <__gethex+0x110>
 8009014:	4299      	cmp	r1, r3
 8009016:	f843 cc04 	str.w	ip, [r3, #-4]
 800901a:	d8d8      	bhi.n	8008fce <__gethex+0x380>
 800901c:	68ab      	ldr	r3, [r5, #8]
 800901e:	4599      	cmp	r9, r3
 8009020:	db12      	blt.n	8009048 <__gethex+0x3fa>
 8009022:	6869      	ldr	r1, [r5, #4]
 8009024:	9802      	ldr	r0, [sp, #8]
 8009026:	3101      	adds	r1, #1
 8009028:	f000 f917 	bl	800925a <_Balloc>
 800902c:	692a      	ldr	r2, [r5, #16]
 800902e:	3202      	adds	r2, #2
 8009030:	f105 010c 	add.w	r1, r5, #12
 8009034:	4683      	mov	fp, r0
 8009036:	0092      	lsls	r2, r2, #2
 8009038:	300c      	adds	r0, #12
 800903a:	f000 f901 	bl	8009240 <memcpy>
 800903e:	4629      	mov	r1, r5
 8009040:	9802      	ldr	r0, [sp, #8]
 8009042:	f000 f93e 	bl	80092c2 <_Bfree>
 8009046:	465d      	mov	r5, fp
 8009048:	692b      	ldr	r3, [r5, #16]
 800904a:	1c5a      	adds	r2, r3, #1
 800904c:	eb05 0383 	add.w	r3, r5, r3, lsl #2
 8009050:	612a      	str	r2, [r5, #16]
 8009052:	2201      	movs	r2, #1
 8009054:	615a      	str	r2, [r3, #20]
 8009056:	e7c2      	b.n	8008fde <__gethex+0x390>
 8009058:	692a      	ldr	r2, [r5, #16]
 800905a:	454a      	cmp	r2, r9
 800905c:	dd0b      	ble.n	8009076 <__gethex+0x428>
 800905e:	2101      	movs	r1, #1
 8009060:	4628      	mov	r0, r5
 8009062:	f7ff fda5 	bl	8008bb0 <rshift>
 8009066:	f8d8 3008 	ldr.w	r3, [r8, #8]
 800906a:	3401      	adds	r4, #1
 800906c:	42a3      	cmp	r3, r4
 800906e:	f6ff aed9 	blt.w	8008e24 <__gethex+0x1d6>
 8009072:	2701      	movs	r7, #1
 8009074:	e7c7      	b.n	8009006 <__gethex+0x3b8>
 8009076:	f016 061f 	ands.w	r6, r6, #31
 800907a:	d0fa      	beq.n	8009072 <__gethex+0x424>
 800907c:	449a      	add	sl, r3
 800907e:	f1c6 0620 	rsb	r6, r6, #32
 8009082:	f85a 0c04 	ldr.w	r0, [sl, #-4]
 8009086:	f000 f9ac 	bl	80093e2 <__hi0bits>
 800908a:	42b0      	cmp	r0, r6
 800908c:	dbe7      	blt.n	800905e <__gethex+0x410>
 800908e:	e7f0      	b.n	8009072 <__gethex+0x424>

08009090 <L_shift>:
 8009090:	f1c2 0208 	rsb	r2, r2, #8
 8009094:	0092      	lsls	r2, r2, #2
 8009096:	b570      	push	{r4, r5, r6, lr}
 8009098:	f1c2 0620 	rsb	r6, r2, #32
 800909c:	6843      	ldr	r3, [r0, #4]
 800909e:	6804      	ldr	r4, [r0, #0]
 80090a0:	fa03 f506 	lsl.w	r5, r3, r6
 80090a4:	432c      	orrs	r4, r5
 80090a6:	40d3      	lsrs	r3, r2
 80090a8:	6004      	str	r4, [r0, #0]
 80090aa:	f840 3f04 	str.w	r3, [r0, #4]!
 80090ae:	4288      	cmp	r0, r1
 80090b0:	d3f4      	bcc.n	800909c <L_shift+0xc>
 80090b2:	bd70      	pop	{r4, r5, r6, pc}

080090b4 <__match>:
 80090b4:	b530      	push	{r4, r5, lr}
 80090b6:	6803      	ldr	r3, [r0, #0]
 80090b8:	3301      	adds	r3, #1
 80090ba:	f811 4b01 	ldrb.w	r4, [r1], #1
 80090be:	b914      	cbnz	r4, 80090c6 <__match+0x12>
 80090c0:	6003      	str	r3, [r0, #0]
 80090c2:	2001      	movs	r0, #1
 80090c4:	bd30      	pop	{r4, r5, pc}
 80090c6:	f813 2b01 	ldrb.w	r2, [r3], #1
 80090ca:	f1a2 0541 	sub.w	r5, r2, #65	; 0x41
 80090ce:	2d19      	cmp	r5, #25
 80090d0:	bf98      	it	ls
 80090d2:	3220      	addls	r2, #32
 80090d4:	42a2      	cmp	r2, r4
 80090d6:	d0f0      	beq.n	80090ba <__match+0x6>
 80090d8:	2000      	movs	r0, #0
 80090da:	e7f3      	b.n	80090c4 <__match+0x10>

080090dc <__hexnan>:
 80090dc:	e92d 4ff0 	stmdb	sp!, {r4, r5, r6, r7, r8, r9, sl, fp, lr}
 80090e0:	680b      	ldr	r3, [r1, #0]
 80090e2:	6801      	ldr	r1, [r0, #0]
 80090e4:	115f      	asrs	r7, r3, #5
 80090e6:	eb02 0787 	add.w	r7, r2, r7, lsl #2
 80090ea:	f013 031f 	ands.w	r3, r3, #31
 80090ee:	b087      	sub	sp, #28
 80090f0:	bf18      	it	ne
 80090f2:	3704      	addne	r7, #4
 80090f4:	2500      	movs	r5, #0
 80090f6:	1f3e      	subs	r6, r7, #4
 80090f8:	4682      	mov	sl, r0
 80090fa:	4690      	mov	r8, r2
 80090fc:	9301      	str	r3, [sp, #4]
 80090fe:	f847 5c04 	str.w	r5, [r7, #-4]
 8009102:	46b1      	mov	r9, r6
 8009104:	4634      	mov	r4, r6
 8009106:	9502      	str	r5, [sp, #8]
 8009108:	46ab      	mov	fp, r5
 800910a:	784a      	ldrb	r2, [r1, #1]
 800910c:	1c4b      	adds	r3, r1, #1
 800910e:	9303      	str	r3, [sp, #12]
 8009110:	b342      	cbz	r2, 8009164 <__hexnan+0x88>
 8009112:	4610      	mov	r0, r2
 8009114:	9105      	str	r1, [sp, #20]
 8009116:	9204      	str	r2, [sp, #16]
 8009118:	f7ff fd84 	bl	8008c24 <__hexdig_fun>
 800911c:	2800      	cmp	r0, #0
 800911e:	d143      	bne.n	80091a8 <__hexnan+0xcc>
 8009120:	9a04      	ldr	r2, [sp, #16]
 8009122:	9905      	ldr	r1, [sp, #20]
 8009124:	2a20      	cmp	r2, #32
 8009126:	d818      	bhi.n	800915a <__hexnan+0x7e>
 8009128:	9b02      	ldr	r3, [sp, #8]
 800912a:	459b      	cmp	fp, r3
 800912c:	dd13      	ble.n	8009156 <__hexnan+0x7a>
 800912e:	454c      	cmp	r4, r9
 8009130:	d206      	bcs.n	8009140 <__hexnan+0x64>
 8009132:	2d07      	cmp	r5, #7
 8009134:	dc04      	bgt.n	8009140 <__hexnan+0x64>
 8009136:	462a      	mov	r2, r5
 8009138:	4649      	mov	r1, r9
 800913a:	4620      	mov	r0, r4
 800913c:	f7ff ffa8 	bl	8009090 <L_shift>
 8009140:	4544      	cmp	r4, r8
 8009142:	d944      	bls.n	80091ce <__hexnan+0xf2>
 8009144:	2300      	movs	r3, #0
 8009146:	f1a4 0904 	sub.w	r9, r4, #4
 800914a:	f844 3c04 	str.w	r3, [r4, #-4]
 800914e:	f8cd b008 	str.w	fp, [sp, #8]
 8009152:	464c      	mov	r4, r9
 8009154:	461d      	mov	r5, r3
 8009156:	9903      	ldr	r1, [sp, #12]
 8009158:	e7d7      	b.n	800910a <__hexnan+0x2e>
 800915a:	2a29      	cmp	r2, #41	; 0x29
 800915c:	d14a      	bne.n	80091f4 <__hexnan+0x118>
 800915e:	3102      	adds	r1, #2
 8009160:	f8ca 1000 	str.w	r1, [sl]
 8009164:	f1bb 0f00 	cmp.w	fp, #0
 8009168:	d044      	beq.n	80091f4 <__hexnan+0x118>
 800916a:	454c      	cmp	r4, r9
 800916c:	d206      	bcs.n	800917c <__hexnan+0xa0>
 800916e:	2d07      	cmp	r5, #7
 8009170:	dc04      	bgt.n	800917c <__hexnan+0xa0>
 8009172:	462a      	mov	r2, r5
 8009174:	4649      	mov	r1, r9
 8009176:	4620      	mov	r0, r4
 8009178:	f7ff ff8a 	bl	8009090 <L_shift>
 800917c:	4544      	cmp	r4, r8
 800917e:	d928      	bls.n	80091d2 <__hexnan+0xf6>
 8009180:	4643      	mov	r3, r8
 8009182:	f854 2b04 	ldr.w	r2, [r4], #4
 8009186:	f843 2b04 	str.w	r2, [r3], #4
 800918a:	42a6      	cmp	r6, r4
 800918c:	d2f9      	bcs.n	8009182 <__hexnan+0xa6>
 800918e:	2200      	movs	r2, #0
 8009190:	f843 2b04 	str.w	r2, [r3], #4
 8009194:	429e      	cmp	r6, r3
 8009196:	d2fb      	bcs.n	8009190 <__hexnan+0xb4>
 8009198:	6833      	ldr	r3, [r6, #0]
 800919a:	b91b      	cbnz	r3, 80091a4 <__hexnan+0xc8>
 800919c:	4546      	cmp	r6, r8
 800919e:	d127      	bne.n	80091f0 <__hexnan+0x114>
 80091a0:	2301      	movs	r3, #1
 80091a2:	6033      	str	r3, [r6, #0]
 80091a4:	2005      	movs	r0, #5
 80091a6:	e026      	b.n	80091f6 <__hexnan+0x11a>
 80091a8:	3501      	adds	r5, #1
 80091aa:	2d08      	cmp	r5, #8
 80091ac:	f10b 0b01 	add.w	fp, fp, #1
 80091b0:	dd06      	ble.n	80091c0 <__hexnan+0xe4>
 80091b2:	4544      	cmp	r4, r8
 80091b4:	d9cf      	bls.n	8009156 <__hexnan+0x7a>
 80091b6:	2300      	movs	r3, #0
 80091b8:	f844 3c04 	str.w	r3, [r4, #-4]
 80091bc:	2501      	movs	r5, #1
 80091be:	3c04      	subs	r4, #4
 80091c0:	6822      	ldr	r2, [r4, #0]
 80091c2:	f000 000f 	and.w	r0, r0, #15
 80091c6:	ea40 1002 	orr.w	r0, r0, r2, lsl #4
 80091ca:	6020      	str	r0, [r4, #0]
 80091cc:	e7c3      	b.n	8009156 <__hexnan+0x7a>
 80091ce:	2508      	movs	r5, #8
 80091d0:	e7c1      	b.n	8009156 <__hexnan+0x7a>
 80091d2:	9b01      	ldr	r3, [sp, #4]
 80091d4:	2b00      	cmp	r3, #0
 80091d6:	d0df      	beq.n	8009198 <__hexnan+0xbc>
 80091d8:	f04f 32ff 	mov.w	r2, #4294967295
 80091dc:	f1c3 0320 	rsb	r3, r3, #32
 80091e0:	fa22 f303 	lsr.w	r3, r2, r3
 80091e4:	f857 2c04 	ldr.w	r2, [r7, #-4]
 80091e8:	401a      	ands	r2, r3
 80091ea:	f847 2c04 	str.w	r2, [r7, #-4]
 80091ee:	e7d3      	b.n	8009198 <__hexnan+0xbc>
 80091f0:	3e04      	subs	r6, #4
 80091f2:	e7d1      	b.n	8009198 <__hexnan+0xbc>
 80091f4:	2004      	movs	r0, #4
 80091f6:	b007      	add	sp, #28
 80091f8:	e8bd 8ff0 	ldmia.w	sp!, {r4, r5, r6, r7, r8, r9, sl, fp, pc}

080091fc <__localeconv_l>:
 80091fc:	30f0      	adds	r0, #240	; 0xf0
 80091fe:	4770      	bx	lr

08009200 <_localeconv_r>:
 8009200:	4b04      	ldr	r3, [pc, #16]	; (8009214 <_localeconv_r+0x14>)
 8009202:	681b      	ldr	r3, [r3, #0]
 8009204:	6a18      	ldr	r0, [r3, #32]
 8009206:	4b04      	ldr	r3, [pc, #16]	; (8009218 <_localeconv_r+0x18>)
 8009208:	2800      	cmp	r0, #0
 800920a:	bf08      	it	eq
 800920c:	4618      	moveq	r0, r3
 800920e:	30f0      	adds	r0, #240	; 0xf0
 8009210:	4770      	bx	lr
 8009212:	bf00      	nop
 8009214:	20000034 	.word	0x20000034
 8009218:	20000098 	.word	0x20000098

0800921c <__ascii_mbtowc>:
 800921c:	b082      	sub	sp, #8
 800921e:	b901      	cbnz	r1, 8009222 <__ascii_mbtowc+0x6>
 8009220:	a901      	add	r1, sp, #4
 8009222:	b142      	cbz	r2, 8009236 <__ascii_mbtowc+0x1a>
 8009224:	b14b      	cbz	r3, 800923a <__ascii_mbtowc+0x1e>
 8009226:	7813      	ldrb	r3, [r2, #0]
 8009228:	600b      	str	r3, [r1, #0]
 800922a:	7812      	ldrb	r2, [r2, #0]
 800922c:	1c10      	adds	r0, r2, #0
 800922e:	bf18      	it	ne
 8009230:	2001      	movne	r0, #1
 8009232:	b002      	add	sp, #8
 8009234:	4770      	bx	lr
 8009236:	4610      	mov	r0, r2
 8009238:	e7fb      	b.n	8009232 <__ascii_mbtowc+0x16>
 800923a:	f06f 0001 	mvn.w	r0, #1
 800923e:	e7f8      	b.n	8009232 <__ascii_mbtowc+0x16>

08009240 <memcpy>:
 8009240:	b510      	push	{r4, lr}
 8009242:	1e43      	subs	r3, r0, #1
 8009244:	440a      	add	r2, r1
 8009246:	4291      	cmp	r1, r2
 8009248:	d100      	bne.n	800924c <memcpy+0xc>
 800924a:	bd10      	pop	{r4, pc}
 800924c:	f811 4b01 	ldrb.w	r4, [r1], #1
 8009250:	f803 4f01 	strb.w	r4, [r3, #1]!
 8009254:	e7f7      	b.n	8009246 <memcpy+0x6>

08009256 <__malloc_lock>:
 8009256:	4770      	bx	lr

08009258 <__malloc_unlock>:
 8009258:	4770      	bx	lr

0800925a <_Balloc>:
 800925a:	b570      	push	{r4, r5, r6, lr}
 800925c:	6a45      	ldr	r5, [r0, #36]	; 0x24
 800925e:	4604      	mov	r4, r0
 8009260:	460e      	mov	r6, r1
 8009262:	b93d      	cbnz	r5, 8009274 <_Balloc+0x1a>
 8009264:	2010      	movs	r0, #16
 8009266:	f7fd fac5 	bl	80067f4 <malloc>
 800926a:	6260      	str	r0, [r4, #36]	; 0x24
 800926c:	e9c0 5501 	strd	r5, r5, [r0, #4]
 8009270:	6005      	str	r5, [r0, #0]
 8009272:	60c5      	str	r5, [r0, #12]
 8009274:	6a65      	ldr	r5, [r4, #36]	; 0x24
 8009276:	68eb      	ldr	r3, [r5, #12]
 8009278:	b183      	cbz	r3, 800929c <_Balloc+0x42>
 800927a:	6a63      	ldr	r3, [r4, #36]	; 0x24
 800927c:	68db      	ldr	r3, [r3, #12]
 800927e:	f853 0026 	ldr.w	r0, [r3, r6, lsl #2]
 8009282:	b9b8      	cbnz	r0, 80092b4 <_Balloc+0x5a>
 8009284:	2101      	movs	r1, #1
 8009286:	fa01 f506 	lsl.w	r5, r1, r6
 800928a:	1d6a      	adds	r2, r5, #5
 800928c:	0092      	lsls	r2, r2, #2
 800928e:	4620      	mov	r0, r4
 8009290:	f000 fbe1 	bl	8009a56 <_calloc_r>
 8009294:	b160      	cbz	r0, 80092b0 <_Balloc+0x56>
 8009296:	e9c0 6501 	strd	r6, r5, [r0, #4]
 800929a:	e00e      	b.n	80092ba <_Balloc+0x60>
 800929c:	2221      	movs	r2, #33	; 0x21
 800929e:	2104      	movs	r1, #4
 80092a0:	4620      	mov	r0, r4
 80092a2:	f000 fbd8 	bl	8009a56 <_calloc_r>
 80092a6:	6a63      	ldr	r3, [r4, #36]	; 0x24
 80092a8:	60e8      	str	r0, [r5, #12]
 80092aa:	68db      	ldr	r3, [r3, #12]
 80092ac:	2b00      	cmp	r3, #0
 80092ae:	d1e4      	bne.n	800927a <_Balloc+0x20>
 80092b0:	2000      	movs	r0, #0
 80092b2:	bd70      	pop	{r4, r5, r6, pc}
 80092b4:	6802      	ldr	r2, [r0, #0]
 80092b6:	f843 2026 	str.w	r2, [r3, r6, lsl #2]
 80092ba:	2300      	movs	r3, #0
 80092bc:	e9c0 3303 	strd	r3, r3, [r0, #12]
 80092c0:	e7f7      	b.n	80092b2 <_Balloc+0x58>

080092c2 <_Bfree>:
 80092c2:	b570      	push	{r4, r5, r6, lr}
 80092c4:	6a44      	ldr	r4, [r0, #36]	; 0x24
 80092c6:	4606      	mov	r6, r0
 80092c8:	460d      	mov	r5, r1
 80092ca:	b93c      	cbnz	r4, 80092dc <_Bfree+0x1a>
 80092cc:	2010      	movs	r0, #16
 80092ce:	f7fd fa91 	bl	80067f4 <malloc>
 80092d2:	6270      	str	r0, [r6, #36]	; 0x24
 80092d4:	e9c0 4401 	strd	r4, r4, [r0, #4]
 80092d8:	6004      	str	r4, [r0, #0]
 80092da:	60c4      	str	r4, [r0, #12]
 80092dc:	b13d      	cbz	r5, 80092ee <_Bfree+0x2c>
 80092de:	6a73      	ldr	r3, [r6, #36]	; 0x24
 80092e0:	686a      	ldr	r2, [r5, #4]
 80092e2:	68db      	ldr	r3, [r3, #12]
 80092e4:	f853 1022 	ldr.w	r1, [r3, r2, lsl #2]
 80092e8:	6029      	str	r1, [r5, #0]
 80092ea:	f843 5022 	str.w	r5, [r3, r2, lsl #2]
 80092ee:	bd70      	pop	{r4, r5, r6, pc}

080092f0 <__multadd>:
 80092f0:	e92d 41f0 	stmdb	sp!, {r4, r5, r6, r7, r8, lr}
 80092f4:	690d      	ldr	r5, [r1, #16]
 80092f6:	461f      	mov	r7, r3
 80092f8:	4606      	mov	r6, r0
 80092fa:	460c      	mov	r4, r1
 80092fc:	f101 0c14 	add.w	ip, r1, #20
 8009300:	2300      	movs	r3, #0
 8009302:	f8dc 0000 	ldr.w	r0, [ip]
 8009306:	b281      	uxth	r1, r0
 8009308:	fb02 7101 	mla	r1, r2, r1, r7
 800930c:	0c0f      	lsrs	r7, r1, #16
 800930e:	0c00      	lsrs	r0, r0, #16
 8009310:	fb02 7000 	mla	r0, r2, r0, r7
 8009314:	b289      	uxth	r1, r1
 8009316:	3301      	adds	r3, #1
 8009318:	eb01 4100 	add.w	r1, r1, r0, lsl #16
 800931c:	429d      	cmp	r5, r3
 800931e:	ea4f 4710 	mov.w	r7, r0, lsr #16
 8009322:	f84c 1b04 	str.w	r1, [ip], #4
 8009326:	dcec      	bgt.n	8009302 <__multadd+0x12>
 8009328:	b1d7      	cbz	r7, 8009360 <__multadd+0x70>
 800932a:	68a3      	ldr	r3, [r4, #8]
 800932c:	42ab      	cmp	r3, r5
 800932e:	dc12      	bgt.n	8009356 <__multadd+0x66>
 8009330:	6861      	ldr	r1, [r4, #4]
 8009332:	4630      	mov	r0, r6
 8009334:	3101      	adds	r1, #1
 8009336:	f7ff ff90 	bl	800925a <_Balloc>
 800933a:	6922      	ldr	r2, [r4, #16]
 800933c:	3202      	adds	r2, #2
 800933e:	f104 010c 	add.w	r1, r4, #12
 8009342:	4680      	mov	r8, r0
 8009344:	0092      	lsls	r2, r2, #2
 8009346:	300c      	adds	r0, #12
 8009348:	f7ff ff7a 	bl	8009240 <memcpy>
 800934c:	4621      	mov	r1, r4
 800934e:	4630      	mov	r0, r6
 8009350:	f7ff ffb7 	bl	80092c2 <_Bfree>
 8009354:	4644      	mov	r4, r8
 8009356:	eb04 0385 	add.w	r3, r4, r5, lsl #2
 800935a:	3501      	adds	r5, #1
 800935c:	615f      	str	r7, [r3, #20]
 800935e:	6125      	str	r5, [r4, #16]
 8009360:	4620      	mov	r0, r4
 8009362:	e8bd 81f0 	ldmia.w	sp!, {r4, r5, r6, r7, r8, pc}

08009366 <__s2b>:
 8009366:	e92d 43f8 	stmdb	sp!, {r3, r4, r5, r6, r7, r8, r9, lr}
 800936a:	460c      	mov	r4, r1
 800936c:	4615      	mov	r5, r2
 800936e:	461f      	mov	r7, r3
 8009370:	2209      	movs	r2, #9
 8009372:	3308      	adds	r3, #8
 8009374:	4606      	mov	r6, r0
 8009376:	fb93 f3f2 	sdiv	r3, r3, r2
 800937a:	2100      	movs	r1, #0
 800937c:	2201      	movs	r2, #1
 800937e:	429a      	cmp	r2, r3
 8009380:	db20      	blt.n	80093c4 <__s2b+0x5e>
 8009382:	4630      	mov	r0, r6
 8009384:	f7ff ff69 	bl	800925a <_Balloc>
 8009388:	9b08      	ldr	r3, [sp, #32]
 800938a:	6143      	str	r3, [r0, #20]
 800938c:	2d09      	cmp	r5, #9
 800938e:	f04f 0301 	mov.w	r3, #1
 8009392:	6103      	str	r3, [r0, #16]
 8009394:	dd19      	ble.n	80093ca <__s2b+0x64>
 8009396:	f104 0809 	add.w	r8, r4, #9
 800939a:	46c1      	mov	r9, r8
 800939c:	442c      	add	r4, r5
 800939e:	f819 3b01 	ldrb.w	r3, [r9], #1
 80093a2:	4601      	mov	r1, r0
 80093a4:	3b30      	subs	r3, #48	; 0x30
 80093a6:	220a      	movs	r2, #10
 80093a8:	4630      	mov	r0, r6
 80093aa:	f7ff ffa1 	bl	80092f0 <__multadd>
 80093ae:	45a1      	cmp	r9, r4
 80093b0:	d1f5      	bne.n	800939e <__s2b+0x38>
 80093b2:	eb08 0405 	add.w	r4, r8, r5
 80093b6:	3c08      	subs	r4, #8
 80093b8:	1b2d      	subs	r5, r5, r4
 80093ba:	1963      	adds	r3, r4, r5
 80093bc:	42bb      	cmp	r3, r7
 80093be:	db07      	blt.n	80093d0 <__s2b+0x6a>
 80093c0:	e8bd 83f8 	ldmia.w	sp!, {r3, r4, r5, r6, r7, r8, r9, pc}
 80093c4:	0052      	lsls	r2, r2, #1
 80093c6:	3101      	adds	r1, #1
 80093c8:	e7d9      	b.n	800937e <__s2b+0x18>
 80093ca:	340a      	adds	r4, #10
 80093cc:	2509      	movs	r5, #9
 80093ce:	e7f3      	b.n	80093b8 <__s2b+0x52>
 80093d0:	f814 3b01 	ldrb.w	r3, [r4], #1
 80093d4:	4601      	mov	r1, r0
 80093d6:	3b30      	subs	r3, #48	; 0x30
 80093d8:	220a      	movs	r2, #10
 80093da:	4630      	mov	r0, r6
 80093dc:	f7ff ff88 	bl	80092f0 <__multadd>
 80093e0:	e7eb      	b.n	80093ba <__s2b+0x54>

080093e2 <__hi0bits>:
 80093e2:	0c02      	lsrs	r2, r0, #16
 80093e4:	0412      	lsls	r2, r2, #16
 80093e6:	4603      	mov	r3, r0
 80093e8:	b9b2      	cbnz	r2, 8009418 <__hi0bits+0x36>
 80093ea:	0403      	lsls	r3, r0, #16
 80093ec:	2010      	movs	r0, #16
 80093ee:	f013 4f7f 	tst.w	r3, #4278190080	; 0xff000000
 80093f2:	bf04      	itt	eq
 80093f4:	021b      	lsleq	r3, r3, #8
 80093f6:	3008      	addeq	r0, #8
 80093f8:	f013 4f70 	tst.w	r3, #4026531840	; 0xf0000000
 80093fc:	bf04      	itt	eq
 80093fe:	011b      	lsleq	r3, r3, #4
 8009400:	3004      	addeq	r0, #4
 8009402:	f013 4f40 	tst.w	r3, #3221225472	; 0xc0000000
 8009406:	bf04      	itt	eq
 8009408:	009b      	lsleq	r3, r3, #2
 800940a:	3002      	addeq	r0, #2
 800940c:	2b00      	cmp	r3, #0
 800940e:	db06      	blt.n	800941e <__hi0bits+0x3c>
 8009410:	005b      	lsls	r3, r3, #1
 8009412:	d503      	bpl.n	800941c <__hi0bits+0x3a>
 8009414:	3001      	adds	r0, #1
 8009416:	4770      	bx	lr
 8009418:	2000      	movs	r0, #0
 800941a:	e7e8      	b.n	80093ee <__hi0bits+0xc>
 800941c:	2020      	movs	r0, #32
 800941e:	4770      	bx	lr

08009420 <__lo0bits>:
 8009420:	6803      	ldr	r3, [r0, #0]
 8009422:	f013 0207 	ands.w	r2, r3, #7
 8009426:	4601      	mov	r1, r0
 8009428:	d00b      	beq.n	8009442 <__lo0bits+0x22>
 800942a:	07da      	lsls	r2, r3, #31
 800942c:	d423      	bmi.n	8009476 <__lo0bits+0x56>
 800942e:	0798      	lsls	r0, r3, #30
 8009430:	bf49      	itett	mi
 8009432:	085b      	lsrmi	r3, r3, #1
 8009434:	089b      	lsrpl	r3, r3, #2
 8009436:	2001      	movmi	r0, #1
 8009438:	600b      	strmi	r3, [r1, #0]
 800943a:	bf5c      	itt	pl
 800943c:	600b      	strpl	r3, [r1, #0]
 800943e:	2002      	movpl	r0, #2
 8009440:	4770      	bx	lr
 8009442:	b298      	uxth	r0, r3
 8009444:	b9a8      	cbnz	r0, 8009472 <__lo0bits+0x52>
 8009446:	0c1b      	lsrs	r3, r3, #16
 8009448:	2010      	movs	r0, #16
 800944a:	f013 0fff 	tst.w	r3, #255	; 0xff
 800944e:	bf04      	itt	eq
 8009450:	0a1b      	lsreq	r3, r3, #8
 8009452:	3008      	addeq	r0, #8
 8009454:	071a      	lsls	r2, r3, #28
 8009456:	bf04      	itt	eq
 8009458:	091b      	lsreq	r3, r3, #4
 800945a:	3004      	addeq	r0, #4
 800945c:	079a      	lsls	r2, r3, #30
 800945e:	bf04      	itt	eq
 8009460:	089b      	lsreq	r3, r3, #2
 8009462:	3002      	addeq	r0, #2
 8009464:	07da      	lsls	r2, r3, #31
 8009466:	d402      	bmi.n	800946e <__lo0bits+0x4e>
 8009468:	085b      	lsrs	r3, r3, #1
 800946a:	d006      	beq.n	800947a <__lo0bits+0x5a>
 800946c:	3001      	adds	r0, #1
 800946e:	600b      	str	r3, [r1, #0]
 8009470:	4770      	bx	lr
 8009472:	4610      	mov	r0, r2
 8009474:	e7e9      	b.n	800944a <__lo0bits+0x2a>
 8009476:	2000      	movs	r0, #0
 8009478:	4770      	bx	lr
 800947a:	2020      	movs	r0, #32
 800947c:	4770      	bx	lr

0800947e <__i2b>:
 800947e:	b510      	push	{r4, lr}
 8009480:	460c      	mov	r4, r1
 8009482:	2101      	movs	r1, #1
 8009484:	f7ff fee9 	bl	800925a <_Balloc>
 8009488:	2201      	movs	r2, #1
 800948a:	6144      	str	r4, [r0, #20]
 800948c:	6102      	str	r2, [r0, #16]
 800948e:	bd10      	pop	{r4, pc}

08009490 <__multiply>:
 8009490:	e92d 4ff7 	stmdb	sp!, {r0, r1, r2, r4, r5, r6, r7, r8, r9, sl, fp, lr}
 8009494:	4614      	mov	r4, r2
 8009496:	690a      	ldr	r2, [r1, #16]
 8009498:	6923      	ldr	r3, [r4, #16]
 800949a:	429a      	cmp	r2, r3
 800949c:	bfb8      	it	lt
 800949e:	460b      	movlt	r3, r1
 80094a0:	4688      	mov	r8, r1
 80094a2:	bfbc      	itt	lt
 80094a4:	46a0      	movlt	r8, r4
 80094a6:	461c      	movlt	r4, r3
 80094a8:	f8d8 7010 	ldr.w	r7, [r8, #16]
 80094ac:	f8d4 9010 	ldr.w	r9, [r4, #16]
 80094b0:	f8d8 3008 	ldr.w	r3, [r8, #8]
 80094b4:	f8d8 1004 	ldr.w	r1, [r8, #4]
 80094b8:	eb07 0609 	add.w	r6, r7, r9
 80094bc:	42b3      	cmp	r3, r6
 80094be:	bfb8      	it	lt
 80094c0:	3101      	addlt	r1, #1
 80094c2:	f7ff feca 	bl	800925a <_Balloc>
 80094c6:	f100 0514 	add.w	r5, r0, #20
 80094ca:	eb05 0e86 	add.w	lr, r5, r6, lsl #2
 80094ce:	462b      	mov	r3, r5
 80094d0:	2200      	movs	r2, #0
 80094d2:	4573      	cmp	r3, lr
 80094d4:	d316      	bcc.n	8009504 <__multiply+0x74>
 80094d6:	f104 0214 	add.w	r2, r4, #20
 80094da:	f108 0114 	add.w	r1, r8, #20
 80094de:	eb02 0389 	add.w	r3, r2, r9, lsl #2
 80094e2:	eb01 0787 	add.w	r7, r1, r7, lsl #2
 80094e6:	9300      	str	r3, [sp, #0]
 80094e8:	9b00      	ldr	r3, [sp, #0]
 80094ea:	9201      	str	r2, [sp, #4]
 80094ec:	4293      	cmp	r3, r2
 80094ee:	d80c      	bhi.n	800950a <__multiply+0x7a>
 80094f0:	2e00      	cmp	r6, #0
 80094f2:	dd03      	ble.n	80094fc <__multiply+0x6c>
 80094f4:	f85e 3d04 	ldr.w	r3, [lr, #-4]!
 80094f8:	2b00      	cmp	r3, #0
 80094fa:	d05d      	beq.n	80095b8 <__multiply+0x128>
 80094fc:	6106      	str	r6, [r0, #16]
 80094fe:	b003      	add	sp, #12
 8009500:	e8bd 8ff0 	ldmia.w	sp!, {r4, r5, r6, r7, r8, r9, sl, fp, pc}
 8009504:	f843 2b04 	str.w	r2, [r3], #4
 8009508:	e7e3      	b.n	80094d2 <__multiply+0x42>
 800950a:	f8b2 b000 	ldrh.w	fp, [r2]
 800950e:	f1bb 0f00 	cmp.w	fp, #0
 8009512:	d023      	beq.n	800955c <__multiply+0xcc>
 8009514:	4689      	mov	r9, r1
 8009516:	46ac      	mov	ip, r5
 8009518:	f04f 0800 	mov.w	r8, #0
 800951c:	f859 4b04 	ldr.w	r4, [r9], #4
 8009520:	f8dc a000 	ldr.w	sl, [ip]
 8009524:	b2a3      	uxth	r3, r4
 8009526:	fa1f fa8a 	uxth.w	sl, sl
 800952a:	fb0b a303 	mla	r3, fp, r3, sl
 800952e:	ea4f 4a14 	mov.w	sl, r4, lsr #16
 8009532:	f8dc 4000 	ldr.w	r4, [ip]
 8009536:	4443      	add	r3, r8
 8009538:	ea4f 4814 	mov.w	r8, r4, lsr #16
 800953c:	fb0b 840a 	mla	r4, fp, sl, r8
 8009540:	eb04 4413 	add.w	r4, r4, r3, lsr #16
 8009544:	46e2      	mov	sl, ip
 8009546:	b29b      	uxth	r3, r3
 8009548:	ea43 4304 	orr.w	r3, r3, r4, lsl #16
 800954c:	454f      	cmp	r7, r9
 800954e:	ea4f 4814 	mov.w	r8, r4, lsr #16
 8009552:	f84a 3b04 	str.w	r3, [sl], #4
 8009556:	d82b      	bhi.n	80095b0 <__multiply+0x120>
 8009558:	f8cc 8004 	str.w	r8, [ip, #4]
 800955c:	9b01      	ldr	r3, [sp, #4]
 800955e:	f8b3 a002 	ldrh.w	sl, [r3, #2]
 8009562:	3204      	adds	r2, #4
 8009564:	f1ba 0f00 	cmp.w	sl, #0
 8009568:	d020      	beq.n	80095ac <__multiply+0x11c>
 800956a:	682b      	ldr	r3, [r5, #0]
 800956c:	4689      	mov	r9, r1
 800956e:	46a8      	mov	r8, r5
 8009570:	f04f 0b00 	mov.w	fp, #0
 8009574:	f8b9 c000 	ldrh.w	ip, [r9]
 8009578:	f8b8 4002 	ldrh.w	r4, [r8, #2]
 800957c:	fb0a 440c 	mla	r4, sl, ip, r4
 8009580:	445c      	add	r4, fp
 8009582:	46c4      	mov	ip, r8
 8009584:	b29b      	uxth	r3, r3
 8009586:	ea43 4304 	orr.w	r3, r3, r4, lsl #16
 800958a:	f84c 3b04 	str.w	r3, [ip], #4
 800958e:	f859 3b04 	ldr.w	r3, [r9], #4
 8009592:	f8b8 b004 	ldrh.w	fp, [r8, #4]
 8009596:	0c1b      	lsrs	r3, r3, #16
 8009598:	fb0a b303 	mla	r3, sl, r3, fp
 800959c:	eb03 4314 	add.w	r3, r3, r4, lsr #16
 80095a0:	454f      	cmp	r7, r9
 80095a2:	ea4f 4b13 	mov.w	fp, r3, lsr #16
 80095a6:	d805      	bhi.n	80095b4 <__multiply+0x124>
 80095a8:	f8c8 3004 	str.w	r3, [r8, #4]
 80095ac:	3504      	adds	r5, #4
 80095ae:	e79b      	b.n	80094e8 <__multiply+0x58>
 80095b0:	46d4      	mov	ip, sl
 80095b2:	e7b3      	b.n	800951c <__multiply+0x8c>
 80095b4:	46e0      	mov	r8, ip
 80095b6:	e7dd      	b.n	8009574 <__multiply+0xe4>
 80095b8:	3e01      	subs	r6, #1
 80095ba:	e799      	b.n	80094f0 <__multiply+0x60>

080095bc <__pow5mult>:
 80095bc:	e92d 43f8 	stmdb	sp!, {r3, r4, r5, r6, r7, r8, r9, lr}
 80095c0:	4615      	mov	r5, r2
 80095c2:	f012 0203 	ands.w	r2, r2, #3
 80095c6:	4606      	mov	r6, r0
 80095c8:	460f      	mov	r7, r1
 80095ca:	d007      	beq.n	80095dc <__pow5mult+0x20>
 80095cc:	3a01      	subs	r2, #1
 80095ce:	4c21      	ldr	r4, [pc, #132]	; (8009654 <__pow5mult+0x98>)
 80095d0:	2300      	movs	r3, #0
 80095d2:	f854 2022 	ldr.w	r2, [r4, r2, lsl #2]
 80095d6:	f7ff fe8b 	bl	80092f0 <__multadd>
 80095da:	4607      	mov	r7, r0
 80095dc:	10ad      	asrs	r5, r5, #2
 80095de:	d035      	beq.n	800964c <__pow5mult+0x90>
 80095e0:	6a74      	ldr	r4, [r6, #36]	; 0x24
 80095e2:	b93c      	cbnz	r4, 80095f4 <__pow5mult+0x38>
 80095e4:	2010      	movs	r0, #16
 80095e6:	f7fd f905 	bl	80067f4 <malloc>
 80095ea:	6270      	str	r0, [r6, #36]	; 0x24
 80095ec:	e9c0 4401 	strd	r4, r4, [r0, #4]
 80095f0:	6004      	str	r4, [r0, #0]
 80095f2:	60c4      	str	r4, [r0, #12]
 80095f4:	f8d6 8024 	ldr.w	r8, [r6, #36]	; 0x24
 80095f8:	f8d8 4008 	ldr.w	r4, [r8, #8]
 80095fc:	b94c      	cbnz	r4, 8009612 <__pow5mult+0x56>
 80095fe:	f240 2171 	movw	r1, #625	; 0x271
 8009602:	4630      	mov	r0, r6
 8009604:	f7ff ff3b 	bl	800947e <__i2b>
 8009608:	2300      	movs	r3, #0
 800960a:	f8c8 0008 	str.w	r0, [r8, #8]
 800960e:	4604      	mov	r4, r0
 8009610:	6003      	str	r3, [r0, #0]
 8009612:	f04f 0800 	mov.w	r8, #0
 8009616:	07eb      	lsls	r3, r5, #31
 8009618:	d50a      	bpl.n	8009630 <__pow5mult+0x74>
 800961a:	4639      	mov	r1, r7
 800961c:	4622      	mov	r2, r4
 800961e:	4630      	mov	r0, r6
 8009620:	f7ff ff36 	bl	8009490 <__multiply>
 8009624:	4639      	mov	r1, r7
 8009626:	4681      	mov	r9, r0
 8009628:	4630      	mov	r0, r6
 800962a:	f7ff fe4a 	bl	80092c2 <_Bfree>
 800962e:	464f      	mov	r7, r9
 8009630:	106d      	asrs	r5, r5, #1
 8009632:	d00b      	beq.n	800964c <__pow5mult+0x90>
 8009634:	6820      	ldr	r0, [r4, #0]
 8009636:	b938      	cbnz	r0, 8009648 <__pow5mult+0x8c>
 8009638:	4622      	mov	r2, r4
 800963a:	4621      	mov	r1, r4
 800963c:	4630      	mov	r0, r6
 800963e:	f7ff ff27 	bl	8009490 <__multiply>
 8009642:	6020      	str	r0, [r4, #0]
 8009644:	f8c0 8000 	str.w	r8, [r0]
 8009648:	4604      	mov	r4, r0
 800964a:	e7e4      	b.n	8009616 <__pow5mult+0x5a>
 800964c:	4638      	mov	r0, r7
 800964e:	e8bd 83f8 	ldmia.w	sp!, {r3, r4, r5, r6, r7, r8, r9, pc}
 8009652:	bf00      	nop
 8009654:	0800b528 	.word	0x0800b528

08009658 <__lshift>:
 8009658:	e92d 47f0 	stmdb	sp!, {r4, r5, r6, r7, r8, r9, sl, lr}
 800965c:	460c      	mov	r4, r1
 800965e:	ea4f 1a62 	mov.w	sl, r2, asr #5
 8009662:	6923      	ldr	r3, [r4, #16]
 8009664:	6849      	ldr	r1, [r1, #4]
 8009666:	eb0a 0903 	add.w	r9, sl, r3
 800966a:	68a3      	ldr	r3, [r4, #8]
 800966c:	4607      	mov	r7, r0
 800966e:	4616      	mov	r6, r2
 8009670:	f109 0501 	add.w	r5, r9, #1
 8009674:	42ab      	cmp	r3, r5
 8009676:	db32      	blt.n	80096de <__lshift+0x86>
 8009678:	4638      	mov	r0, r7
 800967a:	f7ff fdee 	bl	800925a <_Balloc>
 800967e:	2300      	movs	r3, #0
 8009680:	4680      	mov	r8, r0
 8009682:	f100 0114 	add.w	r1, r0, #20
 8009686:	461a      	mov	r2, r3
 8009688:	4553      	cmp	r3, sl
 800968a:	db2b      	blt.n	80096e4 <__lshift+0x8c>
 800968c:	6920      	ldr	r0, [r4, #16]
 800968e:	ea2a 7aea 	bic.w	sl, sl, sl, asr #31
 8009692:	f104 0314 	add.w	r3, r4, #20
 8009696:	f016 021f 	ands.w	r2, r6, #31
 800969a:	eb01 018a 	add.w	r1, r1, sl, lsl #2
 800969e:	eb03 0c80 	add.w	ip, r3, r0, lsl #2
 80096a2:	d025      	beq.n	80096f0 <__lshift+0x98>
 80096a4:	f1c2 0e20 	rsb	lr, r2, #32
 80096a8:	2000      	movs	r0, #0
 80096aa:	681e      	ldr	r6, [r3, #0]
 80096ac:	468a      	mov	sl, r1
 80096ae:	4096      	lsls	r6, r2
 80096b0:	4330      	orrs	r0, r6
 80096b2:	f84a 0b04 	str.w	r0, [sl], #4
 80096b6:	f853 0b04 	ldr.w	r0, [r3], #4
 80096ba:	459c      	cmp	ip, r3
 80096bc:	fa20 f00e 	lsr.w	r0, r0, lr
 80096c0:	d814      	bhi.n	80096ec <__lshift+0x94>
 80096c2:	6048      	str	r0, [r1, #4]
 80096c4:	b108      	cbz	r0, 80096ca <__lshift+0x72>
 80096c6:	f109 0502 	add.w	r5, r9, #2
 80096ca:	3d01      	subs	r5, #1
 80096cc:	4638      	mov	r0, r7
 80096ce:	f8c8 5010 	str.w	r5, [r8, #16]
 80096d2:	4621      	mov	r1, r4
 80096d4:	f7ff fdf5 	bl	80092c2 <_Bfree>
 80096d8:	4640      	mov	r0, r8
 80096da:	e8bd 87f0 	ldmia.w	sp!, {r4, r5, r6, r7, r8, r9, sl, pc}
 80096de:	3101      	adds	r1, #1
 80096e0:	005b      	lsls	r3, r3, #1
 80096e2:	e7c7      	b.n	8009674 <__lshift+0x1c>
 80096e4:	f841 2023 	str.w	r2, [r1, r3, lsl #2]
 80096e8:	3301      	adds	r3, #1
 80096ea:	e7cd      	b.n	8009688 <__lshift+0x30>
 80096ec:	4651      	mov	r1, sl
 80096ee:	e7dc      	b.n	80096aa <__lshift+0x52>
 80096f0:	3904      	subs	r1, #4
 80096f2:	f853 2b04 	ldr.w	r2, [r3], #4
 80096f6:	f841 2f04 	str.w	r2, [r1, #4]!
 80096fa:	459c      	cmp	ip, r3
 80096fc:	d8f9      	bhi.n	80096f2 <__lshift+0x9a>
 80096fe:	e7e4      	b.n	80096ca <__lshift+0x72>

08009700 <__mcmp>:
 8009700:	6903      	ldr	r3, [r0, #16]
 8009702:	690a      	ldr	r2, [r1, #16]
 8009704:	1a9b      	subs	r3, r3, r2
 8009706:	b530      	push	{r4, r5, lr}
 8009708:	d10c      	bne.n	8009724 <__mcmp+0x24>
 800970a:	0092      	lsls	r2, r2, #2
 800970c:	3014      	adds	r0, #20
 800970e:	3114      	adds	r1, #20
 8009710:	1884      	adds	r4, r0, r2
 8009712:	4411      	add	r1, r2
 8009714:	f854 5d04 	ldr.w	r5, [r4, #-4]!
 8009718:	f851 2d04 	ldr.w	r2, [r1, #-4]!
 800971c:	4295      	cmp	r5, r2
 800971e:	d003      	beq.n	8009728 <__mcmp+0x28>
 8009720:	d305      	bcc.n	800972e <__mcmp+0x2e>
 8009722:	2301      	movs	r3, #1
 8009724:	4618      	mov	r0, r3
 8009726:	bd30      	pop	{r4, r5, pc}
 8009728:	42a0      	cmp	r0, r4
 800972a:	d3f3      	bcc.n	8009714 <__mcmp+0x14>
 800972c:	e7fa      	b.n	8009724 <__mcmp+0x24>
 800972e:	f04f 33ff 	mov.w	r3, #4294967295
 8009732:	e7f7      	b.n	8009724 <__mcmp+0x24>

08009734 <__mdiff>:
 8009734:	e92d 47f0 	stmdb	sp!, {r4, r5, r6, r7, r8, r9, sl, lr}
 8009738:	460d      	mov	r5, r1
 800973a:	4607      	mov	r7, r0
 800973c:	4611      	mov	r1, r2
 800973e:	4628      	mov	r0, r5
 8009740:	4614      	mov	r4, r2
 8009742:	f7ff ffdd 	bl	8009700 <__mcmp>
 8009746:	1e06      	subs	r6, r0, #0
 8009748:	d108      	bne.n	800975c <__mdiff+0x28>
 800974a:	4631      	mov	r1, r6
 800974c:	4638      	mov	r0, r7
 800974e:	f7ff fd84 	bl	800925a <_Balloc>
 8009752:	2301      	movs	r3, #1
 8009754:	e9c0 3604 	strd	r3, r6, [r0, #16]
 8009758:	e8bd 87f0 	ldmia.w	sp!, {r4, r5, r6, r7, r8, r9, sl, pc}
 800975c:	bfa4      	itt	ge
 800975e:	4623      	movge	r3, r4
 8009760:	462c      	movge	r4, r5
 8009762:	4638      	mov	r0, r7
 8009764:	6861      	ldr	r1, [r4, #4]
 8009766:	bfa6      	itte	ge
 8009768:	461d      	movge	r5, r3
 800976a:	2600      	movge	r6, #0
 800976c:	2601      	movlt	r6, #1
 800976e:	f7ff fd74 	bl	800925a <_Balloc>
 8009772:	692b      	ldr	r3, [r5, #16]
 8009774:	60c6      	str	r6, [r0, #12]
 8009776:	6926      	ldr	r6, [r4, #16]
 8009778:	f105 0914 	add.w	r9, r5, #20
 800977c:	f104 0214 	add.w	r2, r4, #20
 8009780:	eb02 0786 	add.w	r7, r2, r6, lsl #2
 8009784:	eb09 0883 	add.w	r8, r9, r3, lsl #2
 8009788:	f100 0514 	add.w	r5, r0, #20
 800978c:	f04f 0e00 	mov.w	lr, #0
 8009790:	f852 ab04 	ldr.w	sl, [r2], #4
 8009794:	f859 4b04 	ldr.w	r4, [r9], #4
 8009798:	fa1e f18a 	uxtah	r1, lr, sl
 800979c:	b2a3      	uxth	r3, r4
 800979e:	1ac9      	subs	r1, r1, r3
 80097a0:	0c23      	lsrs	r3, r4, #16
 80097a2:	ebc3 431a 	rsb	r3, r3, sl, lsr #16
 80097a6:	eb03 4321 	add.w	r3, r3, r1, asr #16
 80097aa:	b289      	uxth	r1, r1
 80097ac:	ea4f 4e23 	mov.w	lr, r3, asr #16
 80097b0:	45c8      	cmp	r8, r9
 80097b2:	ea41 4303 	orr.w	r3, r1, r3, lsl #16
 80097b6:	4694      	mov	ip, r2
 80097b8:	f845 3b04 	str.w	r3, [r5], #4
 80097bc:	d8e8      	bhi.n	8009790 <__mdiff+0x5c>
 80097be:	45bc      	cmp	ip, r7
 80097c0:	d304      	bcc.n	80097cc <__mdiff+0x98>
 80097c2:	f855 3d04 	ldr.w	r3, [r5, #-4]!
 80097c6:	b183      	cbz	r3, 80097ea <__mdiff+0xb6>
 80097c8:	6106      	str	r6, [r0, #16]
 80097ca:	e7c5      	b.n	8009758 <__mdiff+0x24>
 80097cc:	f85c 1b04 	ldr.w	r1, [ip], #4
 80097d0:	fa1e f381 	uxtah	r3, lr, r1
 80097d4:	141a      	asrs	r2, r3, #16
 80097d6:	eb02 4211 	add.w	r2, r2, r1, lsr #16
 80097da:	b29b      	uxth	r3, r3
 80097dc:	ea43 4302 	orr.w	r3, r3, r2, lsl #16
 80097e0:	ea4f 4e22 	mov.w	lr, r2, asr #16
 80097e4:	f845 3b04 	str.w	r3, [r5], #4
 80097e8:	e7e9      	b.n	80097be <__mdiff+0x8a>
 80097ea:	3e01      	subs	r6, #1
 80097ec:	e7e9      	b.n	80097c2 <__mdiff+0x8e>
	...

080097f0 <__ulp>:
 80097f0:	4b12      	ldr	r3, [pc, #72]	; (800983c <__ulp+0x4c>)
 80097f2:	ee10 2a90 	vmov	r2, s1
 80097f6:	401a      	ands	r2, r3
 80097f8:	f1a2 7350 	sub.w	r3, r2, #54525952	; 0x3400000
 80097fc:	2b00      	cmp	r3, #0
 80097fe:	dd04      	ble.n	800980a <__ulp+0x1a>
 8009800:	2000      	movs	r0, #0
 8009802:	4619      	mov	r1, r3
 8009804:	ec41 0b10 	vmov	d0, r0, r1
 8009808:	4770      	bx	lr
 800980a:	425b      	negs	r3, r3
 800980c:	151b      	asrs	r3, r3, #20
 800980e:	2b13      	cmp	r3, #19
 8009810:	f04f 0000 	mov.w	r0, #0
 8009814:	f04f 0100 	mov.w	r1, #0
 8009818:	dc04      	bgt.n	8009824 <__ulp+0x34>
 800981a:	f44f 2200 	mov.w	r2, #524288	; 0x80000
 800981e:	fa42 f103 	asr.w	r1, r2, r3
 8009822:	e7ef      	b.n	8009804 <__ulp+0x14>
 8009824:	3b14      	subs	r3, #20
 8009826:	2b1e      	cmp	r3, #30
 8009828:	f04f 0201 	mov.w	r2, #1
 800982c:	bfda      	itte	le
 800982e:	f1c3 031f 	rsble	r3, r3, #31
 8009832:	fa02 f303 	lslle.w	r3, r2, r3
 8009836:	4613      	movgt	r3, r2
 8009838:	4618      	mov	r0, r3
 800983a:	e7e3      	b.n	8009804 <__ulp+0x14>
 800983c:	7ff00000 	.word	0x7ff00000

08009840 <__b2d>:
 8009840:	b5f8      	push	{r3, r4, r5, r6, r7, lr}
 8009842:	6905      	ldr	r5, [r0, #16]
 8009844:	f100 0714 	add.w	r7, r0, #20
 8009848:	eb07 0585 	add.w	r5, r7, r5, lsl #2
 800984c:	1f2e      	subs	r6, r5, #4
 800984e:	f855 4c04 	ldr.w	r4, [r5, #-4]
 8009852:	4620      	mov	r0, r4
 8009854:	f7ff fdc5 	bl	80093e2 <__hi0bits>
 8009858:	f1c0 0320 	rsb	r3, r0, #32
 800985c:	280a      	cmp	r0, #10
 800985e:	600b      	str	r3, [r1, #0]
 8009860:	f8df c074 	ldr.w	ip, [pc, #116]	; 80098d8 <__b2d+0x98>
 8009864:	dc14      	bgt.n	8009890 <__b2d+0x50>
 8009866:	f1c0 0e0b 	rsb	lr, r0, #11
 800986a:	fa24 f10e 	lsr.w	r1, r4, lr
 800986e:	42b7      	cmp	r7, r6
 8009870:	ea41 030c 	orr.w	r3, r1, ip
 8009874:	bf34      	ite	cc
 8009876:	f855 1c08 	ldrcc.w	r1, [r5, #-8]
 800987a:	2100      	movcs	r1, #0
 800987c:	3015      	adds	r0, #21
 800987e:	fa04 f000 	lsl.w	r0, r4, r0
 8009882:	fa21 f10e 	lsr.w	r1, r1, lr
 8009886:	ea40 0201 	orr.w	r2, r0, r1
 800988a:	ec43 2b10 	vmov	d0, r2, r3
 800988e:	bdf8      	pop	{r3, r4, r5, r6, r7, pc}
 8009890:	42b7      	cmp	r7, r6
 8009892:	bf3a      	itte	cc
 8009894:	f1a5 0608 	subcc.w	r6, r5, #8
 8009898:	f855 1c08 	ldrcc.w	r1, [r5, #-8]
 800989c:	2100      	movcs	r1, #0
 800989e:	380b      	subs	r0, #11
 80098a0:	d015      	beq.n	80098ce <__b2d+0x8e>
 80098a2:	4084      	lsls	r4, r0
 80098a4:	f1c0 0520 	rsb	r5, r0, #32
 80098a8:	f044 547f 	orr.w	r4, r4, #1069547520	; 0x3fc00000
 80098ac:	f444 1440 	orr.w	r4, r4, #3145728	; 0x300000
 80098b0:	42be      	cmp	r6, r7
 80098b2:	fa21 fc05 	lsr.w	ip, r1, r5
 80098b6:	ea44 030c 	orr.w	r3, r4, ip
 80098ba:	bf8c      	ite	hi
 80098bc:	f856 4c04 	ldrhi.w	r4, [r6, #-4]
 80098c0:	2400      	movls	r4, #0
 80098c2:	fa01 f000 	lsl.w	r0, r1, r0
 80098c6:	40ec      	lsrs	r4, r5
 80098c8:	ea40 0204 	orr.w	r2, r0, r4
 80098cc:	e7dd      	b.n	800988a <__b2d+0x4a>
 80098ce:	ea44 030c 	orr.w	r3, r4, ip
 80098d2:	460a      	mov	r2, r1
 80098d4:	e7d9      	b.n	800988a <__b2d+0x4a>
 80098d6:	bf00      	nop
 80098d8:	3ff00000 	.word	0x3ff00000

080098dc <__d2b>:
 80098dc:	e92d 43f7 	stmdb	sp!, {r0, r1, r2, r4, r5, r6, r7, r8, r9, lr}
 80098e0:	460e      	mov	r6, r1
 80098e2:	2101      	movs	r1, #1
 80098e4:	ec59 8b10 	vmov	r8, r9, d0
 80098e8:	4615      	mov	r5, r2
 80098ea:	f7ff fcb6 	bl	800925a <_Balloc>
 80098ee:	f3c9 540a 	ubfx	r4, r9, #20, #11
 80098f2:	4607      	mov	r7, r0
 80098f4:	f3c9 0313 	ubfx	r3, r9, #0, #20
 80098f8:	bb34      	cbnz	r4, 8009948 <__d2b+0x6c>
 80098fa:	9301      	str	r3, [sp, #4]
 80098fc:	f1b8 0300 	subs.w	r3, r8, #0
 8009900:	d027      	beq.n	8009952 <__d2b+0x76>
 8009902:	a802      	add	r0, sp, #8
 8009904:	f840 3d08 	str.w	r3, [r0, #-8]!
 8009908:	f7ff fd8a 	bl	8009420 <__lo0bits>
 800990c:	9900      	ldr	r1, [sp, #0]
 800990e:	b1f0      	cbz	r0, 800994e <__d2b+0x72>
 8009910:	9a01      	ldr	r2, [sp, #4]
 8009912:	f1c0 0320 	rsb	r3, r0, #32
 8009916:	fa02 f303 	lsl.w	r3, r2, r3
 800991a:	430b      	orrs	r3, r1
 800991c:	40c2      	lsrs	r2, r0
 800991e:	617b      	str	r3, [r7, #20]
 8009920:	9201      	str	r2, [sp, #4]
 8009922:	9b01      	ldr	r3, [sp, #4]
 8009924:	61bb      	str	r3, [r7, #24]
 8009926:	2b00      	cmp	r3, #0
 8009928:	bf14      	ite	ne
 800992a:	2102      	movne	r1, #2
 800992c:	2101      	moveq	r1, #1
 800992e:	6139      	str	r1, [r7, #16]
 8009930:	b1c4      	cbz	r4, 8009964 <__d2b+0x88>
 8009932:	f2a4 4433 	subw	r4, r4, #1075	; 0x433
 8009936:	4404      	add	r4, r0
 8009938:	6034      	str	r4, [r6, #0]
 800993a:	f1c0 0035 	rsb	r0, r0, #53	; 0x35
 800993e:	6028      	str	r0, [r5, #0]
 8009940:	4638      	mov	r0, r7
 8009942:	b003      	add	sp, #12
 8009944:	e8bd 83f0 	ldmia.w	sp!, {r4, r5, r6, r7, r8, r9, pc}
 8009948:	f443 1380 	orr.w	r3, r3, #1048576	; 0x100000
 800994c:	e7d5      	b.n	80098fa <__d2b+0x1e>
 800994e:	6179      	str	r1, [r7, #20]
 8009950:	e7e7      	b.n	8009922 <__d2b+0x46>
 8009952:	a801      	add	r0, sp, #4
 8009954:	f7ff fd64 	bl	8009420 <__lo0bits>
 8009958:	9b01      	ldr	r3, [sp, #4]
 800995a:	617b      	str	r3, [r7, #20]
 800995c:	2101      	movs	r1, #1
 800995e:	6139      	str	r1, [r7, #16]
 8009960:	3020      	adds	r0, #32
 8009962:	e7e5      	b.n	8009930 <__d2b+0x54>
 8009964:	eb07 0381 	add.w	r3, r7, r1, lsl #2
 8009968:	f2a0 4032 	subw	r0, r0, #1074	; 0x432
 800996c:	6030      	str	r0, [r6, #0]
 800996e:	6918      	ldr	r0, [r3, #16]
 8009970:	f7ff fd37 	bl	80093e2 <__hi0bits>
 8009974:	ebc0 1041 	rsb	r0, r0, r1, lsl #5
 8009978:	e7e1      	b.n	800993e <__d2b+0x62>

0800997a <__ratio>:
 800997a:	e92d 4ff7 	stmdb	sp!, {r0, r1, r2, r4, r5, r6, r7, r8, r9, sl, fp, lr}
 800997e:	4688      	mov	r8, r1
 8009980:	4669      	mov	r1, sp
 8009982:	4681      	mov	r9, r0
 8009984:	f7ff ff5c 	bl	8009840 <__b2d>
 8009988:	a901      	add	r1, sp, #4
 800998a:	4640      	mov	r0, r8
 800998c:	ec57 6b10 	vmov	r6, r7, d0
 8009990:	f7ff ff56 	bl	8009840 <__b2d>
 8009994:	f8d9 3010 	ldr.w	r3, [r9, #16]
 8009998:	f8d8 2010 	ldr.w	r2, [r8, #16]
 800999c:	eba3 0c02 	sub.w	ip, r3, r2
 80099a0:	e9dd 3200 	ldrd	r3, r2, [sp]
 80099a4:	1a9b      	subs	r3, r3, r2
 80099a6:	eb03 134c 	add.w	r3, r3, ip, lsl #5
 80099aa:	ec5b ab10 	vmov	sl, fp, d0
 80099ae:	2b00      	cmp	r3, #0
 80099b0:	bfce      	itee	gt
 80099b2:	463a      	movgt	r2, r7
 80099b4:	ebc3 3303 	rsble	r3, r3, r3, lsl #12
 80099b8:	465a      	movle	r2, fp
 80099ba:	4659      	mov	r1, fp
 80099bc:	463d      	mov	r5, r7
 80099be:	bfd4      	ite	le
 80099c0:	eb02 5103 	addle.w	r1, r2, r3, lsl #20
 80099c4:	eb02 5503 	addgt.w	r5, r2, r3, lsl #20
 80099c8:	4630      	mov	r0, r6
 80099ca:	ee10 2a10 	vmov	r2, s0
 80099ce:	460b      	mov	r3, r1
 80099d0:	4629      	mov	r1, r5
 80099d2:	f7f6 ff3b 	bl	800084c <__aeabi_ddiv>
 80099d6:	ec41 0b10 	vmov	d0, r0, r1
 80099da:	b003      	add	sp, #12
 80099dc:	e8bd 8ff0 	ldmia.w	sp!, {r4, r5, r6, r7, r8, r9, sl, fp, pc}

080099e0 <__copybits>:
 80099e0:	3901      	subs	r1, #1
 80099e2:	b510      	push	{r4, lr}
 80099e4:	1149      	asrs	r1, r1, #5
 80099e6:	6914      	ldr	r4, [r2, #16]
 80099e8:	3101      	adds	r1, #1
 80099ea:	f102 0314 	add.w	r3, r2, #20
 80099ee:	eb00 0181 	add.w	r1, r0, r1, lsl #2
 80099f2:	eb03 0484 	add.w	r4, r3, r4, lsl #2
 80099f6:	42a3      	cmp	r3, r4
 80099f8:	4602      	mov	r2, r0
 80099fa:	d303      	bcc.n	8009a04 <__copybits+0x24>
 80099fc:	2300      	movs	r3, #0
 80099fe:	428a      	cmp	r2, r1
 8009a00:	d305      	bcc.n	8009a0e <__copybits+0x2e>
 8009a02:	bd10      	pop	{r4, pc}
 8009a04:	f853 2b04 	ldr.w	r2, [r3], #4
 8009a08:	f840 2b04 	str.w	r2, [r0], #4
 8009a0c:	e7f3      	b.n	80099f6 <__copybits+0x16>
 8009a0e:	f842 3b04 	str.w	r3, [r2], #4
 8009a12:	e7f4      	b.n	80099fe <__copybits+0x1e>

08009a14 <__any_on>:
 8009a14:	f100 0214 	add.w	r2, r0, #20
 8009a18:	6900      	ldr	r0, [r0, #16]
 8009a1a:	114b      	asrs	r3, r1, #5
 8009a1c:	4298      	cmp	r0, r3
 8009a1e:	b510      	push	{r4, lr}
 8009a20:	db11      	blt.n	8009a46 <__any_on+0x32>
 8009a22:	dd0a      	ble.n	8009a3a <__any_on+0x26>
 8009a24:	f011 011f 	ands.w	r1, r1, #31
 8009a28:	d007      	beq.n	8009a3a <__any_on+0x26>
 8009a2a:	f852 4023 	ldr.w	r4, [r2, r3, lsl #2]
 8009a2e:	fa24 f001 	lsr.w	r0, r4, r1
 8009a32:	fa00 f101 	lsl.w	r1, r0, r1
 8009a36:	428c      	cmp	r4, r1
 8009a38:	d10b      	bne.n	8009a52 <__any_on+0x3e>
 8009a3a:	eb02 0383 	add.w	r3, r2, r3, lsl #2
 8009a3e:	4293      	cmp	r3, r2
 8009a40:	d803      	bhi.n	8009a4a <__any_on+0x36>
 8009a42:	2000      	movs	r0, #0
 8009a44:	bd10      	pop	{r4, pc}
 8009a46:	4603      	mov	r3, r0
 8009a48:	e7f7      	b.n	8009a3a <__any_on+0x26>
 8009a4a:	f853 1d04 	ldr.w	r1, [r3, #-4]!
 8009a4e:	2900      	cmp	r1, #0
 8009a50:	d0f5      	beq.n	8009a3e <__any_on+0x2a>
 8009a52:	2001      	movs	r0, #1
 8009a54:	e7f6      	b.n	8009a44 <__any_on+0x30>

08009a56 <_calloc_r>:
 8009a56:	b538      	push	{r3, r4, r5, lr}
 8009a58:	fb02 f401 	mul.w	r4, r2, r1
 8009a5c:	4621      	mov	r1, r4
 8009a5e:	f7fc ff2f 	bl	80068c0 <_malloc_r>
 8009a62:	4605      	mov	r5, r0
 8009a64:	b118      	cbz	r0, 8009a6e <_calloc_r+0x18>
 8009a66:	4622      	mov	r2, r4
 8009a68:	2100      	movs	r1, #0
 8009a6a:	f7fc fed3 	bl	8006814 <memset>
 8009a6e:	4628      	mov	r0, r5
 8009a70:	bd38      	pop	{r3, r4, r5, pc}

08009a72 <__ssputs_r>:
 8009a72:	e92d 47f0 	stmdb	sp!, {r4, r5, r6, r7, r8, r9, sl, lr}
 8009a76:	688e      	ldr	r6, [r1, #8]
 8009a78:	429e      	cmp	r6, r3
 8009a7a:	4682      	mov	sl, r0
 8009a7c:	460c      	mov	r4, r1
 8009a7e:	4690      	mov	r8, r2
 8009a80:	4699      	mov	r9, r3
 8009a82:	d837      	bhi.n	8009af4 <__ssputs_r+0x82>
 8009a84:	898a      	ldrh	r2, [r1, #12]
 8009a86:	f412 6f90 	tst.w	r2, #1152	; 0x480
 8009a8a:	d031      	beq.n	8009af0 <__ssputs_r+0x7e>
 8009a8c:	6825      	ldr	r5, [r4, #0]
 8009a8e:	6909      	ldr	r1, [r1, #16]
 8009a90:	1a6f      	subs	r7, r5, r1
 8009a92:	6965      	ldr	r5, [r4, #20]
 8009a94:	2302      	movs	r3, #2
 8009a96:	eb05 0545 	add.w	r5, r5, r5, lsl #1
 8009a9a:	fb95 f5f3 	sdiv	r5, r5, r3
 8009a9e:	f109 0301 	add.w	r3, r9, #1
 8009aa2:	443b      	add	r3, r7
 8009aa4:	429d      	cmp	r5, r3
 8009aa6:	bf38      	it	cc
 8009aa8:	461d      	movcc	r5, r3
 8009aaa:	0553      	lsls	r3, r2, #21
 8009aac:	d530      	bpl.n	8009b10 <__ssputs_r+0x9e>
 8009aae:	4629      	mov	r1, r5
 8009ab0:	f7fc ff06 	bl	80068c0 <_malloc_r>
 8009ab4:	4606      	mov	r6, r0
 8009ab6:	b950      	cbnz	r0, 8009ace <__ssputs_r+0x5c>
 8009ab8:	230c      	movs	r3, #12
 8009aba:	f8ca 3000 	str.w	r3, [sl]
 8009abe:	89a3      	ldrh	r3, [r4, #12]
 8009ac0:	f043 0340 	orr.w	r3, r3, #64	; 0x40
 8009ac4:	81a3      	strh	r3, [r4, #12]
 8009ac6:	f04f 30ff 	mov.w	r0, #4294967295
 8009aca:	e8bd 87f0 	ldmia.w	sp!, {r4, r5, r6, r7, r8, r9, sl, pc}
 8009ace:	463a      	mov	r2, r7
 8009ad0:	6921      	ldr	r1, [r4, #16]
 8009ad2:	f7ff fbb5 	bl	8009240 <memcpy>
 8009ad6:	89a3      	ldrh	r3, [r4, #12]
 8009ad8:	f423 6390 	bic.w	r3, r3, #1152	; 0x480
 8009adc:	f043 0380 	orr.w	r3, r3, #128	; 0x80
 8009ae0:	81a3      	strh	r3, [r4, #12]
 8009ae2:	6126      	str	r6, [r4, #16]
 8009ae4:	6165      	str	r5, [r4, #20]
 8009ae6:	443e      	add	r6, r7
 8009ae8:	1bed      	subs	r5, r5, r7
 8009aea:	6026      	str	r6, [r4, #0]
 8009aec:	60a5      	str	r5, [r4, #8]
 8009aee:	464e      	mov	r6, r9
 8009af0:	454e      	cmp	r6, r9
 8009af2:	d900      	bls.n	8009af6 <__ssputs_r+0x84>
 8009af4:	464e      	mov	r6, r9
 8009af6:	4632      	mov	r2, r6
 8009af8:	4641      	mov	r1, r8
 8009afa:	6820      	ldr	r0, [r4, #0]
 8009afc:	f000 f92b 	bl	8009d56 <memmove>
 8009b00:	68a3      	ldr	r3, [r4, #8]
 8009b02:	1b9b      	subs	r3, r3, r6
 8009b04:	60a3      	str	r3, [r4, #8]
 8009b06:	6823      	ldr	r3, [r4, #0]
 8009b08:	441e      	add	r6, r3
 8009b0a:	6026      	str	r6, [r4, #0]
 8009b0c:	2000      	movs	r0, #0
 8009b0e:	e7dc      	b.n	8009aca <__ssputs_r+0x58>
 8009b10:	462a      	mov	r2, r5
 8009b12:	f000 f939 	bl	8009d88 <_realloc_r>
 8009b16:	4606      	mov	r6, r0
 8009b18:	2800      	cmp	r0, #0
 8009b1a:	d1e2      	bne.n	8009ae2 <__ssputs_r+0x70>
 8009b1c:	6921      	ldr	r1, [r4, #16]
 8009b1e:	4650      	mov	r0, sl
 8009b20:	f7fc fe80 	bl	8006824 <_free_r>
 8009b24:	e7c8      	b.n	8009ab8 <__ssputs_r+0x46>
	...

08009b28 <_svfiprintf_r>:
 8009b28:	e92d 4ff0 	stmdb	sp!, {r4, r5, r6, r7, r8, r9, sl, fp, lr}
 8009b2c:	461d      	mov	r5, r3
 8009b2e:	898b      	ldrh	r3, [r1, #12]
 8009b30:	061f      	lsls	r7, r3, #24
 8009b32:	b09d      	sub	sp, #116	; 0x74
 8009b34:	4680      	mov	r8, r0
 8009b36:	460c      	mov	r4, r1
 8009b38:	4616      	mov	r6, r2
 8009b3a:	d50f      	bpl.n	8009b5c <_svfiprintf_r+0x34>
 8009b3c:	690b      	ldr	r3, [r1, #16]
 8009b3e:	b96b      	cbnz	r3, 8009b5c <_svfiprintf_r+0x34>
 8009b40:	2140      	movs	r1, #64	; 0x40
 8009b42:	f7fc febd 	bl	80068c0 <_malloc_r>
 8009b46:	6020      	str	r0, [r4, #0]
 8009b48:	6120      	str	r0, [r4, #16]
 8009b4a:	b928      	cbnz	r0, 8009b58 <_svfiprintf_r+0x30>
 8009b4c:	230c      	movs	r3, #12
 8009b4e:	f8c8 3000 	str.w	r3, [r8]
 8009b52:	f04f 30ff 	mov.w	r0, #4294967295
 8009b56:	e0c8      	b.n	8009cea <_svfiprintf_r+0x1c2>
 8009b58:	2340      	movs	r3, #64	; 0x40
 8009b5a:	6163      	str	r3, [r4, #20]
 8009b5c:	2300      	movs	r3, #0
 8009b5e:	9309      	str	r3, [sp, #36]	; 0x24
 8009b60:	2320      	movs	r3, #32
 8009b62:	f88d 3029 	strb.w	r3, [sp, #41]	; 0x29
 8009b66:	2330      	movs	r3, #48	; 0x30
 8009b68:	f88d 302a 	strb.w	r3, [sp, #42]	; 0x2a
 8009b6c:	9503      	str	r5, [sp, #12]
 8009b6e:	f04f 0b01 	mov.w	fp, #1
 8009b72:	4637      	mov	r7, r6
 8009b74:	463d      	mov	r5, r7
 8009b76:	f815 3b01 	ldrb.w	r3, [r5], #1
 8009b7a:	b10b      	cbz	r3, 8009b80 <_svfiprintf_r+0x58>
 8009b7c:	2b25      	cmp	r3, #37	; 0x25
 8009b7e:	d13e      	bne.n	8009bfe <_svfiprintf_r+0xd6>
 8009b80:	ebb7 0a06 	subs.w	sl, r7, r6
 8009b84:	d00b      	beq.n	8009b9e <_svfiprintf_r+0x76>
 8009b86:	4653      	mov	r3, sl
 8009b88:	4632      	mov	r2, r6
 8009b8a:	4621      	mov	r1, r4
 8009b8c:	4640      	mov	r0, r8
 8009b8e:	f7ff ff70 	bl	8009a72 <__ssputs_r>
 8009b92:	3001      	adds	r0, #1
 8009b94:	f000 80a4 	beq.w	8009ce0 <_svfiprintf_r+0x1b8>
 8009b98:	9b09      	ldr	r3, [sp, #36]	; 0x24
 8009b9a:	4453      	add	r3, sl
 8009b9c:	9309      	str	r3, [sp, #36]	; 0x24
 8009b9e:	783b      	ldrb	r3, [r7, #0]
 8009ba0:	2b00      	cmp	r3, #0
 8009ba2:	f000 809d 	beq.w	8009ce0 <_svfiprintf_r+0x1b8>
 8009ba6:	2300      	movs	r3, #0
 8009ba8:	f04f 32ff 	mov.w	r2, #4294967295
 8009bac:	e9cd 2305 	strd	r2, r3, [sp, #20]
 8009bb0:	9304      	str	r3, [sp, #16]
 8009bb2:	9307      	str	r3, [sp, #28]
 8009bb4:	f88d 3053 	strb.w	r3, [sp, #83]	; 0x53
 8009bb8:	931a      	str	r3, [sp, #104]	; 0x68
 8009bba:	462f      	mov	r7, r5
 8009bbc:	2205      	movs	r2, #5
 8009bbe:	f817 1b01 	ldrb.w	r1, [r7], #1
 8009bc2:	4850      	ldr	r0, [pc, #320]	; (8009d04 <_svfiprintf_r+0x1dc>)
 8009bc4:	f7f6 fb0c 	bl	80001e0 <memchr>
 8009bc8:	9b04      	ldr	r3, [sp, #16]
 8009bca:	b9d0      	cbnz	r0, 8009c02 <_svfiprintf_r+0xda>
 8009bcc:	06d9      	lsls	r1, r3, #27
 8009bce:	bf44      	itt	mi
 8009bd0:	2220      	movmi	r2, #32
 8009bd2:	f88d 2053 	strbmi.w	r2, [sp, #83]	; 0x53
 8009bd6:	071a      	lsls	r2, r3, #28
 8009bd8:	bf44      	itt	mi
 8009bda:	222b      	movmi	r2, #43	; 0x2b
 8009bdc:	f88d 2053 	strbmi.w	r2, [sp, #83]	; 0x53
 8009be0:	782a      	ldrb	r2, [r5, #0]
 8009be2:	2a2a      	cmp	r2, #42	; 0x2a
 8009be4:	d015      	beq.n	8009c12 <_svfiprintf_r+0xea>
 8009be6:	9a07      	ldr	r2, [sp, #28]
 8009be8:	462f      	mov	r7, r5
 8009bea:	2000      	movs	r0, #0
 8009bec:	250a      	movs	r5, #10
 8009bee:	4639      	mov	r1, r7
 8009bf0:	f811 3b01 	ldrb.w	r3, [r1], #1
 8009bf4:	3b30      	subs	r3, #48	; 0x30
 8009bf6:	2b09      	cmp	r3, #9
 8009bf8:	d94d      	bls.n	8009c96 <_svfiprintf_r+0x16e>
 8009bfa:	b1b8      	cbz	r0, 8009c2c <_svfiprintf_r+0x104>
 8009bfc:	e00f      	b.n	8009c1e <_svfiprintf_r+0xf6>
 8009bfe:	462f      	mov	r7, r5
 8009c00:	e7b8      	b.n	8009b74 <_svfiprintf_r+0x4c>
 8009c02:	4a40      	ldr	r2, [pc, #256]	; (8009d04 <_svfiprintf_r+0x1dc>)
 8009c04:	1a80      	subs	r0, r0, r2
 8009c06:	fa0b f000 	lsl.w	r0, fp, r0
 8009c0a:	4318      	orrs	r0, r3
 8009c0c:	9004      	str	r0, [sp, #16]
 8009c0e:	463d      	mov	r5, r7
 8009c10:	e7d3      	b.n	8009bba <_svfiprintf_r+0x92>
 8009c12:	9a03      	ldr	r2, [sp, #12]
 8009c14:	1d11      	adds	r1, r2, #4
 8009c16:	6812      	ldr	r2, [r2, #0]
 8009c18:	9103      	str	r1, [sp, #12]
 8009c1a:	2a00      	cmp	r2, #0
 8009c1c:	db01      	blt.n	8009c22 <_svfiprintf_r+0xfa>
 8009c1e:	9207      	str	r2, [sp, #28]
 8009c20:	e004      	b.n	8009c2c <_svfiprintf_r+0x104>
 8009c22:	4252      	negs	r2, r2
 8009c24:	f043 0302 	orr.w	r3, r3, #2
 8009c28:	9207      	str	r2, [sp, #28]
 8009c2a:	9304      	str	r3, [sp, #16]
 8009c2c:	783b      	ldrb	r3, [r7, #0]
 8009c2e:	2b2e      	cmp	r3, #46	; 0x2e
 8009c30:	d10c      	bne.n	8009c4c <_svfiprintf_r+0x124>
 8009c32:	787b      	ldrb	r3, [r7, #1]
 8009c34:	2b2a      	cmp	r3, #42	; 0x2a
 8009c36:	d133      	bne.n	8009ca0 <_svfiprintf_r+0x178>
 8009c38:	9b03      	ldr	r3, [sp, #12]
 8009c3a:	1d1a      	adds	r2, r3, #4
 8009c3c:	681b      	ldr	r3, [r3, #0]
 8009c3e:	9203      	str	r2, [sp, #12]
 8009c40:	2b00      	cmp	r3, #0
 8009c42:	bfb8      	it	lt
 8009c44:	f04f 33ff 	movlt.w	r3, #4294967295
 8009c48:	3702      	adds	r7, #2
 8009c4a:	9305      	str	r3, [sp, #20]
 8009c4c:	4d2e      	ldr	r5, [pc, #184]	; (8009d08 <_svfiprintf_r+0x1e0>)
 8009c4e:	7839      	ldrb	r1, [r7, #0]
 8009c50:	2203      	movs	r2, #3
 8009c52:	4628      	mov	r0, r5
 8009c54:	f7f6 fac4 	bl	80001e0 <memchr>
 8009c58:	b138      	cbz	r0, 8009c6a <_svfiprintf_r+0x142>
 8009c5a:	2340      	movs	r3, #64	; 0x40
 8009c5c:	1b40      	subs	r0, r0, r5
 8009c5e:	fa03 f000 	lsl.w	r0, r3, r0
 8009c62:	9b04      	ldr	r3, [sp, #16]
 8009c64:	4303      	orrs	r3, r0
 8009c66:	3701      	adds	r7, #1
 8009c68:	9304      	str	r3, [sp, #16]
 8009c6a:	7839      	ldrb	r1, [r7, #0]
 8009c6c:	4827      	ldr	r0, [pc, #156]	; (8009d0c <_svfiprintf_r+0x1e4>)
 8009c6e:	f88d 1028 	strb.w	r1, [sp, #40]	; 0x28
 8009c72:	2206      	movs	r2, #6
 8009c74:	1c7e      	adds	r6, r7, #1
 8009c76:	f7f6 fab3 	bl	80001e0 <memchr>
 8009c7a:	2800      	cmp	r0, #0
 8009c7c:	d038      	beq.n	8009cf0 <_svfiprintf_r+0x1c8>
 8009c7e:	4b24      	ldr	r3, [pc, #144]	; (8009d10 <_svfiprintf_r+0x1e8>)
 8009c80:	bb13      	cbnz	r3, 8009cc8 <_svfiprintf_r+0x1a0>
 8009c82:	9b03      	ldr	r3, [sp, #12]
 8009c84:	3307      	adds	r3, #7
 8009c86:	f023 0307 	bic.w	r3, r3, #7
 8009c8a:	3308      	adds	r3, #8
 8009c8c:	9303      	str	r3, [sp, #12]
 8009c8e:	9b09      	ldr	r3, [sp, #36]	; 0x24
 8009c90:	444b      	add	r3, r9
 8009c92:	9309      	str	r3, [sp, #36]	; 0x24
 8009c94:	e76d      	b.n	8009b72 <_svfiprintf_r+0x4a>
 8009c96:	fb05 3202 	mla	r2, r5, r2, r3
 8009c9a:	2001      	movs	r0, #1
 8009c9c:	460f      	mov	r7, r1
 8009c9e:	e7a6      	b.n	8009bee <_svfiprintf_r+0xc6>
 8009ca0:	2300      	movs	r3, #0
 8009ca2:	3701      	adds	r7, #1
 8009ca4:	9305      	str	r3, [sp, #20]
 8009ca6:	4619      	mov	r1, r3
 8009ca8:	250a      	movs	r5, #10
 8009caa:	4638      	mov	r0, r7
 8009cac:	f810 2b01 	ldrb.w	r2, [r0], #1
 8009cb0:	3a30      	subs	r2, #48	; 0x30
 8009cb2:	2a09      	cmp	r2, #9
 8009cb4:	d903      	bls.n	8009cbe <_svfiprintf_r+0x196>
 8009cb6:	2b00      	cmp	r3, #0
 8009cb8:	d0c8      	beq.n	8009c4c <_svfiprintf_r+0x124>
 8009cba:	9105      	str	r1, [sp, #20]
 8009cbc:	e7c6      	b.n	8009c4c <_svfiprintf_r+0x124>
 8009cbe:	fb05 2101 	mla	r1, r5, r1, r2
 8009cc2:	2301      	movs	r3, #1
 8009cc4:	4607      	mov	r7, r0
 8009cc6:	e7f0      	b.n	8009caa <_svfiprintf_r+0x182>
 8009cc8:	ab03      	add	r3, sp, #12
 8009cca:	9300      	str	r3, [sp, #0]
 8009ccc:	4622      	mov	r2, r4
 8009cce:	4b11      	ldr	r3, [pc, #68]	; (8009d14 <_svfiprintf_r+0x1ec>)
 8009cd0:	a904      	add	r1, sp, #16
 8009cd2:	4640      	mov	r0, r8
 8009cd4:	f7fc fee2 	bl	8006a9c <_printf_float>
 8009cd8:	f1b0 3fff 	cmp.w	r0, #4294967295
 8009cdc:	4681      	mov	r9, r0
 8009cde:	d1d6      	bne.n	8009c8e <_svfiprintf_r+0x166>
 8009ce0:	89a3      	ldrh	r3, [r4, #12]
 8009ce2:	065b      	lsls	r3, r3, #25
 8009ce4:	f53f af35 	bmi.w	8009b52 <_svfiprintf_r+0x2a>
 8009ce8:	9809      	ldr	r0, [sp, #36]	; 0x24
 8009cea:	b01d      	add	sp, #116	; 0x74
 8009cec:	e8bd 8ff0 	ldmia.w	sp!, {r4, r5, r6, r7, r8, r9, sl, fp, pc}
 8009cf0:	ab03      	add	r3, sp, #12
 8009cf2:	9300      	str	r3, [sp, #0]
 8009cf4:	4622      	mov	r2, r4
 8009cf6:	4b07      	ldr	r3, [pc, #28]	; (8009d14 <_svfiprintf_r+0x1ec>)
 8009cf8:	a904      	add	r1, sp, #16
 8009cfa:	4640      	mov	r0, r8
 8009cfc:	f7fd f984 	bl	8007008 <_printf_i>
 8009d00:	e7ea      	b.n	8009cd8 <_svfiprintf_r+0x1b0>
 8009d02:	bf00      	nop
 8009d04:	0800b534 	.word	0x0800b534
 8009d08:	0800b53a 	.word	0x0800b53a
 8009d0c:	0800b53e 	.word	0x0800b53e
 8009d10:	08006a9d 	.word	0x08006a9d
 8009d14:	08009a73 	.word	0x08009a73

08009d18 <strncmp>:
 8009d18:	b510      	push	{r4, lr}
 8009d1a:	b16a      	cbz	r2, 8009d38 <strncmp+0x20>
 8009d1c:	3901      	subs	r1, #1
 8009d1e:	1884      	adds	r4, r0, r2
 8009d20:	f810 3b01 	ldrb.w	r3, [r0], #1
 8009d24:	f811 2f01 	ldrb.w	r2, [r1, #1]!
 8009d28:	4293      	cmp	r3, r2
 8009d2a:	d103      	bne.n	8009d34 <strncmp+0x1c>
 8009d2c:	42a0      	cmp	r0, r4
 8009d2e:	d001      	beq.n	8009d34 <strncmp+0x1c>
 8009d30:	2b00      	cmp	r3, #0
 8009d32:	d1f5      	bne.n	8009d20 <strncmp+0x8>
 8009d34:	1a98      	subs	r0, r3, r2
 8009d36:	bd10      	pop	{r4, pc}
 8009d38:	4610      	mov	r0, r2
 8009d3a:	e7fc      	b.n	8009d36 <strncmp+0x1e>

08009d3c <__ascii_wctomb>:
 8009d3c:	b149      	cbz	r1, 8009d52 <__ascii_wctomb+0x16>
 8009d3e:	2aff      	cmp	r2, #255	; 0xff
 8009d40:	bf85      	ittet	hi
 8009d42:	238a      	movhi	r3, #138	; 0x8a
 8009d44:	6003      	strhi	r3, [r0, #0]
 8009d46:	700a      	strbls	r2, [r1, #0]
 8009d48:	f04f 30ff 	movhi.w	r0, #4294967295
 8009d4c:	bf98      	it	ls
 8009d4e:	2001      	movls	r0, #1
 8009d50:	4770      	bx	lr
 8009d52:	4608      	mov	r0, r1
 8009d54:	4770      	bx	lr

08009d56 <memmove>:
 8009d56:	4288      	cmp	r0, r1
 8009d58:	b510      	push	{r4, lr}
 8009d5a:	eb01 0302 	add.w	r3, r1, r2
 8009d5e:	d807      	bhi.n	8009d70 <memmove+0x1a>
 8009d60:	1e42      	subs	r2, r0, #1
 8009d62:	4299      	cmp	r1, r3
 8009d64:	d00a      	beq.n	8009d7c <memmove+0x26>
 8009d66:	f811 4b01 	ldrb.w	r4, [r1], #1
 8009d6a:	f802 4f01 	strb.w	r4, [r2, #1]!
 8009d6e:	e7f8      	b.n	8009d62 <memmove+0xc>
 8009d70:	4283      	cmp	r3, r0
 8009d72:	d9f5      	bls.n	8009d60 <memmove+0xa>
 8009d74:	1881      	adds	r1, r0, r2
 8009d76:	1ad2      	subs	r2, r2, r3
 8009d78:	42d3      	cmn	r3, r2
 8009d7a:	d100      	bne.n	8009d7e <memmove+0x28>
 8009d7c:	bd10      	pop	{r4, pc}
 8009d7e:	f813 4d01 	ldrb.w	r4, [r3, #-1]!
 8009d82:	f801 4d01 	strb.w	r4, [r1, #-1]!
 8009d86:	e7f7      	b.n	8009d78 <memmove+0x22>

08009d88 <_realloc_r>:
 8009d88:	b5f8      	push	{r3, r4, r5, r6, r7, lr}
 8009d8a:	4607      	mov	r7, r0
 8009d8c:	4614      	mov	r4, r2
 8009d8e:	460e      	mov	r6, r1
 8009d90:	b921      	cbnz	r1, 8009d9c <_realloc_r+0x14>
 8009d92:	4611      	mov	r1, r2
 8009d94:	e8bd 40f8 	ldmia.w	sp!, {r3, r4, r5, r6, r7, lr}
 8009d98:	f7fc bd92 	b.w	80068c0 <_malloc_r>
 8009d9c:	b922      	cbnz	r2, 8009da8 <_realloc_r+0x20>
 8009d9e:	f7fc fd41 	bl	8006824 <_free_r>
 8009da2:	4625      	mov	r5, r4
 8009da4:	4628      	mov	r0, r5
 8009da6:	bdf8      	pop	{r3, r4, r5, r6, r7, pc}
 8009da8:	f000 f814 	bl	8009dd4 <_malloc_usable_size_r>
 8009dac:	42a0      	cmp	r0, r4
 8009dae:	d20f      	bcs.n	8009dd0 <_realloc_r+0x48>
 8009db0:	4621      	mov	r1, r4
 8009db2:	4638      	mov	r0, r7
 8009db4:	f7fc fd84 	bl	80068c0 <_malloc_r>
 8009db8:	4605      	mov	r5, r0
 8009dba:	2800      	cmp	r0, #0
 8009dbc:	d0f2      	beq.n	8009da4 <_realloc_r+0x1c>
 8009dbe:	4631      	mov	r1, r6
 8009dc0:	4622      	mov	r2, r4
 8009dc2:	f7ff fa3d 	bl	8009240 <memcpy>
 8009dc6:	4631      	mov	r1, r6
 8009dc8:	4638      	mov	r0, r7
 8009dca:	f7fc fd2b 	bl	8006824 <_free_r>
 8009dce:	e7e9      	b.n	8009da4 <_realloc_r+0x1c>
 8009dd0:	4635      	mov	r5, r6
 8009dd2:	e7e7      	b.n	8009da4 <_realloc_r+0x1c>

08009dd4 <_malloc_usable_size_r>:
 8009dd4:	f851 3c04 	ldr.w	r3, [r1, #-4]
 8009dd8:	1f18      	subs	r0, r3, #4
 8009dda:	2b00      	cmp	r3, #0
 8009ddc:	bfbc      	itt	lt
 8009dde:	580b      	ldrlt	r3, [r1, r0]
 8009de0:	18c0      	addlt	r0, r0, r3
 8009de2:	4770      	bx	lr

08009de4 <log>:
 8009de4:	b570      	push	{r4, r5, r6, lr}
 8009de6:	ed2d 8b02 	vpush	{d8}
 8009dea:	b08a      	sub	sp, #40	; 0x28
 8009dec:	ec55 4b10 	vmov	r4, r5, d0
 8009df0:	f000 f9ea 	bl	800a1c8 <__ieee754_log>
 8009df4:	4b36      	ldr	r3, [pc, #216]	; (8009ed0 <log+0xec>)
 8009df6:	eeb0 8a40 	vmov.f32	s16, s0
 8009dfa:	eef0 8a60 	vmov.f32	s17, s1
 8009dfe:	f993 6000 	ldrsb.w	r6, [r3]
 8009e02:	1c73      	adds	r3, r6, #1
 8009e04:	d05b      	beq.n	8009ebe <log+0xda>
 8009e06:	4622      	mov	r2, r4
 8009e08:	462b      	mov	r3, r5
 8009e0a:	4620      	mov	r0, r4
 8009e0c:	4629      	mov	r1, r5
 8009e0e:	f7f6 fe8d 	bl	8000b2c <__aeabi_dcmpun>
 8009e12:	2800      	cmp	r0, #0
 8009e14:	d153      	bne.n	8009ebe <log+0xda>
 8009e16:	2200      	movs	r2, #0
 8009e18:	2300      	movs	r3, #0
 8009e1a:	4620      	mov	r0, r4
 8009e1c:	4629      	mov	r1, r5
 8009e1e:	f7f6 fe7b 	bl	8000b18 <__aeabi_dcmpgt>
 8009e22:	2800      	cmp	r0, #0
 8009e24:	d14b      	bne.n	8009ebe <log+0xda>
 8009e26:	4b2b      	ldr	r3, [pc, #172]	; (8009ed4 <log+0xf0>)
 8009e28:	9301      	str	r3, [sp, #4]
 8009e2a:	9008      	str	r0, [sp, #32]
 8009e2c:	e9cd 4502 	strd	r4, r5, [sp, #8]
 8009e30:	e9cd 4504 	strd	r4, r5, [sp, #16]
 8009e34:	b9a6      	cbnz	r6, 8009e60 <log+0x7c>
 8009e36:	4b28      	ldr	r3, [pc, #160]	; (8009ed8 <log+0xf4>)
 8009e38:	f04f 4260 	mov.w	r2, #3758096384	; 0xe0000000
 8009e3c:	e9cd 2306 	strd	r2, r3, [sp, #24]
 8009e40:	4620      	mov	r0, r4
 8009e42:	2200      	movs	r2, #0
 8009e44:	2300      	movs	r3, #0
 8009e46:	4629      	mov	r1, r5
 8009e48:	f7f6 fe3e 	bl	8000ac8 <__aeabi_dcmpeq>
 8009e4c:	bb40      	cbnz	r0, 8009ea0 <log+0xbc>
 8009e4e:	2301      	movs	r3, #1
 8009e50:	2e02      	cmp	r6, #2
 8009e52:	9300      	str	r3, [sp, #0]
 8009e54:	d119      	bne.n	8009e8a <log+0xa6>
 8009e56:	f7fc fca3 	bl	80067a0 <__errno>
 8009e5a:	2321      	movs	r3, #33	; 0x21
 8009e5c:	6003      	str	r3, [r0, #0]
 8009e5e:	e019      	b.n	8009e94 <log+0xb0>
 8009e60:	4b1e      	ldr	r3, [pc, #120]	; (8009edc <log+0xf8>)
 8009e62:	2200      	movs	r2, #0
 8009e64:	e9cd 2306 	strd	r2, r3, [sp, #24]
 8009e68:	4620      	mov	r0, r4
 8009e6a:	2200      	movs	r2, #0
 8009e6c:	2300      	movs	r3, #0
 8009e6e:	4629      	mov	r1, r5
 8009e70:	f7f6 fe2a 	bl	8000ac8 <__aeabi_dcmpeq>
 8009e74:	2800      	cmp	r0, #0
 8009e76:	d0ea      	beq.n	8009e4e <log+0x6a>
 8009e78:	2302      	movs	r3, #2
 8009e7a:	429e      	cmp	r6, r3
 8009e7c:	9300      	str	r3, [sp, #0]
 8009e7e:	d111      	bne.n	8009ea4 <log+0xc0>
 8009e80:	f7fc fc8e 	bl	80067a0 <__errno>
 8009e84:	2322      	movs	r3, #34	; 0x22
 8009e86:	6003      	str	r3, [r0, #0]
 8009e88:	e011      	b.n	8009eae <log+0xca>
 8009e8a:	4668      	mov	r0, sp
 8009e8c:	f001 f91f 	bl	800b0ce <matherr>
 8009e90:	2800      	cmp	r0, #0
 8009e92:	d0e0      	beq.n	8009e56 <log+0x72>
 8009e94:	4812      	ldr	r0, [pc, #72]	; (8009ee0 <log+0xfc>)
 8009e96:	f001 f91f 	bl	800b0d8 <nan>
 8009e9a:	ed8d 0b06 	vstr	d0, [sp, #24]
 8009e9e:	e006      	b.n	8009eae <log+0xca>
 8009ea0:	2302      	movs	r3, #2
 8009ea2:	9300      	str	r3, [sp, #0]
 8009ea4:	4668      	mov	r0, sp
 8009ea6:	f001 f912 	bl	800b0ce <matherr>
 8009eaa:	2800      	cmp	r0, #0
 8009eac:	d0e8      	beq.n	8009e80 <log+0x9c>
 8009eae:	9b08      	ldr	r3, [sp, #32]
 8009eb0:	b11b      	cbz	r3, 8009eba <log+0xd6>
 8009eb2:	f7fc fc75 	bl	80067a0 <__errno>
 8009eb6:	9b08      	ldr	r3, [sp, #32]
 8009eb8:	6003      	str	r3, [r0, #0]
 8009eba:	ed9d 8b06 	vldr	d8, [sp, #24]
 8009ebe:	eeb0 0a48 	vmov.f32	s0, s16
 8009ec2:	eef0 0a68 	vmov.f32	s1, s17
 8009ec6:	b00a      	add	sp, #40	; 0x28
 8009ec8:	ecbd 8b02 	vpop	{d8}
 8009ecc:	bd70      	pop	{r4, r5, r6, pc}
 8009ece:	bf00      	nop
 8009ed0:	20000204 	.word	0x20000204
 8009ed4:	0800b646 	.word	0x0800b646
 8009ed8:	c7efffff 	.word	0xc7efffff
 8009edc:	fff00000 	.word	0xfff00000
 8009ee0:	0800b539 	.word	0x0800b539

08009ee4 <pow>:
 8009ee4:	e92d 4ff0 	stmdb	sp!, {r4, r5, r6, r7, r8, r9, sl, fp, lr}
 8009ee8:	ed2d 8b04 	vpush	{d8-d9}
 8009eec:	f8df 92d0 	ldr.w	r9, [pc, #720]	; 800a1c0 <pow+0x2dc>
 8009ef0:	b08d      	sub	sp, #52	; 0x34
 8009ef2:	ec57 6b10 	vmov	r6, r7, d0
 8009ef6:	ec55 4b11 	vmov	r4, r5, d1
 8009efa:	f000 fb19 	bl	800a530 <__ieee754_pow>
 8009efe:	f999 3000 	ldrsb.w	r3, [r9]
 8009f02:	9300      	str	r3, [sp, #0]
 8009f04:	3301      	adds	r3, #1
 8009f06:	eeb0 8a40 	vmov.f32	s16, s0
 8009f0a:	eef0 8a60 	vmov.f32	s17, s1
 8009f0e:	46c8      	mov	r8, r9
 8009f10:	d05f      	beq.n	8009fd2 <pow+0xee>
 8009f12:	4622      	mov	r2, r4
 8009f14:	462b      	mov	r3, r5
 8009f16:	4620      	mov	r0, r4
 8009f18:	4629      	mov	r1, r5
 8009f1a:	f7f6 fe07 	bl	8000b2c <__aeabi_dcmpun>
 8009f1e:	4683      	mov	fp, r0
 8009f20:	2800      	cmp	r0, #0
 8009f22:	d156      	bne.n	8009fd2 <pow+0xee>
 8009f24:	4632      	mov	r2, r6
 8009f26:	463b      	mov	r3, r7
 8009f28:	4630      	mov	r0, r6
 8009f2a:	4639      	mov	r1, r7
 8009f2c:	f7f6 fdfe 	bl	8000b2c <__aeabi_dcmpun>
 8009f30:	9001      	str	r0, [sp, #4]
 8009f32:	b1e8      	cbz	r0, 8009f70 <pow+0x8c>
 8009f34:	2200      	movs	r2, #0
 8009f36:	2300      	movs	r3, #0
 8009f38:	4620      	mov	r0, r4
 8009f3a:	4629      	mov	r1, r5
 8009f3c:	f7f6 fdc4 	bl	8000ac8 <__aeabi_dcmpeq>
 8009f40:	2800      	cmp	r0, #0
 8009f42:	d046      	beq.n	8009fd2 <pow+0xee>
 8009f44:	2301      	movs	r3, #1
 8009f46:	9302      	str	r3, [sp, #8]
 8009f48:	4b96      	ldr	r3, [pc, #600]	; (800a1a4 <pow+0x2c0>)
 8009f4a:	9303      	str	r3, [sp, #12]
 8009f4c:	4b96      	ldr	r3, [pc, #600]	; (800a1a8 <pow+0x2c4>)
 8009f4e:	f8cd b028 	str.w	fp, [sp, #40]	; 0x28
 8009f52:	2200      	movs	r2, #0
 8009f54:	e9cd 2308 	strd	r2, r3, [sp, #32]
 8009f58:	9b00      	ldr	r3, [sp, #0]
 8009f5a:	2b02      	cmp	r3, #2
 8009f5c:	e9cd 6704 	strd	r6, r7, [sp, #16]
 8009f60:	e9cd 4506 	strd	r4, r5, [sp, #24]
 8009f64:	d033      	beq.n	8009fce <pow+0xea>
 8009f66:	a802      	add	r0, sp, #8
 8009f68:	f001 f8b1 	bl	800b0ce <matherr>
 8009f6c:	bb48      	cbnz	r0, 8009fc2 <pow+0xde>
 8009f6e:	e05d      	b.n	800a02c <pow+0x148>
 8009f70:	f04f 0a00 	mov.w	sl, #0
 8009f74:	f04f 0b00 	mov.w	fp, #0
 8009f78:	4652      	mov	r2, sl
 8009f7a:	465b      	mov	r3, fp
 8009f7c:	4630      	mov	r0, r6
 8009f7e:	4639      	mov	r1, r7
 8009f80:	f7f6 fda2 	bl	8000ac8 <__aeabi_dcmpeq>
 8009f84:	ec4b ab19 	vmov	d9, sl, fp
 8009f88:	2800      	cmp	r0, #0
 8009f8a:	d054      	beq.n	800a036 <pow+0x152>
 8009f8c:	4652      	mov	r2, sl
 8009f8e:	465b      	mov	r3, fp
 8009f90:	4620      	mov	r0, r4
 8009f92:	4629      	mov	r1, r5
 8009f94:	f7f6 fd98 	bl	8000ac8 <__aeabi_dcmpeq>
 8009f98:	4680      	mov	r8, r0
 8009f9a:	b318      	cbz	r0, 8009fe4 <pow+0x100>
 8009f9c:	2301      	movs	r3, #1
 8009f9e:	9302      	str	r3, [sp, #8]
 8009fa0:	4b80      	ldr	r3, [pc, #512]	; (800a1a4 <pow+0x2c0>)
 8009fa2:	9303      	str	r3, [sp, #12]
 8009fa4:	9b01      	ldr	r3, [sp, #4]
 8009fa6:	930a      	str	r3, [sp, #40]	; 0x28
 8009fa8:	9b00      	ldr	r3, [sp, #0]
 8009faa:	e9cd 6704 	strd	r6, r7, [sp, #16]
 8009fae:	e9cd 4506 	strd	r4, r5, [sp, #24]
 8009fb2:	e9cd ab08 	strd	sl, fp, [sp, #32]
 8009fb6:	2b00      	cmp	r3, #0
 8009fb8:	d0d5      	beq.n	8009f66 <pow+0x82>
 8009fba:	4b7b      	ldr	r3, [pc, #492]	; (800a1a8 <pow+0x2c4>)
 8009fbc:	2200      	movs	r2, #0
 8009fbe:	e9cd 2308 	strd	r2, r3, [sp, #32]
 8009fc2:	9b0a      	ldr	r3, [sp, #40]	; 0x28
 8009fc4:	b11b      	cbz	r3, 8009fce <pow+0xea>
 8009fc6:	f7fc fbeb 	bl	80067a0 <__errno>
 8009fca:	9b0a      	ldr	r3, [sp, #40]	; 0x28
 8009fcc:	6003      	str	r3, [r0, #0]
 8009fce:	ed9d 8b08 	vldr	d8, [sp, #32]
 8009fd2:	eeb0 0a48 	vmov.f32	s0, s16
 8009fd6:	eef0 0a68 	vmov.f32	s1, s17
 8009fda:	b00d      	add	sp, #52	; 0x34
 8009fdc:	ecbd 8b04 	vpop	{d8-d9}
 8009fe0:	e8bd 8ff0 	ldmia.w	sp!, {r4, r5, r6, r7, r8, r9, sl, fp, pc}
 8009fe4:	ec45 4b10 	vmov	d0, r4, r5
 8009fe8:	f001 f869 	bl	800b0be <finite>
 8009fec:	2800      	cmp	r0, #0
 8009fee:	d0f0      	beq.n	8009fd2 <pow+0xee>
 8009ff0:	4652      	mov	r2, sl
 8009ff2:	465b      	mov	r3, fp
 8009ff4:	4620      	mov	r0, r4
 8009ff6:	4629      	mov	r1, r5
 8009ff8:	f7f6 fd70 	bl	8000adc <__aeabi_dcmplt>
 8009ffc:	2800      	cmp	r0, #0
 8009ffe:	d0e8      	beq.n	8009fd2 <pow+0xee>
 800a000:	2301      	movs	r3, #1
 800a002:	9302      	str	r3, [sp, #8]
 800a004:	4b67      	ldr	r3, [pc, #412]	; (800a1a4 <pow+0x2c0>)
 800a006:	9303      	str	r3, [sp, #12]
 800a008:	f999 3000 	ldrsb.w	r3, [r9]
 800a00c:	f8cd 8028 	str.w	r8, [sp, #40]	; 0x28
 800a010:	e9cd 6704 	strd	r6, r7, [sp, #16]
 800a014:	e9cd 4506 	strd	r4, r5, [sp, #24]
 800a018:	b913      	cbnz	r3, 800a020 <pow+0x13c>
 800a01a:	e9cd ab08 	strd	sl, fp, [sp, #32]
 800a01e:	e7a2      	b.n	8009f66 <pow+0x82>
 800a020:	4962      	ldr	r1, [pc, #392]	; (800a1ac <pow+0x2c8>)
 800a022:	2000      	movs	r0, #0
 800a024:	e9cd 0108 	strd	r0, r1, [sp, #32]
 800a028:	2b02      	cmp	r3, #2
 800a02a:	d19c      	bne.n	8009f66 <pow+0x82>
 800a02c:	f7fc fbb8 	bl	80067a0 <__errno>
 800a030:	2321      	movs	r3, #33	; 0x21
 800a032:	6003      	str	r3, [r0, #0]
 800a034:	e7c5      	b.n	8009fc2 <pow+0xde>
 800a036:	eeb0 0a48 	vmov.f32	s0, s16
 800a03a:	eef0 0a68 	vmov.f32	s1, s17
 800a03e:	f001 f83e 	bl	800b0be <finite>
 800a042:	9000      	str	r0, [sp, #0]
 800a044:	2800      	cmp	r0, #0
 800a046:	f040 8081 	bne.w	800a14c <pow+0x268>
 800a04a:	ec47 6b10 	vmov	d0, r6, r7
 800a04e:	f001 f836 	bl	800b0be <finite>
 800a052:	2800      	cmp	r0, #0
 800a054:	d07a      	beq.n	800a14c <pow+0x268>
 800a056:	ec45 4b10 	vmov	d0, r4, r5
 800a05a:	f001 f830 	bl	800b0be <finite>
 800a05e:	2800      	cmp	r0, #0
 800a060:	d074      	beq.n	800a14c <pow+0x268>
 800a062:	ec53 2b18 	vmov	r2, r3, d8
 800a066:	ee18 0a10 	vmov	r0, s16
 800a06a:	4619      	mov	r1, r3
 800a06c:	f7f6 fd5e 	bl	8000b2c <__aeabi_dcmpun>
 800a070:	f999 9000 	ldrsb.w	r9, [r9]
 800a074:	4b4b      	ldr	r3, [pc, #300]	; (800a1a4 <pow+0x2c0>)
 800a076:	b1b0      	cbz	r0, 800a0a6 <pow+0x1c2>
 800a078:	2201      	movs	r2, #1
 800a07a:	e9cd 2302 	strd	r2, r3, [sp, #8]
 800a07e:	9b00      	ldr	r3, [sp, #0]
 800a080:	930a      	str	r3, [sp, #40]	; 0x28
 800a082:	e9cd 6704 	strd	r6, r7, [sp, #16]
 800a086:	e9cd 4506 	strd	r4, r5, [sp, #24]
 800a08a:	f1b9 0f00 	cmp.w	r9, #0
 800a08e:	d0c4      	beq.n	800a01a <pow+0x136>
 800a090:	4652      	mov	r2, sl
 800a092:	465b      	mov	r3, fp
 800a094:	4650      	mov	r0, sl
 800a096:	4659      	mov	r1, fp
 800a098:	f7f6 fbd8 	bl	800084c <__aeabi_ddiv>
 800a09c:	f1b9 0f02 	cmp.w	r9, #2
 800a0a0:	e9cd 0108 	strd	r0, r1, [sp, #32]
 800a0a4:	e7c1      	b.n	800a02a <pow+0x146>
 800a0a6:	2203      	movs	r2, #3
 800a0a8:	e9cd 2302 	strd	r2, r3, [sp, #8]
 800a0ac:	900a      	str	r0, [sp, #40]	; 0x28
 800a0ae:	4629      	mov	r1, r5
 800a0b0:	4620      	mov	r0, r4
 800a0b2:	2200      	movs	r2, #0
 800a0b4:	4b3e      	ldr	r3, [pc, #248]	; (800a1b0 <pow+0x2cc>)
 800a0b6:	e9cd 4506 	strd	r4, r5, [sp, #24]
 800a0ba:	e9cd 6704 	strd	r6, r7, [sp, #16]
 800a0be:	f7f6 fa9b 	bl	80005f8 <__aeabi_dmul>
 800a0c2:	4604      	mov	r4, r0
 800a0c4:	460d      	mov	r5, r1
 800a0c6:	f1b9 0f00 	cmp.w	r9, #0
 800a0ca:	d124      	bne.n	800a116 <pow+0x232>
 800a0cc:	4b39      	ldr	r3, [pc, #228]	; (800a1b4 <pow+0x2d0>)
 800a0ce:	f04f 4260 	mov.w	r2, #3758096384	; 0xe0000000
 800a0d2:	e9cd 2308 	strd	r2, r3, [sp, #32]
 800a0d6:	4630      	mov	r0, r6
 800a0d8:	4652      	mov	r2, sl
 800a0da:	465b      	mov	r3, fp
 800a0dc:	4639      	mov	r1, r7
 800a0de:	f7f6 fcfd 	bl	8000adc <__aeabi_dcmplt>
 800a0e2:	2800      	cmp	r0, #0
 800a0e4:	d056      	beq.n	800a194 <pow+0x2b0>
 800a0e6:	ec45 4b10 	vmov	d0, r4, r5
 800a0ea:	f000 fffd 	bl	800b0e8 <rint>
 800a0ee:	4622      	mov	r2, r4
 800a0f0:	462b      	mov	r3, r5
 800a0f2:	ec51 0b10 	vmov	r0, r1, d0
 800a0f6:	f7f6 fce7 	bl	8000ac8 <__aeabi_dcmpeq>
 800a0fa:	b920      	cbnz	r0, 800a106 <pow+0x222>
 800a0fc:	4b2e      	ldr	r3, [pc, #184]	; (800a1b8 <pow+0x2d4>)
 800a0fe:	f04f 4260 	mov.w	r2, #3758096384	; 0xe0000000
 800a102:	e9cd 2308 	strd	r2, r3, [sp, #32]
 800a106:	f998 3000 	ldrsb.w	r3, [r8]
 800a10a:	2b02      	cmp	r3, #2
 800a10c:	d142      	bne.n	800a194 <pow+0x2b0>
 800a10e:	f7fc fb47 	bl	80067a0 <__errno>
 800a112:	2322      	movs	r3, #34	; 0x22
 800a114:	e78d      	b.n	800a032 <pow+0x14e>
 800a116:	4b29      	ldr	r3, [pc, #164]	; (800a1bc <pow+0x2d8>)
 800a118:	2200      	movs	r2, #0
 800a11a:	e9cd 2308 	strd	r2, r3, [sp, #32]
 800a11e:	4630      	mov	r0, r6
 800a120:	4652      	mov	r2, sl
 800a122:	465b      	mov	r3, fp
 800a124:	4639      	mov	r1, r7
 800a126:	f7f6 fcd9 	bl	8000adc <__aeabi_dcmplt>
 800a12a:	2800      	cmp	r0, #0
 800a12c:	d0eb      	beq.n	800a106 <pow+0x222>
 800a12e:	ec45 4b10 	vmov	d0, r4, r5
 800a132:	f000 ffd9 	bl	800b0e8 <rint>
 800a136:	4622      	mov	r2, r4
 800a138:	462b      	mov	r3, r5
 800a13a:	ec51 0b10 	vmov	r0, r1, d0
 800a13e:	f7f6 fcc3 	bl	8000ac8 <__aeabi_dcmpeq>
 800a142:	2800      	cmp	r0, #0
 800a144:	d1df      	bne.n	800a106 <pow+0x222>
 800a146:	2200      	movs	r2, #0
 800a148:	4b18      	ldr	r3, [pc, #96]	; (800a1ac <pow+0x2c8>)
 800a14a:	e7da      	b.n	800a102 <pow+0x21e>
 800a14c:	2200      	movs	r2, #0
 800a14e:	2300      	movs	r3, #0
 800a150:	ec51 0b18 	vmov	r0, r1, d8
 800a154:	f7f6 fcb8 	bl	8000ac8 <__aeabi_dcmpeq>
 800a158:	2800      	cmp	r0, #0
 800a15a:	f43f af3a 	beq.w	8009fd2 <pow+0xee>
 800a15e:	ec47 6b10 	vmov	d0, r6, r7
 800a162:	f000 ffac 	bl	800b0be <finite>
 800a166:	2800      	cmp	r0, #0
 800a168:	f43f af33 	beq.w	8009fd2 <pow+0xee>
 800a16c:	ec45 4b10 	vmov	d0, r4, r5
 800a170:	f000 ffa5 	bl	800b0be <finite>
 800a174:	2800      	cmp	r0, #0
 800a176:	f43f af2c 	beq.w	8009fd2 <pow+0xee>
 800a17a:	2304      	movs	r3, #4
 800a17c:	9302      	str	r3, [sp, #8]
 800a17e:	4b09      	ldr	r3, [pc, #36]	; (800a1a4 <pow+0x2c0>)
 800a180:	9303      	str	r3, [sp, #12]
 800a182:	2300      	movs	r3, #0
 800a184:	930a      	str	r3, [sp, #40]	; 0x28
 800a186:	e9cd 6704 	strd	r6, r7, [sp, #16]
 800a18a:	e9cd 4506 	strd	r4, r5, [sp, #24]
 800a18e:	ed8d 9b08 	vstr	d9, [sp, #32]
 800a192:	e7b8      	b.n	800a106 <pow+0x222>
 800a194:	a802      	add	r0, sp, #8
 800a196:	f000 ff9a 	bl	800b0ce <matherr>
 800a19a:	2800      	cmp	r0, #0
 800a19c:	f47f af11 	bne.w	8009fc2 <pow+0xde>
 800a1a0:	e7b5      	b.n	800a10e <pow+0x22a>
 800a1a2:	bf00      	nop
 800a1a4:	0800b64a 	.word	0x0800b64a
 800a1a8:	3ff00000 	.word	0x3ff00000
 800a1ac:	fff00000 	.word	0xfff00000
 800a1b0:	3fe00000 	.word	0x3fe00000
 800a1b4:	47efffff 	.word	0x47efffff
 800a1b8:	c7efffff 	.word	0xc7efffff
 800a1bc:	7ff00000 	.word	0x7ff00000
 800a1c0:	20000204 	.word	0x20000204
 800a1c4:	00000000 	.word	0x00000000

0800a1c8 <__ieee754_log>:
 800a1c8:	e92d 4ff0 	stmdb	sp!, {r4, r5, r6, r7, r8, r9, sl, fp, lr}
 800a1cc:	ec51 0b10 	vmov	r0, r1, d0
 800a1d0:	f5b1 1f80 	cmp.w	r1, #1048576	; 0x100000
 800a1d4:	b087      	sub	sp, #28
 800a1d6:	460d      	mov	r5, r1
 800a1d8:	da27      	bge.n	800a22a <__ieee754_log+0x62>
 800a1da:	f021 4300 	bic.w	r3, r1, #2147483648	; 0x80000000
 800a1de:	4303      	orrs	r3, r0
 800a1e0:	ee10 2a10 	vmov	r2, s0
 800a1e4:	d10a      	bne.n	800a1fc <__ieee754_log+0x34>
 800a1e6:	49cc      	ldr	r1, [pc, #816]	; (800a518 <__ieee754_log+0x350>)
 800a1e8:	2200      	movs	r2, #0
 800a1ea:	2300      	movs	r3, #0
 800a1ec:	2000      	movs	r0, #0
 800a1ee:	f7f6 fb2d 	bl	800084c <__aeabi_ddiv>
 800a1f2:	ec41 0b10 	vmov	d0, r0, r1
 800a1f6:	b007      	add	sp, #28
 800a1f8:	e8bd 8ff0 	ldmia.w	sp!, {r4, r5, r6, r7, r8, r9, sl, fp, pc}
 800a1fc:	2900      	cmp	r1, #0
 800a1fe:	da05      	bge.n	800a20c <__ieee754_log+0x44>
 800a200:	460b      	mov	r3, r1
 800a202:	f7f6 f841 	bl	8000288 <__aeabi_dsub>
 800a206:	2200      	movs	r2, #0
 800a208:	2300      	movs	r3, #0
 800a20a:	e7f0      	b.n	800a1ee <__ieee754_log+0x26>
 800a20c:	4bc3      	ldr	r3, [pc, #780]	; (800a51c <__ieee754_log+0x354>)
 800a20e:	2200      	movs	r2, #0
 800a210:	f7f6 f9f2 	bl	80005f8 <__aeabi_dmul>
 800a214:	f06f 0335 	mvn.w	r3, #53	; 0x35
 800a218:	460d      	mov	r5, r1
 800a21a:	4ac1      	ldr	r2, [pc, #772]	; (800a520 <__ieee754_log+0x358>)
 800a21c:	4295      	cmp	r5, r2
 800a21e:	dd06      	ble.n	800a22e <__ieee754_log+0x66>
 800a220:	4602      	mov	r2, r0
 800a222:	460b      	mov	r3, r1
 800a224:	f7f6 f832 	bl	800028c <__adddf3>
 800a228:	e7e3      	b.n	800a1f2 <__ieee754_log+0x2a>
 800a22a:	2300      	movs	r3, #0
 800a22c:	e7f5      	b.n	800a21a <__ieee754_log+0x52>
 800a22e:	152c      	asrs	r4, r5, #20
 800a230:	f2a4 34ff 	subw	r4, r4, #1023	; 0x3ff
 800a234:	f3c5 0513 	ubfx	r5, r5, #0, #20
 800a238:	441c      	add	r4, r3
 800a23a:	f505 2315 	add.w	r3, r5, #610304	; 0x95000
 800a23e:	f603 7364 	addw	r3, r3, #3940	; 0xf64
 800a242:	f403 1380 	and.w	r3, r3, #1048576	; 0x100000
 800a246:	f083 527f 	eor.w	r2, r3, #1069547520	; 0x3fc00000
 800a24a:	f482 1240 	eor.w	r2, r2, #3145728	; 0x300000
 800a24e:	ea42 0105 	orr.w	r1, r2, r5
 800a252:	eb04 5413 	add.w	r4, r4, r3, lsr #20
 800a256:	2200      	movs	r2, #0
 800a258:	4bb2      	ldr	r3, [pc, #712]	; (800a524 <__ieee754_log+0x35c>)
 800a25a:	f7f6 f815 	bl	8000288 <__aeabi_dsub>
 800a25e:	1cab      	adds	r3, r5, #2
 800a260:	f3c3 0313 	ubfx	r3, r3, #0, #20
 800a264:	2b02      	cmp	r3, #2
 800a266:	4682      	mov	sl, r0
 800a268:	468b      	mov	fp, r1
 800a26a:	f04f 0200 	mov.w	r2, #0
 800a26e:	dc53      	bgt.n	800a318 <__ieee754_log+0x150>
 800a270:	2300      	movs	r3, #0
 800a272:	f7f6 fc29 	bl	8000ac8 <__aeabi_dcmpeq>
 800a276:	b1d0      	cbz	r0, 800a2ae <__ieee754_log+0xe6>
 800a278:	2c00      	cmp	r4, #0
 800a27a:	f000 8120 	beq.w	800a4be <__ieee754_log+0x2f6>
 800a27e:	4620      	mov	r0, r4
 800a280:	f7f6 f950 	bl	8000524 <__aeabi_i2d>
 800a284:	a390      	add	r3, pc, #576	; (adr r3, 800a4c8 <__ieee754_log+0x300>)
 800a286:	e9d3 2300 	ldrd	r2, r3, [r3]
 800a28a:	4606      	mov	r6, r0
 800a28c:	460f      	mov	r7, r1
 800a28e:	f7f6 f9b3 	bl	80005f8 <__aeabi_dmul>
 800a292:	a38f      	add	r3, pc, #572	; (adr r3, 800a4d0 <__ieee754_log+0x308>)
 800a294:	e9d3 2300 	ldrd	r2, r3, [r3]
 800a298:	4604      	mov	r4, r0
 800a29a:	460d      	mov	r5, r1
 800a29c:	4630      	mov	r0, r6
 800a29e:	4639      	mov	r1, r7
 800a2a0:	f7f6 f9aa 	bl	80005f8 <__aeabi_dmul>
 800a2a4:	4602      	mov	r2, r0
 800a2a6:	460b      	mov	r3, r1
 800a2a8:	4620      	mov	r0, r4
 800a2aa:	4629      	mov	r1, r5
 800a2ac:	e7ba      	b.n	800a224 <__ieee754_log+0x5c>
 800a2ae:	a38a      	add	r3, pc, #552	; (adr r3, 800a4d8 <__ieee754_log+0x310>)
 800a2b0:	e9d3 2300 	ldrd	r2, r3, [r3]
 800a2b4:	4650      	mov	r0, sl
 800a2b6:	4659      	mov	r1, fp
 800a2b8:	f7f6 f99e 	bl	80005f8 <__aeabi_dmul>
 800a2bc:	4602      	mov	r2, r0
 800a2be:	460b      	mov	r3, r1
 800a2c0:	2000      	movs	r0, #0
 800a2c2:	4999      	ldr	r1, [pc, #612]	; (800a528 <__ieee754_log+0x360>)
 800a2c4:	f7f5 ffe0 	bl	8000288 <__aeabi_dsub>
 800a2c8:	4652      	mov	r2, sl
 800a2ca:	4606      	mov	r6, r0
 800a2cc:	460f      	mov	r7, r1
 800a2ce:	465b      	mov	r3, fp
 800a2d0:	4650      	mov	r0, sl
 800a2d2:	4659      	mov	r1, fp
 800a2d4:	f7f6 f990 	bl	80005f8 <__aeabi_dmul>
 800a2d8:	4602      	mov	r2, r0
 800a2da:	460b      	mov	r3, r1
 800a2dc:	4630      	mov	r0, r6
 800a2de:	4639      	mov	r1, r7
 800a2e0:	f7f6 f98a 	bl	80005f8 <__aeabi_dmul>
 800a2e4:	4606      	mov	r6, r0
 800a2e6:	460f      	mov	r7, r1
 800a2e8:	b914      	cbnz	r4, 800a2f0 <__ieee754_log+0x128>
 800a2ea:	4632      	mov	r2, r6
 800a2ec:	463b      	mov	r3, r7
 800a2ee:	e0a0      	b.n	800a432 <__ieee754_log+0x26a>
 800a2f0:	4620      	mov	r0, r4
 800a2f2:	f7f6 f917 	bl	8000524 <__aeabi_i2d>
 800a2f6:	a374      	add	r3, pc, #464	; (adr r3, 800a4c8 <__ieee754_log+0x300>)
 800a2f8:	e9d3 2300 	ldrd	r2, r3, [r3]
 800a2fc:	4680      	mov	r8, r0
 800a2fe:	4689      	mov	r9, r1
 800a300:	f7f6 f97a 	bl	80005f8 <__aeabi_dmul>
 800a304:	a372      	add	r3, pc, #456	; (adr r3, 800a4d0 <__ieee754_log+0x308>)
 800a306:	e9d3 2300 	ldrd	r2, r3, [r3]
 800a30a:	4604      	mov	r4, r0
 800a30c:	460d      	mov	r5, r1
 800a30e:	4640      	mov	r0, r8
 800a310:	4649      	mov	r1, r9
 800a312:	f7f6 f971 	bl	80005f8 <__aeabi_dmul>
 800a316:	e0a5      	b.n	800a464 <__ieee754_log+0x29c>
 800a318:	f04f 4380 	mov.w	r3, #1073741824	; 0x40000000
 800a31c:	f7f5 ffb6 	bl	800028c <__adddf3>
 800a320:	4602      	mov	r2, r0
 800a322:	460b      	mov	r3, r1
 800a324:	4650      	mov	r0, sl
 800a326:	4659      	mov	r1, fp
 800a328:	f7f6 fa90 	bl	800084c <__aeabi_ddiv>
 800a32c:	e9cd 0100 	strd	r0, r1, [sp]
 800a330:	4620      	mov	r0, r4
 800a332:	f7f6 f8f7 	bl	8000524 <__aeabi_i2d>
 800a336:	e9dd 2300 	ldrd	r2, r3, [sp]
 800a33a:	e9cd 0102 	strd	r0, r1, [sp, #8]
 800a33e:	4610      	mov	r0, r2
 800a340:	4619      	mov	r1, r3
 800a342:	f7f6 f959 	bl	80005f8 <__aeabi_dmul>
 800a346:	4602      	mov	r2, r0
 800a348:	460b      	mov	r3, r1
 800a34a:	e9cd 0104 	strd	r0, r1, [sp, #16]
 800a34e:	f7f6 f953 	bl	80005f8 <__aeabi_dmul>
 800a352:	a363      	add	r3, pc, #396	; (adr r3, 800a4e0 <__ieee754_log+0x318>)
 800a354:	e9d3 2300 	ldrd	r2, r3, [r3]
 800a358:	4680      	mov	r8, r0
 800a35a:	4689      	mov	r9, r1
 800a35c:	f7f6 f94c 	bl	80005f8 <__aeabi_dmul>
 800a360:	a361      	add	r3, pc, #388	; (adr r3, 800a4e8 <__ieee754_log+0x320>)
 800a362:	e9d3 2300 	ldrd	r2, r3, [r3]
 800a366:	f7f5 ff91 	bl	800028c <__adddf3>
 800a36a:	4642      	mov	r2, r8
 800a36c:	464b      	mov	r3, r9
 800a36e:	f7f6 f943 	bl	80005f8 <__aeabi_dmul>
 800a372:	a35f      	add	r3, pc, #380	; (adr r3, 800a4f0 <__ieee754_log+0x328>)
 800a374:	e9d3 2300 	ldrd	r2, r3, [r3]
 800a378:	f7f5 ff88 	bl	800028c <__adddf3>
 800a37c:	4642      	mov	r2, r8
 800a37e:	464b      	mov	r3, r9
 800a380:	f7f6 f93a 	bl	80005f8 <__aeabi_dmul>
 800a384:	a35c      	add	r3, pc, #368	; (adr r3, 800a4f8 <__ieee754_log+0x330>)
 800a386:	e9d3 2300 	ldrd	r2, r3, [r3]
 800a38a:	f7f5 ff7f 	bl	800028c <__adddf3>
 800a38e:	e9dd 2304 	ldrd	r2, r3, [sp, #16]
 800a392:	f7f6 f931 	bl	80005f8 <__aeabi_dmul>
 800a396:	a35a      	add	r3, pc, #360	; (adr r3, 800a500 <__ieee754_log+0x338>)
 800a398:	e9d3 2300 	ldrd	r2, r3, [r3]
 800a39c:	e9cd 0104 	strd	r0, r1, [sp, #16]
 800a3a0:	4640      	mov	r0, r8
 800a3a2:	4649      	mov	r1, r9
 800a3a4:	f7f6 f928 	bl	80005f8 <__aeabi_dmul>
 800a3a8:	a357      	add	r3, pc, #348	; (adr r3, 800a508 <__ieee754_log+0x340>)
 800a3aa:	e9d3 2300 	ldrd	r2, r3, [r3]
 800a3ae:	f7f5 ff6d 	bl	800028c <__adddf3>
 800a3b2:	4642      	mov	r2, r8
 800a3b4:	464b      	mov	r3, r9
 800a3b6:	f7f6 f91f 	bl	80005f8 <__aeabi_dmul>
 800a3ba:	a355      	add	r3, pc, #340	; (adr r3, 800a510 <__ieee754_log+0x348>)
 800a3bc:	e9d3 2300 	ldrd	r2, r3, [r3]
 800a3c0:	f7f5 ff64 	bl	800028c <__adddf3>
 800a3c4:	4642      	mov	r2, r8
 800a3c6:	464b      	mov	r3, r9
 800a3c8:	f7f6 f916 	bl	80005f8 <__aeabi_dmul>
 800a3cc:	f5a5 26c2 	sub.w	r6, r5, #397312	; 0x61000
 800a3d0:	4602      	mov	r2, r0
 800a3d2:	460b      	mov	r3, r1
 800a3d4:	f5c5 25d7 	rsb	r5, r5, #440320	; 0x6b800
 800a3d8:	e9dd 0104 	ldrd	r0, r1, [sp, #16]
 800a3dc:	f7f5 ff56 	bl	800028c <__adddf3>
 800a3e0:	f2a6 467a 	subw	r6, r6, #1146	; 0x47a
 800a3e4:	3551      	adds	r5, #81	; 0x51
 800a3e6:	4335      	orrs	r5, r6
 800a3e8:	2d00      	cmp	r5, #0
 800a3ea:	4680      	mov	r8, r0
 800a3ec:	4689      	mov	r9, r1
 800a3ee:	dd48      	ble.n	800a482 <__ieee754_log+0x2ba>
 800a3f0:	2200      	movs	r2, #0
 800a3f2:	4b4d      	ldr	r3, [pc, #308]	; (800a528 <__ieee754_log+0x360>)
 800a3f4:	4650      	mov	r0, sl
 800a3f6:	4659      	mov	r1, fp
 800a3f8:	f7f6 f8fe 	bl	80005f8 <__aeabi_dmul>
 800a3fc:	4652      	mov	r2, sl
 800a3fe:	465b      	mov	r3, fp
 800a400:	f7f6 f8fa 	bl	80005f8 <__aeabi_dmul>
 800a404:	4602      	mov	r2, r0
 800a406:	460b      	mov	r3, r1
 800a408:	4606      	mov	r6, r0
 800a40a:	460f      	mov	r7, r1
 800a40c:	4640      	mov	r0, r8
 800a40e:	4649      	mov	r1, r9
 800a410:	f7f5 ff3c 	bl	800028c <__adddf3>
 800a414:	e9dd 2300 	ldrd	r2, r3, [sp]
 800a418:	f7f6 f8ee 	bl	80005f8 <__aeabi_dmul>
 800a41c:	4680      	mov	r8, r0
 800a41e:	4689      	mov	r9, r1
 800a420:	b964      	cbnz	r4, 800a43c <__ieee754_log+0x274>
 800a422:	4602      	mov	r2, r0
 800a424:	460b      	mov	r3, r1
 800a426:	4630      	mov	r0, r6
 800a428:	4639      	mov	r1, r7
 800a42a:	f7f5 ff2d 	bl	8000288 <__aeabi_dsub>
 800a42e:	4602      	mov	r2, r0
 800a430:	460b      	mov	r3, r1
 800a432:	4650      	mov	r0, sl
 800a434:	4659      	mov	r1, fp
 800a436:	f7f5 ff27 	bl	8000288 <__aeabi_dsub>
 800a43a:	e6da      	b.n	800a1f2 <__ieee754_log+0x2a>
 800a43c:	a322      	add	r3, pc, #136	; (adr r3, 800a4c8 <__ieee754_log+0x300>)
 800a43e:	e9d3 2300 	ldrd	r2, r3, [r3]
 800a442:	e9dd 0102 	ldrd	r0, r1, [sp, #8]
 800a446:	f7f6 f8d7 	bl	80005f8 <__aeabi_dmul>
 800a44a:	a321      	add	r3, pc, #132	; (adr r3, 800a4d0 <__ieee754_log+0x308>)
 800a44c:	e9d3 2300 	ldrd	r2, r3, [r3]
 800a450:	4604      	mov	r4, r0
 800a452:	460d      	mov	r5, r1
 800a454:	e9dd 0102 	ldrd	r0, r1, [sp, #8]
 800a458:	f7f6 f8ce 	bl	80005f8 <__aeabi_dmul>
 800a45c:	4642      	mov	r2, r8
 800a45e:	464b      	mov	r3, r9
 800a460:	f7f5 ff14 	bl	800028c <__adddf3>
 800a464:	4602      	mov	r2, r0
 800a466:	460b      	mov	r3, r1
 800a468:	4630      	mov	r0, r6
 800a46a:	4639      	mov	r1, r7
 800a46c:	f7f5 ff0c 	bl	8000288 <__aeabi_dsub>
 800a470:	4652      	mov	r2, sl
 800a472:	465b      	mov	r3, fp
 800a474:	f7f5 ff08 	bl	8000288 <__aeabi_dsub>
 800a478:	4602      	mov	r2, r0
 800a47a:	460b      	mov	r3, r1
 800a47c:	4620      	mov	r0, r4
 800a47e:	4629      	mov	r1, r5
 800a480:	e7d9      	b.n	800a436 <__ieee754_log+0x26e>
 800a482:	4602      	mov	r2, r0
 800a484:	460b      	mov	r3, r1
 800a486:	4650      	mov	r0, sl
 800a488:	4659      	mov	r1, fp
 800a48a:	f7f5 fefd 	bl	8000288 <__aeabi_dsub>
 800a48e:	e9dd 2300 	ldrd	r2, r3, [sp]
 800a492:	f7f6 f8b1 	bl	80005f8 <__aeabi_dmul>
 800a496:	4606      	mov	r6, r0
 800a498:	460f      	mov	r7, r1
 800a49a:	2c00      	cmp	r4, #0
 800a49c:	f43f af25 	beq.w	800a2ea <__ieee754_log+0x122>
 800a4a0:	a309      	add	r3, pc, #36	; (adr r3, 800a4c8 <__ieee754_log+0x300>)
 800a4a2:	e9d3 2300 	ldrd	r2, r3, [r3]
 800a4a6:	e9dd 0102 	ldrd	r0, r1, [sp, #8]
 800a4aa:	f7f6 f8a5 	bl	80005f8 <__aeabi_dmul>
 800a4ae:	a308      	add	r3, pc, #32	; (adr r3, 800a4d0 <__ieee754_log+0x308>)
 800a4b0:	e9d3 2300 	ldrd	r2, r3, [r3]
 800a4b4:	4604      	mov	r4, r0
 800a4b6:	460d      	mov	r5, r1
 800a4b8:	e9dd 0102 	ldrd	r0, r1, [sp, #8]
 800a4bc:	e729      	b.n	800a312 <__ieee754_log+0x14a>
 800a4be:	2000      	movs	r0, #0
 800a4c0:	2100      	movs	r1, #0
 800a4c2:	e696      	b.n	800a1f2 <__ieee754_log+0x2a>
 800a4c4:	f3af 8000 	nop.w
 800a4c8:	fee00000 	.word	0xfee00000
 800a4cc:	3fe62e42 	.word	0x3fe62e42
 800a4d0:	35793c76 	.word	0x35793c76
 800a4d4:	3dea39ef 	.word	0x3dea39ef
 800a4d8:	55555555 	.word	0x55555555
 800a4dc:	3fd55555 	.word	0x3fd55555
 800a4e0:	df3e5244 	.word	0xdf3e5244
 800a4e4:	3fc2f112 	.word	0x3fc2f112
 800a4e8:	96cb03de 	.word	0x96cb03de
 800a4ec:	3fc74664 	.word	0x3fc74664
 800a4f0:	94229359 	.word	0x94229359
 800a4f4:	3fd24924 	.word	0x3fd24924
 800a4f8:	55555593 	.word	0x55555593
 800a4fc:	3fe55555 	.word	0x3fe55555
 800a500:	d078c69f 	.word	0xd078c69f
 800a504:	3fc39a09 	.word	0x3fc39a09
 800a508:	1d8e78af 	.word	0x1d8e78af
 800a50c:	3fcc71c5 	.word	0x3fcc71c5
 800a510:	9997fa04 	.word	0x9997fa04
 800a514:	3fd99999 	.word	0x3fd99999
 800a518:	c3500000 	.word	0xc3500000
 800a51c:	43500000 	.word	0x43500000
 800a520:	7fefffff 	.word	0x7fefffff
 800a524:	3ff00000 	.word	0x3ff00000
 800a528:	3fe00000 	.word	0x3fe00000
 800a52c:	00000000 	.word	0x00000000

0800a530 <__ieee754_pow>:
 800a530:	e92d 4ff0 	stmdb	sp!, {r4, r5, r6, r7, r8, r9, sl, fp, lr}
 800a534:	b091      	sub	sp, #68	; 0x44
 800a536:	ed8d 1b00 	vstr	d1, [sp]
 800a53a:	e9dd 2900 	ldrd	r2, r9, [sp]
 800a53e:	f029 4800 	bic.w	r8, r9, #2147483648	; 0x80000000
 800a542:	ea58 0302 	orrs.w	r3, r8, r2
 800a546:	ec57 6b10 	vmov	r6, r7, d0
 800a54a:	f000 84be 	beq.w	800aeca <__ieee754_pow+0x99a>
 800a54e:	4b7a      	ldr	r3, [pc, #488]	; (800a738 <__ieee754_pow+0x208>)
 800a550:	f027 4400 	bic.w	r4, r7, #2147483648	; 0x80000000
 800a554:	429c      	cmp	r4, r3
 800a556:	463d      	mov	r5, r7
 800a558:	ee10 aa10 	vmov	sl, s0
 800a55c:	dc09      	bgt.n	800a572 <__ieee754_pow+0x42>
 800a55e:	d103      	bne.n	800a568 <__ieee754_pow+0x38>
 800a560:	b93e      	cbnz	r6, 800a572 <__ieee754_pow+0x42>
 800a562:	45a0      	cmp	r8, r4
 800a564:	dc0d      	bgt.n	800a582 <__ieee754_pow+0x52>
 800a566:	e001      	b.n	800a56c <__ieee754_pow+0x3c>
 800a568:	4598      	cmp	r8, r3
 800a56a:	dc02      	bgt.n	800a572 <__ieee754_pow+0x42>
 800a56c:	4598      	cmp	r8, r3
 800a56e:	d10e      	bne.n	800a58e <__ieee754_pow+0x5e>
 800a570:	b16a      	cbz	r2, 800a58e <__ieee754_pow+0x5e>
 800a572:	f104 4440 	add.w	r4, r4, #3221225472	; 0xc0000000
 800a576:	f504 1480 	add.w	r4, r4, #1048576	; 0x100000
 800a57a:	ea54 030a 	orrs.w	r3, r4, sl
 800a57e:	f000 84a4 	beq.w	800aeca <__ieee754_pow+0x99a>
 800a582:	486e      	ldr	r0, [pc, #440]	; (800a73c <__ieee754_pow+0x20c>)
 800a584:	b011      	add	sp, #68	; 0x44
 800a586:	e8bd 4ff0 	ldmia.w	sp!, {r4, r5, r6, r7, r8, r9, sl, fp, lr}
 800a58a:	f000 bda5 	b.w	800b0d8 <nan>
 800a58e:	2d00      	cmp	r5, #0
 800a590:	da53      	bge.n	800a63a <__ieee754_pow+0x10a>
 800a592:	4b6b      	ldr	r3, [pc, #428]	; (800a740 <__ieee754_pow+0x210>)
 800a594:	4598      	cmp	r8, r3
 800a596:	dc4d      	bgt.n	800a634 <__ieee754_pow+0x104>
 800a598:	f1a3 7354 	sub.w	r3, r3, #55574528	; 0x3500000
 800a59c:	4598      	cmp	r8, r3
 800a59e:	dd4c      	ble.n	800a63a <__ieee754_pow+0x10a>
 800a5a0:	ea4f 5328 	mov.w	r3, r8, asr #20
 800a5a4:	f2a3 33ff 	subw	r3, r3, #1023	; 0x3ff
 800a5a8:	2b14      	cmp	r3, #20
 800a5aa:	dd26      	ble.n	800a5fa <__ieee754_pow+0xca>
 800a5ac:	f1c3 0334 	rsb	r3, r3, #52	; 0x34
 800a5b0:	fa22 f103 	lsr.w	r1, r2, r3
 800a5b4:	fa01 f303 	lsl.w	r3, r1, r3
 800a5b8:	4293      	cmp	r3, r2
 800a5ba:	d13e      	bne.n	800a63a <__ieee754_pow+0x10a>
 800a5bc:	f001 0101 	and.w	r1, r1, #1
 800a5c0:	f1c1 0b02 	rsb	fp, r1, #2
 800a5c4:	2a00      	cmp	r2, #0
 800a5c6:	d15b      	bne.n	800a680 <__ieee754_pow+0x150>
 800a5c8:	4b5b      	ldr	r3, [pc, #364]	; (800a738 <__ieee754_pow+0x208>)
 800a5ca:	4598      	cmp	r8, r3
 800a5cc:	d124      	bne.n	800a618 <__ieee754_pow+0xe8>
 800a5ce:	f104 4340 	add.w	r3, r4, #3221225472	; 0xc0000000
 800a5d2:	f503 1380 	add.w	r3, r3, #1048576	; 0x100000
 800a5d6:	ea53 030a 	orrs.w	r3, r3, sl
 800a5da:	f000 8476 	beq.w	800aeca <__ieee754_pow+0x99a>
 800a5de:	4b59      	ldr	r3, [pc, #356]	; (800a744 <__ieee754_pow+0x214>)
 800a5e0:	429c      	cmp	r4, r3
 800a5e2:	dd2d      	ble.n	800a640 <__ieee754_pow+0x110>
 800a5e4:	f1b9 0f00 	cmp.w	r9, #0
 800a5e8:	f280 8473 	bge.w	800aed2 <__ieee754_pow+0x9a2>
 800a5ec:	2000      	movs	r0, #0
 800a5ee:	2100      	movs	r1, #0
 800a5f0:	ec41 0b10 	vmov	d0, r0, r1
 800a5f4:	b011      	add	sp, #68	; 0x44
 800a5f6:	e8bd 8ff0 	ldmia.w	sp!, {r4, r5, r6, r7, r8, r9, sl, fp, pc}
 800a5fa:	2a00      	cmp	r2, #0
 800a5fc:	d13e      	bne.n	800a67c <__ieee754_pow+0x14c>
 800a5fe:	f1c3 0314 	rsb	r3, r3, #20
 800a602:	fa48 f103 	asr.w	r1, r8, r3
 800a606:	fa01 f303 	lsl.w	r3, r1, r3
 800a60a:	4543      	cmp	r3, r8
 800a60c:	f040 8469 	bne.w	800aee2 <__ieee754_pow+0x9b2>
 800a610:	f001 0101 	and.w	r1, r1, #1
 800a614:	f1c1 0b02 	rsb	fp, r1, #2
 800a618:	4b4b      	ldr	r3, [pc, #300]	; (800a748 <__ieee754_pow+0x218>)
 800a61a:	4598      	cmp	r8, r3
 800a61c:	d118      	bne.n	800a650 <__ieee754_pow+0x120>
 800a61e:	f1b9 0f00 	cmp.w	r9, #0
 800a622:	f280 845a 	bge.w	800aeda <__ieee754_pow+0x9aa>
 800a626:	4948      	ldr	r1, [pc, #288]	; (800a748 <__ieee754_pow+0x218>)
 800a628:	4632      	mov	r2, r6
 800a62a:	463b      	mov	r3, r7
 800a62c:	2000      	movs	r0, #0
 800a62e:	f7f6 f90d 	bl	800084c <__aeabi_ddiv>
 800a632:	e7dd      	b.n	800a5f0 <__ieee754_pow+0xc0>
 800a634:	f04f 0b02 	mov.w	fp, #2
 800a638:	e7c4      	b.n	800a5c4 <__ieee754_pow+0x94>
 800a63a:	f04f 0b00 	mov.w	fp, #0
 800a63e:	e7c1      	b.n	800a5c4 <__ieee754_pow+0x94>
 800a640:	f1b9 0f00 	cmp.w	r9, #0
 800a644:	dad2      	bge.n	800a5ec <__ieee754_pow+0xbc>
 800a646:	e9dd 0300 	ldrd	r0, r3, [sp]
 800a64a:	f103 4100 	add.w	r1, r3, #2147483648	; 0x80000000
 800a64e:	e7cf      	b.n	800a5f0 <__ieee754_pow+0xc0>
 800a650:	f1b9 4f80 	cmp.w	r9, #1073741824	; 0x40000000
 800a654:	d106      	bne.n	800a664 <__ieee754_pow+0x134>
 800a656:	4632      	mov	r2, r6
 800a658:	463b      	mov	r3, r7
 800a65a:	4610      	mov	r0, r2
 800a65c:	4619      	mov	r1, r3
 800a65e:	f7f5 ffcb 	bl	80005f8 <__aeabi_dmul>
 800a662:	e7c5      	b.n	800a5f0 <__ieee754_pow+0xc0>
 800a664:	4b39      	ldr	r3, [pc, #228]	; (800a74c <__ieee754_pow+0x21c>)
 800a666:	4599      	cmp	r9, r3
 800a668:	d10a      	bne.n	800a680 <__ieee754_pow+0x150>
 800a66a:	2d00      	cmp	r5, #0
 800a66c:	db08      	blt.n	800a680 <__ieee754_pow+0x150>
 800a66e:	ec47 6b10 	vmov	d0, r6, r7
 800a672:	b011      	add	sp, #68	; 0x44
 800a674:	e8bd 4ff0 	ldmia.w	sp!, {r4, r5, r6, r7, r8, r9, sl, fp, lr}
 800a678:	f000 bc68 	b.w	800af4c <__ieee754_sqrt>
 800a67c:	f04f 0b00 	mov.w	fp, #0
 800a680:	ec47 6b10 	vmov	d0, r6, r7
 800a684:	f000 fd12 	bl	800b0ac <fabs>
 800a688:	ec51 0b10 	vmov	r0, r1, d0
 800a68c:	f1ba 0f00 	cmp.w	sl, #0
 800a690:	d127      	bne.n	800a6e2 <__ieee754_pow+0x1b2>
 800a692:	b124      	cbz	r4, 800a69e <__ieee754_pow+0x16e>
 800a694:	4b2c      	ldr	r3, [pc, #176]	; (800a748 <__ieee754_pow+0x218>)
 800a696:	f025 4240 	bic.w	r2, r5, #3221225472	; 0xc0000000
 800a69a:	429a      	cmp	r2, r3
 800a69c:	d121      	bne.n	800a6e2 <__ieee754_pow+0x1b2>
 800a69e:	f1b9 0f00 	cmp.w	r9, #0
 800a6a2:	da05      	bge.n	800a6b0 <__ieee754_pow+0x180>
 800a6a4:	4602      	mov	r2, r0
 800a6a6:	460b      	mov	r3, r1
 800a6a8:	2000      	movs	r0, #0
 800a6aa:	4927      	ldr	r1, [pc, #156]	; (800a748 <__ieee754_pow+0x218>)
 800a6ac:	f7f6 f8ce 	bl	800084c <__aeabi_ddiv>
 800a6b0:	2d00      	cmp	r5, #0
 800a6b2:	da9d      	bge.n	800a5f0 <__ieee754_pow+0xc0>
 800a6b4:	f104 4440 	add.w	r4, r4, #3221225472	; 0xc0000000
 800a6b8:	f504 1480 	add.w	r4, r4, #1048576	; 0x100000
 800a6bc:	ea54 030b 	orrs.w	r3, r4, fp
 800a6c0:	d108      	bne.n	800a6d4 <__ieee754_pow+0x1a4>
 800a6c2:	4602      	mov	r2, r0
 800a6c4:	460b      	mov	r3, r1
 800a6c6:	4610      	mov	r0, r2
 800a6c8:	4619      	mov	r1, r3
 800a6ca:	f7f5 fddd 	bl	8000288 <__aeabi_dsub>
 800a6ce:	4602      	mov	r2, r0
 800a6d0:	460b      	mov	r3, r1
 800a6d2:	e7ac      	b.n	800a62e <__ieee754_pow+0xfe>
 800a6d4:	f1bb 0f01 	cmp.w	fp, #1
 800a6d8:	d18a      	bne.n	800a5f0 <__ieee754_pow+0xc0>
 800a6da:	f101 4300 	add.w	r3, r1, #2147483648	; 0x80000000
 800a6de:	4619      	mov	r1, r3
 800a6e0:	e786      	b.n	800a5f0 <__ieee754_pow+0xc0>
 800a6e2:	0fed      	lsrs	r5, r5, #31
 800a6e4:	1e6b      	subs	r3, r5, #1
 800a6e6:	930d      	str	r3, [sp, #52]	; 0x34
 800a6e8:	ea5b 0303 	orrs.w	r3, fp, r3
 800a6ec:	d102      	bne.n	800a6f4 <__ieee754_pow+0x1c4>
 800a6ee:	4632      	mov	r2, r6
 800a6f0:	463b      	mov	r3, r7
 800a6f2:	e7e8      	b.n	800a6c6 <__ieee754_pow+0x196>
 800a6f4:	4b16      	ldr	r3, [pc, #88]	; (800a750 <__ieee754_pow+0x220>)
 800a6f6:	4598      	cmp	r8, r3
 800a6f8:	f340 80fe 	ble.w	800a8f8 <__ieee754_pow+0x3c8>
 800a6fc:	f103 7304 	add.w	r3, r3, #34603008	; 0x2100000
 800a700:	4598      	cmp	r8, r3
 800a702:	dd0a      	ble.n	800a71a <__ieee754_pow+0x1ea>
 800a704:	4b0f      	ldr	r3, [pc, #60]	; (800a744 <__ieee754_pow+0x214>)
 800a706:	429c      	cmp	r4, r3
 800a708:	dc0d      	bgt.n	800a726 <__ieee754_pow+0x1f6>
 800a70a:	f1b9 0f00 	cmp.w	r9, #0
 800a70e:	f6bf af6d 	bge.w	800a5ec <__ieee754_pow+0xbc>
 800a712:	a307      	add	r3, pc, #28	; (adr r3, 800a730 <__ieee754_pow+0x200>)
 800a714:	e9d3 2300 	ldrd	r2, r3, [r3]
 800a718:	e79f      	b.n	800a65a <__ieee754_pow+0x12a>
 800a71a:	4b0e      	ldr	r3, [pc, #56]	; (800a754 <__ieee754_pow+0x224>)
 800a71c:	429c      	cmp	r4, r3
 800a71e:	ddf4      	ble.n	800a70a <__ieee754_pow+0x1da>
 800a720:	4b09      	ldr	r3, [pc, #36]	; (800a748 <__ieee754_pow+0x218>)
 800a722:	429c      	cmp	r4, r3
 800a724:	dd18      	ble.n	800a758 <__ieee754_pow+0x228>
 800a726:	f1b9 0f00 	cmp.w	r9, #0
 800a72a:	dcf2      	bgt.n	800a712 <__ieee754_pow+0x1e2>
 800a72c:	e75e      	b.n	800a5ec <__ieee754_pow+0xbc>
 800a72e:	bf00      	nop
 800a730:	8800759c 	.word	0x8800759c
 800a734:	7e37e43c 	.word	0x7e37e43c
 800a738:	7ff00000 	.word	0x7ff00000
 800a73c:	0800b539 	.word	0x0800b539
 800a740:	433fffff 	.word	0x433fffff
 800a744:	3fefffff 	.word	0x3fefffff
 800a748:	3ff00000 	.word	0x3ff00000
 800a74c:	3fe00000 	.word	0x3fe00000
 800a750:	41e00000 	.word	0x41e00000
 800a754:	3feffffe 	.word	0x3feffffe
 800a758:	2200      	movs	r2, #0
 800a75a:	4b63      	ldr	r3, [pc, #396]	; (800a8e8 <__ieee754_pow+0x3b8>)
 800a75c:	f7f5 fd94 	bl	8000288 <__aeabi_dsub>
 800a760:	a355      	add	r3, pc, #340	; (adr r3, 800a8b8 <__ieee754_pow+0x388>)
 800a762:	e9d3 2300 	ldrd	r2, r3, [r3]
 800a766:	4604      	mov	r4, r0
 800a768:	460d      	mov	r5, r1
 800a76a:	f7f5 ff45 	bl	80005f8 <__aeabi_dmul>
 800a76e:	a354      	add	r3, pc, #336	; (adr r3, 800a8c0 <__ieee754_pow+0x390>)
 800a770:	e9d3 2300 	ldrd	r2, r3, [r3]
 800a774:	4606      	mov	r6, r0
 800a776:	460f      	mov	r7, r1
 800a778:	4620      	mov	r0, r4
 800a77a:	4629      	mov	r1, r5
 800a77c:	f7f5 ff3c 	bl	80005f8 <__aeabi_dmul>
 800a780:	2200      	movs	r2, #0
 800a782:	e9cd 0102 	strd	r0, r1, [sp, #8]
 800a786:	4b59      	ldr	r3, [pc, #356]	; (800a8ec <__ieee754_pow+0x3bc>)
 800a788:	4620      	mov	r0, r4
 800a78a:	4629      	mov	r1, r5
 800a78c:	f7f5 ff34 	bl	80005f8 <__aeabi_dmul>
 800a790:	4602      	mov	r2, r0
 800a792:	460b      	mov	r3, r1
 800a794:	a14c      	add	r1, pc, #304	; (adr r1, 800a8c8 <__ieee754_pow+0x398>)
 800a796:	e9d1 0100 	ldrd	r0, r1, [r1]
 800a79a:	f7f5 fd75 	bl	8000288 <__aeabi_dsub>
 800a79e:	4622      	mov	r2, r4
 800a7a0:	462b      	mov	r3, r5
 800a7a2:	f7f5 ff29 	bl	80005f8 <__aeabi_dmul>
 800a7a6:	4602      	mov	r2, r0
 800a7a8:	460b      	mov	r3, r1
 800a7aa:	2000      	movs	r0, #0
 800a7ac:	4950      	ldr	r1, [pc, #320]	; (800a8f0 <__ieee754_pow+0x3c0>)
 800a7ae:	f7f5 fd6b 	bl	8000288 <__aeabi_dsub>
 800a7b2:	4622      	mov	r2, r4
 800a7b4:	462b      	mov	r3, r5
 800a7b6:	4680      	mov	r8, r0
 800a7b8:	4689      	mov	r9, r1
 800a7ba:	4620      	mov	r0, r4
 800a7bc:	4629      	mov	r1, r5
 800a7be:	f7f5 ff1b 	bl	80005f8 <__aeabi_dmul>
 800a7c2:	4602      	mov	r2, r0
 800a7c4:	460b      	mov	r3, r1
 800a7c6:	4640      	mov	r0, r8
 800a7c8:	4649      	mov	r1, r9
 800a7ca:	f7f5 ff15 	bl	80005f8 <__aeabi_dmul>
 800a7ce:	a340      	add	r3, pc, #256	; (adr r3, 800a8d0 <__ieee754_pow+0x3a0>)
 800a7d0:	e9d3 2300 	ldrd	r2, r3, [r3]
 800a7d4:	f7f5 ff10 	bl	80005f8 <__aeabi_dmul>
 800a7d8:	4602      	mov	r2, r0
 800a7da:	460b      	mov	r3, r1
 800a7dc:	e9dd 0102 	ldrd	r0, r1, [sp, #8]
 800a7e0:	f7f5 fd52 	bl	8000288 <__aeabi_dsub>
 800a7e4:	4602      	mov	r2, r0
 800a7e6:	460b      	mov	r3, r1
 800a7e8:	4604      	mov	r4, r0
 800a7ea:	460d      	mov	r5, r1
 800a7ec:	4630      	mov	r0, r6
 800a7ee:	4639      	mov	r1, r7
 800a7f0:	f7f5 fd4c 	bl	800028c <__adddf3>
 800a7f4:	2000      	movs	r0, #0
 800a7f6:	e9cd 0104 	strd	r0, r1, [sp, #16]
 800a7fa:	4632      	mov	r2, r6
 800a7fc:	463b      	mov	r3, r7
 800a7fe:	f7f5 fd43 	bl	8000288 <__aeabi_dsub>
 800a802:	4602      	mov	r2, r0
 800a804:	460b      	mov	r3, r1
 800a806:	4620      	mov	r0, r4
 800a808:	4629      	mov	r1, r5
 800a80a:	f7f5 fd3d 	bl	8000288 <__aeabi_dsub>
 800a80e:	9a0d      	ldr	r2, [sp, #52]	; 0x34
 800a810:	f10b 33ff 	add.w	r3, fp, #4294967295
 800a814:	4313      	orrs	r3, r2
 800a816:	4606      	mov	r6, r0
 800a818:	460f      	mov	r7, r1
 800a81a:	f040 81eb 	bne.w	800abf4 <__ieee754_pow+0x6c4>
 800a81e:	ed9f 7b2e 	vldr	d7, [pc, #184]	; 800a8d8 <__ieee754_pow+0x3a8>
 800a822:	e9dd 4500 	ldrd	r4, r5, [sp]
 800a826:	2400      	movs	r4, #0
 800a828:	4622      	mov	r2, r4
 800a82a:	462b      	mov	r3, r5
 800a82c:	e9dd 0100 	ldrd	r0, r1, [sp]
 800a830:	ed8d 7b02 	vstr	d7, [sp, #8]
 800a834:	f7f5 fd28 	bl	8000288 <__aeabi_dsub>
 800a838:	e9dd 2304 	ldrd	r2, r3, [sp, #16]
 800a83c:	f7f5 fedc 	bl	80005f8 <__aeabi_dmul>
 800a840:	e9dd 2300 	ldrd	r2, r3, [sp]
 800a844:	4680      	mov	r8, r0
 800a846:	4689      	mov	r9, r1
 800a848:	4630      	mov	r0, r6
 800a84a:	4639      	mov	r1, r7
 800a84c:	f7f5 fed4 	bl	80005f8 <__aeabi_dmul>
 800a850:	4602      	mov	r2, r0
 800a852:	460b      	mov	r3, r1
 800a854:	4640      	mov	r0, r8
 800a856:	4649      	mov	r1, r9
 800a858:	f7f5 fd18 	bl	800028c <__adddf3>
 800a85c:	4622      	mov	r2, r4
 800a85e:	462b      	mov	r3, r5
 800a860:	4680      	mov	r8, r0
 800a862:	4689      	mov	r9, r1
 800a864:	e9dd 0104 	ldrd	r0, r1, [sp, #16]
 800a868:	f7f5 fec6 	bl	80005f8 <__aeabi_dmul>
 800a86c:	460b      	mov	r3, r1
 800a86e:	4604      	mov	r4, r0
 800a870:	460d      	mov	r5, r1
 800a872:	4602      	mov	r2, r0
 800a874:	4649      	mov	r1, r9
 800a876:	4640      	mov	r0, r8
 800a878:	e9cd 4500 	strd	r4, r5, [sp]
 800a87c:	f7f5 fd06 	bl	800028c <__adddf3>
 800a880:	4b1c      	ldr	r3, [pc, #112]	; (800a8f4 <__ieee754_pow+0x3c4>)
 800a882:	4299      	cmp	r1, r3
 800a884:	4606      	mov	r6, r0
 800a886:	460f      	mov	r7, r1
 800a888:	468b      	mov	fp, r1
 800a88a:	f340 82f7 	ble.w	800ae7c <__ieee754_pow+0x94c>
 800a88e:	f101 433f 	add.w	r3, r1, #3204448256	; 0xbf000000
 800a892:	f503 03e0 	add.w	r3, r3, #7340032	; 0x700000
 800a896:	4303      	orrs	r3, r0
 800a898:	f000 81ea 	beq.w	800ac70 <__ieee754_pow+0x740>
 800a89c:	a310      	add	r3, pc, #64	; (adr r3, 800a8e0 <__ieee754_pow+0x3b0>)
 800a89e:	e9d3 2300 	ldrd	r2, r3, [r3]
 800a8a2:	e9dd 0102 	ldrd	r0, r1, [sp, #8]
 800a8a6:	f7f5 fea7 	bl	80005f8 <__aeabi_dmul>
 800a8aa:	a30d      	add	r3, pc, #52	; (adr r3, 800a8e0 <__ieee754_pow+0x3b0>)
 800a8ac:	e9d3 2300 	ldrd	r2, r3, [r3]
 800a8b0:	e6d5      	b.n	800a65e <__ieee754_pow+0x12e>
 800a8b2:	bf00      	nop
 800a8b4:	f3af 8000 	nop.w
 800a8b8:	60000000 	.word	0x60000000
 800a8bc:	3ff71547 	.word	0x3ff71547
 800a8c0:	f85ddf44 	.word	0xf85ddf44
 800a8c4:	3e54ae0b 	.word	0x3e54ae0b
 800a8c8:	55555555 	.word	0x55555555
 800a8cc:	3fd55555 	.word	0x3fd55555
 800a8d0:	652b82fe 	.word	0x652b82fe
 800a8d4:	3ff71547 	.word	0x3ff71547
 800a8d8:	00000000 	.word	0x00000000
 800a8dc:	bff00000 	.word	0xbff00000
 800a8e0:	8800759c 	.word	0x8800759c
 800a8e4:	7e37e43c 	.word	0x7e37e43c
 800a8e8:	3ff00000 	.word	0x3ff00000
 800a8ec:	3fd00000 	.word	0x3fd00000
 800a8f0:	3fe00000 	.word	0x3fe00000
 800a8f4:	408fffff 	.word	0x408fffff
 800a8f8:	f5b4 1f80 	cmp.w	r4, #1048576	; 0x100000
 800a8fc:	f04f 0200 	mov.w	r2, #0
 800a900:	da05      	bge.n	800a90e <__ieee754_pow+0x3de>
 800a902:	4bd3      	ldr	r3, [pc, #844]	; (800ac50 <__ieee754_pow+0x720>)
 800a904:	f7f5 fe78 	bl	80005f8 <__aeabi_dmul>
 800a908:	f06f 0234 	mvn.w	r2, #52	; 0x34
 800a90c:	460c      	mov	r4, r1
 800a90e:	1523      	asrs	r3, r4, #20
 800a910:	f2a3 33ff 	subw	r3, r3, #1023	; 0x3ff
 800a914:	4413      	add	r3, r2
 800a916:	9309      	str	r3, [sp, #36]	; 0x24
 800a918:	4bce      	ldr	r3, [pc, #824]	; (800ac54 <__ieee754_pow+0x724>)
 800a91a:	f3c4 0413 	ubfx	r4, r4, #0, #20
 800a91e:	f044 557f 	orr.w	r5, r4, #1069547520	; 0x3fc00000
 800a922:	429c      	cmp	r4, r3
 800a924:	f445 1540 	orr.w	r5, r5, #3145728	; 0x300000
 800a928:	dd08      	ble.n	800a93c <__ieee754_pow+0x40c>
 800a92a:	4bcb      	ldr	r3, [pc, #812]	; (800ac58 <__ieee754_pow+0x728>)
 800a92c:	429c      	cmp	r4, r3
 800a92e:	f340 815e 	ble.w	800abee <__ieee754_pow+0x6be>
 800a932:	9b09      	ldr	r3, [sp, #36]	; 0x24
 800a934:	3301      	adds	r3, #1
 800a936:	9309      	str	r3, [sp, #36]	; 0x24
 800a938:	f5a5 1580 	sub.w	r5, r5, #1048576	; 0x100000
 800a93c:	f04f 0a00 	mov.w	sl, #0
 800a940:	ea4f 03ca 	mov.w	r3, sl, lsl #3
 800a944:	930c      	str	r3, [sp, #48]	; 0x30
 800a946:	9a0c      	ldr	r2, [sp, #48]	; 0x30
 800a948:	4bc4      	ldr	r3, [pc, #784]	; (800ac5c <__ieee754_pow+0x72c>)
 800a94a:	4413      	add	r3, r2
 800a94c:	ed93 7b00 	vldr	d7, [r3]
 800a950:	4629      	mov	r1, r5
 800a952:	ec53 2b17 	vmov	r2, r3, d7
 800a956:	ed8d 7b06 	vstr	d7, [sp, #24]
 800a95a:	e9cd 010a 	strd	r0, r1, [sp, #40]	; 0x28
 800a95e:	f7f5 fc93 	bl	8000288 <__aeabi_dsub>
 800a962:	e9dd 230a 	ldrd	r2, r3, [sp, #40]	; 0x28
 800a966:	4606      	mov	r6, r0
 800a968:	460f      	mov	r7, r1
 800a96a:	e9dd 0106 	ldrd	r0, r1, [sp, #24]
 800a96e:	f7f5 fc8d 	bl	800028c <__adddf3>
 800a972:	4602      	mov	r2, r0
 800a974:	460b      	mov	r3, r1
 800a976:	2000      	movs	r0, #0
 800a978:	49b9      	ldr	r1, [pc, #740]	; (800ac60 <__ieee754_pow+0x730>)
 800a97a:	f7f5 ff67 	bl	800084c <__aeabi_ddiv>
 800a97e:	e9cd 010e 	strd	r0, r1, [sp, #56]	; 0x38
 800a982:	4602      	mov	r2, r0
 800a984:	460b      	mov	r3, r1
 800a986:	4630      	mov	r0, r6
 800a988:	4639      	mov	r1, r7
 800a98a:	f7f5 fe35 	bl	80005f8 <__aeabi_dmul>
 800a98e:	e9cd 0104 	strd	r0, r1, [sp, #16]
 800a992:	e9dd 3404 	ldrd	r3, r4, [sp, #16]
 800a996:	e9cd 3402 	strd	r3, r4, [sp, #8]
 800a99a:	2300      	movs	r3, #0
 800a99c:	9302      	str	r3, [sp, #8]
 800a99e:	e9dd 8902 	ldrd	r8, r9, [sp, #8]
 800a9a2:	106d      	asrs	r5, r5, #1
 800a9a4:	f045 5500 	orr.w	r5, r5, #536870912	; 0x20000000
 800a9a8:	f505 2500 	add.w	r5, r5, #524288	; 0x80000
 800a9ac:	2200      	movs	r2, #0
 800a9ae:	eb05 438a 	add.w	r3, r5, sl, lsl #18
 800a9b2:	4640      	mov	r0, r8
 800a9b4:	4649      	mov	r1, r9
 800a9b6:	4614      	mov	r4, r2
 800a9b8:	461d      	mov	r5, r3
 800a9ba:	f7f5 fe1d 	bl	80005f8 <__aeabi_dmul>
 800a9be:	4602      	mov	r2, r0
 800a9c0:	460b      	mov	r3, r1
 800a9c2:	4630      	mov	r0, r6
 800a9c4:	4639      	mov	r1, r7
 800a9c6:	f7f5 fc5f 	bl	8000288 <__aeabi_dsub>
 800a9ca:	e9dd 2306 	ldrd	r2, r3, [sp, #24]
 800a9ce:	4606      	mov	r6, r0
 800a9d0:	460f      	mov	r7, r1
 800a9d2:	4620      	mov	r0, r4
 800a9d4:	4629      	mov	r1, r5
 800a9d6:	f7f5 fc57 	bl	8000288 <__aeabi_dsub>
 800a9da:	4602      	mov	r2, r0
 800a9dc:	460b      	mov	r3, r1
 800a9de:	e9dd 010a 	ldrd	r0, r1, [sp, #40]	; 0x28
 800a9e2:	f7f5 fc51 	bl	8000288 <__aeabi_dsub>
 800a9e6:	4642      	mov	r2, r8
 800a9e8:	464b      	mov	r3, r9
 800a9ea:	f7f5 fe05 	bl	80005f8 <__aeabi_dmul>
 800a9ee:	4602      	mov	r2, r0
 800a9f0:	460b      	mov	r3, r1
 800a9f2:	4630      	mov	r0, r6
 800a9f4:	4639      	mov	r1, r7
 800a9f6:	f7f5 fc47 	bl	8000288 <__aeabi_dsub>
 800a9fa:	e9dd 230e 	ldrd	r2, r3, [sp, #56]	; 0x38
 800a9fe:	f7f5 fdfb 	bl	80005f8 <__aeabi_dmul>
 800aa02:	e9dd 2304 	ldrd	r2, r3, [sp, #16]
 800aa06:	e9cd 0106 	strd	r0, r1, [sp, #24]
 800aa0a:	4610      	mov	r0, r2
 800aa0c:	4619      	mov	r1, r3
 800aa0e:	f7f5 fdf3 	bl	80005f8 <__aeabi_dmul>
 800aa12:	a37b      	add	r3, pc, #492	; (adr r3, 800ac00 <__ieee754_pow+0x6d0>)
 800aa14:	e9d3 2300 	ldrd	r2, r3, [r3]
 800aa18:	4604      	mov	r4, r0
 800aa1a:	460d      	mov	r5, r1
 800aa1c:	f7f5 fdec 	bl	80005f8 <__aeabi_dmul>
 800aa20:	a379      	add	r3, pc, #484	; (adr r3, 800ac08 <__ieee754_pow+0x6d8>)
 800aa22:	e9d3 2300 	ldrd	r2, r3, [r3]
 800aa26:	f7f5 fc31 	bl	800028c <__adddf3>
 800aa2a:	4622      	mov	r2, r4
 800aa2c:	462b      	mov	r3, r5
 800aa2e:	f7f5 fde3 	bl	80005f8 <__aeabi_dmul>
 800aa32:	a377      	add	r3, pc, #476	; (adr r3, 800ac10 <__ieee754_pow+0x6e0>)
 800aa34:	e9d3 2300 	ldrd	r2, r3, [r3]
 800aa38:	f7f5 fc28 	bl	800028c <__adddf3>
 800aa3c:	4622      	mov	r2, r4
 800aa3e:	462b      	mov	r3, r5
 800aa40:	f7f5 fdda 	bl	80005f8 <__aeabi_dmul>
 800aa44:	a374      	add	r3, pc, #464	; (adr r3, 800ac18 <__ieee754_pow+0x6e8>)
 800aa46:	e9d3 2300 	ldrd	r2, r3, [r3]
 800aa4a:	f7f5 fc1f 	bl	800028c <__adddf3>
 800aa4e:	4622      	mov	r2, r4
 800aa50:	462b      	mov	r3, r5
 800aa52:	f7f5 fdd1 	bl	80005f8 <__aeabi_dmul>
 800aa56:	a372      	add	r3, pc, #456	; (adr r3, 800ac20 <__ieee754_pow+0x6f0>)
 800aa58:	e9d3 2300 	ldrd	r2, r3, [r3]
 800aa5c:	f7f5 fc16 	bl	800028c <__adddf3>
 800aa60:	4622      	mov	r2, r4
 800aa62:	462b      	mov	r3, r5
 800aa64:	f7f5 fdc8 	bl	80005f8 <__aeabi_dmul>
 800aa68:	a36f      	add	r3, pc, #444	; (adr r3, 800ac28 <__ieee754_pow+0x6f8>)
 800aa6a:	e9d3 2300 	ldrd	r2, r3, [r3]
 800aa6e:	f7f5 fc0d 	bl	800028c <__adddf3>
 800aa72:	4622      	mov	r2, r4
 800aa74:	4606      	mov	r6, r0
 800aa76:	460f      	mov	r7, r1
 800aa78:	462b      	mov	r3, r5
 800aa7a:	4620      	mov	r0, r4
 800aa7c:	4629      	mov	r1, r5
 800aa7e:	f7f5 fdbb 	bl	80005f8 <__aeabi_dmul>
 800aa82:	4602      	mov	r2, r0
 800aa84:	460b      	mov	r3, r1
 800aa86:	4630      	mov	r0, r6
 800aa88:	4639      	mov	r1, r7
 800aa8a:	f7f5 fdb5 	bl	80005f8 <__aeabi_dmul>
 800aa8e:	4642      	mov	r2, r8
 800aa90:	4604      	mov	r4, r0
 800aa92:	460d      	mov	r5, r1
 800aa94:	464b      	mov	r3, r9
 800aa96:	e9dd 0104 	ldrd	r0, r1, [sp, #16]
 800aa9a:	f7f5 fbf7 	bl	800028c <__adddf3>
 800aa9e:	e9dd 2306 	ldrd	r2, r3, [sp, #24]
 800aaa2:	f7f5 fda9 	bl	80005f8 <__aeabi_dmul>
 800aaa6:	4622      	mov	r2, r4
 800aaa8:	462b      	mov	r3, r5
 800aaaa:	f7f5 fbef 	bl	800028c <__adddf3>
 800aaae:	4642      	mov	r2, r8
 800aab0:	4606      	mov	r6, r0
 800aab2:	460f      	mov	r7, r1
 800aab4:	464b      	mov	r3, r9
 800aab6:	4640      	mov	r0, r8
 800aab8:	4649      	mov	r1, r9
 800aaba:	f7f5 fd9d 	bl	80005f8 <__aeabi_dmul>
 800aabe:	2200      	movs	r2, #0
 800aac0:	4b68      	ldr	r3, [pc, #416]	; (800ac64 <__ieee754_pow+0x734>)
 800aac2:	e9cd 010a 	strd	r0, r1, [sp, #40]	; 0x28
 800aac6:	f7f5 fbe1 	bl	800028c <__adddf3>
 800aaca:	4632      	mov	r2, r6
 800aacc:	463b      	mov	r3, r7
 800aace:	f7f5 fbdd 	bl	800028c <__adddf3>
 800aad2:	9802      	ldr	r0, [sp, #8]
 800aad4:	460d      	mov	r5, r1
 800aad6:	4604      	mov	r4, r0
 800aad8:	4602      	mov	r2, r0
 800aada:	460b      	mov	r3, r1
 800aadc:	4640      	mov	r0, r8
 800aade:	4649      	mov	r1, r9
 800aae0:	f7f5 fd8a 	bl	80005f8 <__aeabi_dmul>
 800aae4:	2200      	movs	r2, #0
 800aae6:	4680      	mov	r8, r0
 800aae8:	4689      	mov	r9, r1
 800aaea:	4b5e      	ldr	r3, [pc, #376]	; (800ac64 <__ieee754_pow+0x734>)
 800aaec:	4620      	mov	r0, r4
 800aaee:	4629      	mov	r1, r5
 800aaf0:	f7f5 fbca 	bl	8000288 <__aeabi_dsub>
 800aaf4:	e9dd 230a 	ldrd	r2, r3, [sp, #40]	; 0x28
 800aaf8:	f7f5 fbc6 	bl	8000288 <__aeabi_dsub>
 800aafc:	4602      	mov	r2, r0
 800aafe:	460b      	mov	r3, r1
 800ab00:	4630      	mov	r0, r6
 800ab02:	4639      	mov	r1, r7
 800ab04:	f7f5 fbc0 	bl	8000288 <__aeabi_dsub>
 800ab08:	e9dd 2304 	ldrd	r2, r3, [sp, #16]
 800ab0c:	f7f5 fd74 	bl	80005f8 <__aeabi_dmul>
 800ab10:	4622      	mov	r2, r4
 800ab12:	4606      	mov	r6, r0
 800ab14:	460f      	mov	r7, r1
 800ab16:	462b      	mov	r3, r5
 800ab18:	e9dd 0106 	ldrd	r0, r1, [sp, #24]
 800ab1c:	f7f5 fd6c 	bl	80005f8 <__aeabi_dmul>
 800ab20:	4602      	mov	r2, r0
 800ab22:	460b      	mov	r3, r1
 800ab24:	4630      	mov	r0, r6
 800ab26:	4639      	mov	r1, r7
 800ab28:	f7f5 fbb0 	bl	800028c <__adddf3>
 800ab2c:	4606      	mov	r6, r0
 800ab2e:	460f      	mov	r7, r1
 800ab30:	4602      	mov	r2, r0
 800ab32:	460b      	mov	r3, r1
 800ab34:	4640      	mov	r0, r8
 800ab36:	4649      	mov	r1, r9
 800ab38:	f7f5 fba8 	bl	800028c <__adddf3>
 800ab3c:	9802      	ldr	r0, [sp, #8]
 800ab3e:	a33c      	add	r3, pc, #240	; (adr r3, 800ac30 <__ieee754_pow+0x700>)
 800ab40:	e9d3 2300 	ldrd	r2, r3, [r3]
 800ab44:	4604      	mov	r4, r0
 800ab46:	460d      	mov	r5, r1
 800ab48:	f7f5 fd56 	bl	80005f8 <__aeabi_dmul>
 800ab4c:	4642      	mov	r2, r8
 800ab4e:	e9cd 0106 	strd	r0, r1, [sp, #24]
 800ab52:	464b      	mov	r3, r9
 800ab54:	4620      	mov	r0, r4
 800ab56:	4629      	mov	r1, r5
 800ab58:	f7f5 fb96 	bl	8000288 <__aeabi_dsub>
 800ab5c:	4602      	mov	r2, r0
 800ab5e:	460b      	mov	r3, r1
 800ab60:	4630      	mov	r0, r6
 800ab62:	4639      	mov	r1, r7
 800ab64:	f7f5 fb90 	bl	8000288 <__aeabi_dsub>
 800ab68:	a333      	add	r3, pc, #204	; (adr r3, 800ac38 <__ieee754_pow+0x708>)
 800ab6a:	e9d3 2300 	ldrd	r2, r3, [r3]
 800ab6e:	f7f5 fd43 	bl	80005f8 <__aeabi_dmul>
 800ab72:	a333      	add	r3, pc, #204	; (adr r3, 800ac40 <__ieee754_pow+0x710>)
 800ab74:	e9d3 2300 	ldrd	r2, r3, [r3]
 800ab78:	4606      	mov	r6, r0
 800ab7a:	460f      	mov	r7, r1
 800ab7c:	4620      	mov	r0, r4
 800ab7e:	4629      	mov	r1, r5
 800ab80:	f7f5 fd3a 	bl	80005f8 <__aeabi_dmul>
 800ab84:	4602      	mov	r2, r0
 800ab86:	460b      	mov	r3, r1
 800ab88:	4630      	mov	r0, r6
 800ab8a:	4639      	mov	r1, r7
 800ab8c:	f7f5 fb7e 	bl	800028c <__adddf3>
 800ab90:	9a0c      	ldr	r2, [sp, #48]	; 0x30
 800ab92:	4b35      	ldr	r3, [pc, #212]	; (800ac68 <__ieee754_pow+0x738>)
 800ab94:	4413      	add	r3, r2
 800ab96:	e9d3 2300 	ldrd	r2, r3, [r3]
 800ab9a:	f7f5 fb77 	bl	800028c <__adddf3>
 800ab9e:	4604      	mov	r4, r0
 800aba0:	9809      	ldr	r0, [sp, #36]	; 0x24
 800aba2:	460d      	mov	r5, r1
 800aba4:	f7f5 fcbe 	bl	8000524 <__aeabi_i2d>
 800aba8:	9a0c      	ldr	r2, [sp, #48]	; 0x30
 800abaa:	4b30      	ldr	r3, [pc, #192]	; (800ac6c <__ieee754_pow+0x73c>)
 800abac:	4413      	add	r3, r2
 800abae:	e9d3 8900 	ldrd	r8, r9, [r3]
 800abb2:	4606      	mov	r6, r0
 800abb4:	460f      	mov	r7, r1
 800abb6:	4622      	mov	r2, r4
 800abb8:	462b      	mov	r3, r5
 800abba:	e9dd 0106 	ldrd	r0, r1, [sp, #24]
 800abbe:	f7f5 fb65 	bl	800028c <__adddf3>
 800abc2:	4642      	mov	r2, r8
 800abc4:	464b      	mov	r3, r9
 800abc6:	f7f5 fb61 	bl	800028c <__adddf3>
 800abca:	4632      	mov	r2, r6
 800abcc:	463b      	mov	r3, r7
 800abce:	f7f5 fb5d 	bl	800028c <__adddf3>
 800abd2:	9802      	ldr	r0, [sp, #8]
 800abd4:	4632      	mov	r2, r6
 800abd6:	463b      	mov	r3, r7
 800abd8:	e9cd 0104 	strd	r0, r1, [sp, #16]
 800abdc:	f7f5 fb54 	bl	8000288 <__aeabi_dsub>
 800abe0:	4642      	mov	r2, r8
 800abe2:	464b      	mov	r3, r9
 800abe4:	f7f5 fb50 	bl	8000288 <__aeabi_dsub>
 800abe8:	e9dd 2306 	ldrd	r2, r3, [sp, #24]
 800abec:	e607      	b.n	800a7fe <__ieee754_pow+0x2ce>
 800abee:	f04f 0a01 	mov.w	sl, #1
 800abf2:	e6a5      	b.n	800a940 <__ieee754_pow+0x410>
 800abf4:	ed9f 7b14 	vldr	d7, [pc, #80]	; 800ac48 <__ieee754_pow+0x718>
 800abf8:	e613      	b.n	800a822 <__ieee754_pow+0x2f2>
 800abfa:	bf00      	nop
 800abfc:	f3af 8000 	nop.w
 800ac00:	4a454eef 	.word	0x4a454eef
 800ac04:	3fca7e28 	.word	0x3fca7e28
 800ac08:	93c9db65 	.word	0x93c9db65
 800ac0c:	3fcd864a 	.word	0x3fcd864a
 800ac10:	a91d4101 	.word	0xa91d4101
 800ac14:	3fd17460 	.word	0x3fd17460
 800ac18:	518f264d 	.word	0x518f264d
 800ac1c:	3fd55555 	.word	0x3fd55555
 800ac20:	db6fabff 	.word	0xdb6fabff
 800ac24:	3fdb6db6 	.word	0x3fdb6db6
 800ac28:	33333303 	.word	0x33333303
 800ac2c:	3fe33333 	.word	0x3fe33333
 800ac30:	e0000000 	.word	0xe0000000
 800ac34:	3feec709 	.word	0x3feec709
 800ac38:	dc3a03fd 	.word	0xdc3a03fd
 800ac3c:	3feec709 	.word	0x3feec709
 800ac40:	145b01f5 	.word	0x145b01f5
 800ac44:	be3e2fe0 	.word	0xbe3e2fe0
 800ac48:	00000000 	.word	0x00000000
 800ac4c:	3ff00000 	.word	0x3ff00000
 800ac50:	43400000 	.word	0x43400000
 800ac54:	0003988e 	.word	0x0003988e
 800ac58:	000bb679 	.word	0x000bb679
 800ac5c:	0800b650 	.word	0x0800b650
 800ac60:	3ff00000 	.word	0x3ff00000
 800ac64:	40080000 	.word	0x40080000
 800ac68:	0800b670 	.word	0x0800b670
 800ac6c:	0800b660 	.word	0x0800b660
 800ac70:	a3b4      	add	r3, pc, #720	; (adr r3, 800af44 <__ieee754_pow+0xa14>)
 800ac72:	e9d3 2300 	ldrd	r2, r3, [r3]
 800ac76:	4640      	mov	r0, r8
 800ac78:	4649      	mov	r1, r9
 800ac7a:	f7f5 fb07 	bl	800028c <__adddf3>
 800ac7e:	4622      	mov	r2, r4
 800ac80:	e9cd 0104 	strd	r0, r1, [sp, #16]
 800ac84:	462b      	mov	r3, r5
 800ac86:	4630      	mov	r0, r6
 800ac88:	4639      	mov	r1, r7
 800ac8a:	f7f5 fafd 	bl	8000288 <__aeabi_dsub>
 800ac8e:	4602      	mov	r2, r0
 800ac90:	460b      	mov	r3, r1
 800ac92:	e9dd 0104 	ldrd	r0, r1, [sp, #16]
 800ac96:	f7f5 ff3f 	bl	8000b18 <__aeabi_dcmpgt>
 800ac9a:	2800      	cmp	r0, #0
 800ac9c:	f47f adfe 	bne.w	800a89c <__ieee754_pow+0x36c>
 800aca0:	4aa3      	ldr	r2, [pc, #652]	; (800af30 <__ieee754_pow+0xa00>)
 800aca2:	f02b 4300 	bic.w	r3, fp, #2147483648	; 0x80000000
 800aca6:	4293      	cmp	r3, r2
 800aca8:	f340 810a 	ble.w	800aec0 <__ieee754_pow+0x990>
 800acac:	151b      	asrs	r3, r3, #20
 800acae:	f44f 1a80 	mov.w	sl, #1048576	; 0x100000
 800acb2:	f2a3 33fe 	subw	r3, r3, #1022	; 0x3fe
 800acb6:	fa4a f303 	asr.w	r3, sl, r3
 800acba:	445b      	add	r3, fp
 800acbc:	f3c3 520a 	ubfx	r2, r3, #20, #11
 800acc0:	4e9c      	ldr	r6, [pc, #624]	; (800af34 <__ieee754_pow+0xa04>)
 800acc2:	f2a2 32ff 	subw	r2, r2, #1023	; 0x3ff
 800acc6:	4116      	asrs	r6, r2
 800acc8:	f3c3 0a13 	ubfx	sl, r3, #0, #20
 800accc:	2000      	movs	r0, #0
 800acce:	ea23 0106 	bic.w	r1, r3, r6
 800acd2:	f1c2 0214 	rsb	r2, r2, #20
 800acd6:	f44a 1a80 	orr.w	sl, sl, #1048576	; 0x100000
 800acda:	fa4a fa02 	asr.w	sl, sl, r2
 800acde:	f1bb 0f00 	cmp.w	fp, #0
 800ace2:	4602      	mov	r2, r0
 800ace4:	460b      	mov	r3, r1
 800ace6:	4620      	mov	r0, r4
 800ace8:	4629      	mov	r1, r5
 800acea:	bfb8      	it	lt
 800acec:	f1ca 0a00 	rsblt	sl, sl, #0
 800acf0:	f7f5 faca 	bl	8000288 <__aeabi_dsub>
 800acf4:	e9cd 0100 	strd	r0, r1, [sp]
 800acf8:	4642      	mov	r2, r8
 800acfa:	464b      	mov	r3, r9
 800acfc:	e9dd 0100 	ldrd	r0, r1, [sp]
 800ad00:	f7f5 fac4 	bl	800028c <__adddf3>
 800ad04:	2000      	movs	r0, #0
 800ad06:	a378      	add	r3, pc, #480	; (adr r3, 800aee8 <__ieee754_pow+0x9b8>)
 800ad08:	e9d3 2300 	ldrd	r2, r3, [r3]
 800ad0c:	4604      	mov	r4, r0
 800ad0e:	460d      	mov	r5, r1
 800ad10:	f7f5 fc72 	bl	80005f8 <__aeabi_dmul>
 800ad14:	e9dd 2300 	ldrd	r2, r3, [sp]
 800ad18:	4606      	mov	r6, r0
 800ad1a:	460f      	mov	r7, r1
 800ad1c:	4620      	mov	r0, r4
 800ad1e:	4629      	mov	r1, r5
 800ad20:	f7f5 fab2 	bl	8000288 <__aeabi_dsub>
 800ad24:	4602      	mov	r2, r0
 800ad26:	460b      	mov	r3, r1
 800ad28:	4640      	mov	r0, r8
 800ad2a:	4649      	mov	r1, r9
 800ad2c:	f7f5 faac 	bl	8000288 <__aeabi_dsub>
 800ad30:	a36f      	add	r3, pc, #444	; (adr r3, 800aef0 <__ieee754_pow+0x9c0>)
 800ad32:	e9d3 2300 	ldrd	r2, r3, [r3]
 800ad36:	f7f5 fc5f 	bl	80005f8 <__aeabi_dmul>
 800ad3a:	a36f      	add	r3, pc, #444	; (adr r3, 800aef8 <__ieee754_pow+0x9c8>)
 800ad3c:	e9d3 2300 	ldrd	r2, r3, [r3]
 800ad40:	4680      	mov	r8, r0
 800ad42:	4689      	mov	r9, r1
 800ad44:	4620      	mov	r0, r4
 800ad46:	4629      	mov	r1, r5
 800ad48:	f7f5 fc56 	bl	80005f8 <__aeabi_dmul>
 800ad4c:	4602      	mov	r2, r0
 800ad4e:	460b      	mov	r3, r1
 800ad50:	4640      	mov	r0, r8
 800ad52:	4649      	mov	r1, r9
 800ad54:	f7f5 fa9a 	bl	800028c <__adddf3>
 800ad58:	4604      	mov	r4, r0
 800ad5a:	460d      	mov	r5, r1
 800ad5c:	4602      	mov	r2, r0
 800ad5e:	460b      	mov	r3, r1
 800ad60:	4630      	mov	r0, r6
 800ad62:	4639      	mov	r1, r7
 800ad64:	f7f5 fa92 	bl	800028c <__adddf3>
 800ad68:	4632      	mov	r2, r6
 800ad6a:	463b      	mov	r3, r7
 800ad6c:	4680      	mov	r8, r0
 800ad6e:	4689      	mov	r9, r1
 800ad70:	f7f5 fa8a 	bl	8000288 <__aeabi_dsub>
 800ad74:	4602      	mov	r2, r0
 800ad76:	460b      	mov	r3, r1
 800ad78:	4620      	mov	r0, r4
 800ad7a:	4629      	mov	r1, r5
 800ad7c:	f7f5 fa84 	bl	8000288 <__aeabi_dsub>
 800ad80:	4642      	mov	r2, r8
 800ad82:	4606      	mov	r6, r0
 800ad84:	460f      	mov	r7, r1
 800ad86:	464b      	mov	r3, r9
 800ad88:	4640      	mov	r0, r8
 800ad8a:	4649      	mov	r1, r9
 800ad8c:	f7f5 fc34 	bl	80005f8 <__aeabi_dmul>
 800ad90:	a35b      	add	r3, pc, #364	; (adr r3, 800af00 <__ieee754_pow+0x9d0>)
 800ad92:	e9d3 2300 	ldrd	r2, r3, [r3]
 800ad96:	4604      	mov	r4, r0
 800ad98:	460d      	mov	r5, r1
 800ad9a:	f7f5 fc2d 	bl	80005f8 <__aeabi_dmul>
 800ad9e:	a35a      	add	r3, pc, #360	; (adr r3, 800af08 <__ieee754_pow+0x9d8>)
 800ada0:	e9d3 2300 	ldrd	r2, r3, [r3]
 800ada4:	f7f5 fa70 	bl	8000288 <__aeabi_dsub>
 800ada8:	4622      	mov	r2, r4
 800adaa:	462b      	mov	r3, r5
 800adac:	f7f5 fc24 	bl	80005f8 <__aeabi_dmul>
 800adb0:	a357      	add	r3, pc, #348	; (adr r3, 800af10 <__ieee754_pow+0x9e0>)
 800adb2:	e9d3 2300 	ldrd	r2, r3, [r3]
 800adb6:	f7f5 fa69 	bl	800028c <__adddf3>
 800adba:	4622      	mov	r2, r4
 800adbc:	462b      	mov	r3, r5
 800adbe:	f7f5 fc1b 	bl	80005f8 <__aeabi_dmul>
 800adc2:	a355      	add	r3, pc, #340	; (adr r3, 800af18 <__ieee754_pow+0x9e8>)
 800adc4:	e9d3 2300 	ldrd	r2, r3, [r3]
 800adc8:	f7f5 fa5e 	bl	8000288 <__aeabi_dsub>
 800adcc:	4622      	mov	r2, r4
 800adce:	462b      	mov	r3, r5
 800add0:	f7f5 fc12 	bl	80005f8 <__aeabi_dmul>
 800add4:	a352      	add	r3, pc, #328	; (adr r3, 800af20 <__ieee754_pow+0x9f0>)
 800add6:	e9d3 2300 	ldrd	r2, r3, [r3]
 800adda:	f7f5 fa57 	bl	800028c <__adddf3>
 800adde:	4622      	mov	r2, r4
 800ade0:	462b      	mov	r3, r5
 800ade2:	f7f5 fc09 	bl	80005f8 <__aeabi_dmul>
 800ade6:	4602      	mov	r2, r0
 800ade8:	460b      	mov	r3, r1
 800adea:	4640      	mov	r0, r8
 800adec:	4649      	mov	r1, r9
 800adee:	f7f5 fa4b 	bl	8000288 <__aeabi_dsub>
 800adf2:	4604      	mov	r4, r0
 800adf4:	460d      	mov	r5, r1
 800adf6:	4602      	mov	r2, r0
 800adf8:	460b      	mov	r3, r1
 800adfa:	4640      	mov	r0, r8
 800adfc:	4649      	mov	r1, r9
 800adfe:	f7f5 fbfb 	bl	80005f8 <__aeabi_dmul>
 800ae02:	2200      	movs	r2, #0
 800ae04:	e9cd 0100 	strd	r0, r1, [sp]
 800ae08:	f04f 4380 	mov.w	r3, #1073741824	; 0x40000000
 800ae0c:	4620      	mov	r0, r4
 800ae0e:	4629      	mov	r1, r5
 800ae10:	f7f5 fa3a 	bl	8000288 <__aeabi_dsub>
 800ae14:	4602      	mov	r2, r0
 800ae16:	460b      	mov	r3, r1
 800ae18:	e9dd 0100 	ldrd	r0, r1, [sp]
 800ae1c:	f7f5 fd16 	bl	800084c <__aeabi_ddiv>
 800ae20:	4632      	mov	r2, r6
 800ae22:	4604      	mov	r4, r0
 800ae24:	460d      	mov	r5, r1
 800ae26:	463b      	mov	r3, r7
 800ae28:	4640      	mov	r0, r8
 800ae2a:	4649      	mov	r1, r9
 800ae2c:	f7f5 fbe4 	bl	80005f8 <__aeabi_dmul>
 800ae30:	4632      	mov	r2, r6
 800ae32:	463b      	mov	r3, r7
 800ae34:	f7f5 fa2a 	bl	800028c <__adddf3>
 800ae38:	4602      	mov	r2, r0
 800ae3a:	460b      	mov	r3, r1
 800ae3c:	4620      	mov	r0, r4
 800ae3e:	4629      	mov	r1, r5
 800ae40:	f7f5 fa22 	bl	8000288 <__aeabi_dsub>
 800ae44:	4642      	mov	r2, r8
 800ae46:	464b      	mov	r3, r9
 800ae48:	f7f5 fa1e 	bl	8000288 <__aeabi_dsub>
 800ae4c:	4602      	mov	r2, r0
 800ae4e:	460b      	mov	r3, r1
 800ae50:	2000      	movs	r0, #0
 800ae52:	4939      	ldr	r1, [pc, #228]	; (800af38 <__ieee754_pow+0xa08>)
 800ae54:	f7f5 fa18 	bl	8000288 <__aeabi_dsub>
 800ae58:	eb01 540a 	add.w	r4, r1, sl, lsl #20
 800ae5c:	f5b4 1f80 	cmp.w	r4, #1048576	; 0x100000
 800ae60:	4602      	mov	r2, r0
 800ae62:	460b      	mov	r3, r1
 800ae64:	da2f      	bge.n	800aec6 <__ieee754_pow+0x996>
 800ae66:	4650      	mov	r0, sl
 800ae68:	ec43 2b10 	vmov	d0, r2, r3
 800ae6c:	f000 f9c0 	bl	800b1f0 <scalbn>
 800ae70:	ec51 0b10 	vmov	r0, r1, d0
 800ae74:	e9dd 2302 	ldrd	r2, r3, [sp, #8]
 800ae78:	f7ff bbf1 	b.w	800a65e <__ieee754_pow+0x12e>
 800ae7c:	4b2f      	ldr	r3, [pc, #188]	; (800af3c <__ieee754_pow+0xa0c>)
 800ae7e:	f021 4600 	bic.w	r6, r1, #2147483648	; 0x80000000
 800ae82:	429e      	cmp	r6, r3
 800ae84:	f77f af0c 	ble.w	800aca0 <__ieee754_pow+0x770>
 800ae88:	4b2d      	ldr	r3, [pc, #180]	; (800af40 <__ieee754_pow+0xa10>)
 800ae8a:	440b      	add	r3, r1
 800ae8c:	4303      	orrs	r3, r0
 800ae8e:	d00b      	beq.n	800aea8 <__ieee754_pow+0x978>
 800ae90:	a325      	add	r3, pc, #148	; (adr r3, 800af28 <__ieee754_pow+0x9f8>)
 800ae92:	e9d3 2300 	ldrd	r2, r3, [r3]
 800ae96:	e9dd 0102 	ldrd	r0, r1, [sp, #8]
 800ae9a:	f7f5 fbad 	bl	80005f8 <__aeabi_dmul>
 800ae9e:	a322      	add	r3, pc, #136	; (adr r3, 800af28 <__ieee754_pow+0x9f8>)
 800aea0:	e9d3 2300 	ldrd	r2, r3, [r3]
 800aea4:	f7ff bbdb 	b.w	800a65e <__ieee754_pow+0x12e>
 800aea8:	4622      	mov	r2, r4
 800aeaa:	462b      	mov	r3, r5
 800aeac:	f7f5 f9ec 	bl	8000288 <__aeabi_dsub>
 800aeb0:	4642      	mov	r2, r8
 800aeb2:	464b      	mov	r3, r9
 800aeb4:	f7f5 fe26 	bl	8000b04 <__aeabi_dcmpge>
 800aeb8:	2800      	cmp	r0, #0
 800aeba:	f43f aef1 	beq.w	800aca0 <__ieee754_pow+0x770>
 800aebe:	e7e7      	b.n	800ae90 <__ieee754_pow+0x960>
 800aec0:	f04f 0a00 	mov.w	sl, #0
 800aec4:	e718      	b.n	800acf8 <__ieee754_pow+0x7c8>
 800aec6:	4621      	mov	r1, r4
 800aec8:	e7d4      	b.n	800ae74 <__ieee754_pow+0x944>
 800aeca:	2000      	movs	r0, #0
 800aecc:	491a      	ldr	r1, [pc, #104]	; (800af38 <__ieee754_pow+0xa08>)
 800aece:	f7ff bb8f 	b.w	800a5f0 <__ieee754_pow+0xc0>
 800aed2:	e9dd 0100 	ldrd	r0, r1, [sp]
 800aed6:	f7ff bb8b 	b.w	800a5f0 <__ieee754_pow+0xc0>
 800aeda:	4630      	mov	r0, r6
 800aedc:	4639      	mov	r1, r7
 800aede:	f7ff bb87 	b.w	800a5f0 <__ieee754_pow+0xc0>
 800aee2:	4693      	mov	fp, r2
 800aee4:	f7ff bb98 	b.w	800a618 <__ieee754_pow+0xe8>
 800aee8:	00000000 	.word	0x00000000
 800aeec:	3fe62e43 	.word	0x3fe62e43
 800aef0:	fefa39ef 	.word	0xfefa39ef
 800aef4:	3fe62e42 	.word	0x3fe62e42
 800aef8:	0ca86c39 	.word	0x0ca86c39
 800aefc:	be205c61 	.word	0xbe205c61
 800af00:	72bea4d0 	.word	0x72bea4d0
 800af04:	3e663769 	.word	0x3e663769
 800af08:	c5d26bf1 	.word	0xc5d26bf1
 800af0c:	3ebbbd41 	.word	0x3ebbbd41
 800af10:	af25de2c 	.word	0xaf25de2c
 800af14:	3f11566a 	.word	0x3f11566a
 800af18:	16bebd93 	.word	0x16bebd93
 800af1c:	3f66c16c 	.word	0x3f66c16c
 800af20:	5555553e 	.word	0x5555553e
 800af24:	3fc55555 	.word	0x3fc55555
 800af28:	c2f8f359 	.word	0xc2f8f359
 800af2c:	01a56e1f 	.word	0x01a56e1f
 800af30:	3fe00000 	.word	0x3fe00000
 800af34:	000fffff 	.word	0x000fffff
 800af38:	3ff00000 	.word	0x3ff00000
 800af3c:	4090cbff 	.word	0x4090cbff
 800af40:	3f6f3400 	.word	0x3f6f3400
 800af44:	652b82fe 	.word	0x652b82fe
 800af48:	3c971547 	.word	0x3c971547

0800af4c <__ieee754_sqrt>:
 800af4c:	e92d 41f0 	stmdb	sp!, {r4, r5, r6, r7, r8, lr}
 800af50:	4955      	ldr	r1, [pc, #340]	; (800b0a8 <__ieee754_sqrt+0x15c>)
 800af52:	ec55 4b10 	vmov	r4, r5, d0
 800af56:	43a9      	bics	r1, r5
 800af58:	462b      	mov	r3, r5
 800af5a:	462a      	mov	r2, r5
 800af5c:	d112      	bne.n	800af84 <__ieee754_sqrt+0x38>
 800af5e:	ee10 2a10 	vmov	r2, s0
 800af62:	ee10 0a10 	vmov	r0, s0
 800af66:	4629      	mov	r1, r5
 800af68:	f7f5 fb46 	bl	80005f8 <__aeabi_dmul>
 800af6c:	4602      	mov	r2, r0
 800af6e:	460b      	mov	r3, r1
 800af70:	4620      	mov	r0, r4
 800af72:	4629      	mov	r1, r5
 800af74:	f7f5 f98a 	bl	800028c <__adddf3>
 800af78:	4604      	mov	r4, r0
 800af7a:	460d      	mov	r5, r1
 800af7c:	ec45 4b10 	vmov	d0, r4, r5
 800af80:	e8bd 81f0 	ldmia.w	sp!, {r4, r5, r6, r7, r8, pc}
 800af84:	2d00      	cmp	r5, #0
 800af86:	ee10 0a10 	vmov	r0, s0
 800af8a:	4621      	mov	r1, r4
 800af8c:	dc0f      	bgt.n	800afae <__ieee754_sqrt+0x62>
 800af8e:	f025 4600 	bic.w	r6, r5, #2147483648	; 0x80000000
 800af92:	4330      	orrs	r0, r6
 800af94:	d0f2      	beq.n	800af7c <__ieee754_sqrt+0x30>
 800af96:	b155      	cbz	r5, 800afae <__ieee754_sqrt+0x62>
 800af98:	ee10 2a10 	vmov	r2, s0
 800af9c:	4620      	mov	r0, r4
 800af9e:	4629      	mov	r1, r5
 800afa0:	f7f5 f972 	bl	8000288 <__aeabi_dsub>
 800afa4:	4602      	mov	r2, r0
 800afa6:	460b      	mov	r3, r1
 800afa8:	f7f5 fc50 	bl	800084c <__aeabi_ddiv>
 800afac:	e7e4      	b.n	800af78 <__ieee754_sqrt+0x2c>
 800afae:	151b      	asrs	r3, r3, #20
 800afb0:	d073      	beq.n	800b09a <__ieee754_sqrt+0x14e>
 800afb2:	f2a3 33ff 	subw	r3, r3, #1023	; 0x3ff
 800afb6:	07dd      	lsls	r5, r3, #31
 800afb8:	f3c2 0213 	ubfx	r2, r2, #0, #20
 800afbc:	bf48      	it	mi
 800afbe:	0fc8      	lsrmi	r0, r1, #31
 800afc0:	f442 1280 	orr.w	r2, r2, #1048576	; 0x100000
 800afc4:	bf44      	itt	mi
 800afc6:	0049      	lslmi	r1, r1, #1
 800afc8:	eb00 0242 	addmi.w	r2, r0, r2, lsl #1
 800afcc:	2500      	movs	r5, #0
 800afce:	1058      	asrs	r0, r3, #1
 800afd0:	0fcb      	lsrs	r3, r1, #31
 800afd2:	eb03 0242 	add.w	r2, r3, r2, lsl #1
 800afd6:	0049      	lsls	r1, r1, #1
 800afd8:	2316      	movs	r3, #22
 800afda:	462c      	mov	r4, r5
 800afdc:	f44f 1600 	mov.w	r6, #2097152	; 0x200000
 800afe0:	19a7      	adds	r7, r4, r6
 800afe2:	4297      	cmp	r7, r2
 800afe4:	bfde      	ittt	le
 800afe6:	19bc      	addle	r4, r7, r6
 800afe8:	1bd2      	suble	r2, r2, r7
 800afea:	19ad      	addle	r5, r5, r6
 800afec:	0fcf      	lsrs	r7, r1, #31
 800afee:	3b01      	subs	r3, #1
 800aff0:	eb07 0242 	add.w	r2, r7, r2, lsl #1
 800aff4:	ea4f 0141 	mov.w	r1, r1, lsl #1
 800aff8:	ea4f 0656 	mov.w	r6, r6, lsr #1
 800affc:	d1f0      	bne.n	800afe0 <__ieee754_sqrt+0x94>
 800affe:	f04f 0c20 	mov.w	ip, #32
 800b002:	469e      	mov	lr, r3
 800b004:	f04f 4600 	mov.w	r6, #2147483648	; 0x80000000
 800b008:	42a2      	cmp	r2, r4
 800b00a:	eb06 070e 	add.w	r7, r6, lr
 800b00e:	dc02      	bgt.n	800b016 <__ieee754_sqrt+0xca>
 800b010:	d112      	bne.n	800b038 <__ieee754_sqrt+0xec>
 800b012:	428f      	cmp	r7, r1
 800b014:	d810      	bhi.n	800b038 <__ieee754_sqrt+0xec>
 800b016:	2f00      	cmp	r7, #0
 800b018:	eb07 0e06 	add.w	lr, r7, r6
 800b01c:	da42      	bge.n	800b0a4 <__ieee754_sqrt+0x158>
 800b01e:	f1be 0f00 	cmp.w	lr, #0
 800b022:	db3f      	blt.n	800b0a4 <__ieee754_sqrt+0x158>
 800b024:	f104 0801 	add.w	r8, r4, #1
 800b028:	1b12      	subs	r2, r2, r4
 800b02a:	428f      	cmp	r7, r1
 800b02c:	bf88      	it	hi
 800b02e:	f102 32ff 	addhi.w	r2, r2, #4294967295
 800b032:	1bc9      	subs	r1, r1, r7
 800b034:	4433      	add	r3, r6
 800b036:	4644      	mov	r4, r8
 800b038:	0052      	lsls	r2, r2, #1
 800b03a:	f1bc 0c01 	subs.w	ip, ip, #1
 800b03e:	eb02 72d1 	add.w	r2, r2, r1, lsr #31
 800b042:	ea4f 0656 	mov.w	r6, r6, lsr #1
 800b046:	ea4f 0141 	mov.w	r1, r1, lsl #1
 800b04a:	d1dd      	bne.n	800b008 <__ieee754_sqrt+0xbc>
 800b04c:	430a      	orrs	r2, r1
 800b04e:	d006      	beq.n	800b05e <__ieee754_sqrt+0x112>
 800b050:	1c5c      	adds	r4, r3, #1
 800b052:	bf13      	iteet	ne
 800b054:	3301      	addne	r3, #1
 800b056:	3501      	addeq	r5, #1
 800b058:	4663      	moveq	r3, ip
 800b05a:	f023 0301 	bicne.w	r3, r3, #1
 800b05e:	106a      	asrs	r2, r5, #1
 800b060:	085b      	lsrs	r3, r3, #1
 800b062:	07e9      	lsls	r1, r5, #31
 800b064:	f102 527f 	add.w	r2, r2, #1069547520	; 0x3fc00000
 800b068:	f502 1200 	add.w	r2, r2, #2097152	; 0x200000
 800b06c:	bf48      	it	mi
 800b06e:	f043 4300 	orrmi.w	r3, r3, #2147483648	; 0x80000000
 800b072:	eb02 5500 	add.w	r5, r2, r0, lsl #20
 800b076:	461c      	mov	r4, r3
 800b078:	e780      	b.n	800af7c <__ieee754_sqrt+0x30>
 800b07a:	0aca      	lsrs	r2, r1, #11
 800b07c:	3815      	subs	r0, #21
 800b07e:	0549      	lsls	r1, r1, #21
 800b080:	2a00      	cmp	r2, #0
 800b082:	d0fa      	beq.n	800b07a <__ieee754_sqrt+0x12e>
 800b084:	02d6      	lsls	r6, r2, #11
 800b086:	d50a      	bpl.n	800b09e <__ieee754_sqrt+0x152>
 800b088:	f1c3 0420 	rsb	r4, r3, #32
 800b08c:	fa21 f404 	lsr.w	r4, r1, r4
 800b090:	1e5d      	subs	r5, r3, #1
 800b092:	4099      	lsls	r1, r3
 800b094:	4322      	orrs	r2, r4
 800b096:	1b43      	subs	r3, r0, r5
 800b098:	e78b      	b.n	800afb2 <__ieee754_sqrt+0x66>
 800b09a:	4618      	mov	r0, r3
 800b09c:	e7f0      	b.n	800b080 <__ieee754_sqrt+0x134>
 800b09e:	0052      	lsls	r2, r2, #1
 800b0a0:	3301      	adds	r3, #1
 800b0a2:	e7ef      	b.n	800b084 <__ieee754_sqrt+0x138>
 800b0a4:	46a0      	mov	r8, r4
 800b0a6:	e7bf      	b.n	800b028 <__ieee754_sqrt+0xdc>
 800b0a8:	7ff00000 	.word	0x7ff00000

0800b0ac <fabs>:
 800b0ac:	ec51 0b10 	vmov	r0, r1, d0
 800b0b0:	ee10 2a10 	vmov	r2, s0
 800b0b4:	f021 4300 	bic.w	r3, r1, #2147483648	; 0x80000000
 800b0b8:	ec43 2b10 	vmov	d0, r2, r3
 800b0bc:	4770      	bx	lr

0800b0be <finite>:
 800b0be:	ee10 3a90 	vmov	r3, s1
 800b0c2:	f043 4000 	orr.w	r0, r3, #2147483648	; 0x80000000
 800b0c6:	f500 1080 	add.w	r0, r0, #1048576	; 0x100000
 800b0ca:	0fc0      	lsrs	r0, r0, #31
 800b0cc:	4770      	bx	lr

0800b0ce <matherr>:
 800b0ce:	2000      	movs	r0, #0
 800b0d0:	4770      	bx	lr
 800b0d2:	0000      	movs	r0, r0
 800b0d4:	0000      	movs	r0, r0
	...

0800b0d8 <nan>:
 800b0d8:	ed9f 0b01 	vldr	d0, [pc, #4]	; 800b0e0 <nan+0x8>
 800b0dc:	4770      	bx	lr
 800b0de:	bf00      	nop
 800b0e0:	00000000 	.word	0x00000000
 800b0e4:	7ff80000 	.word	0x7ff80000

0800b0e8 <rint>:
 800b0e8:	b5f7      	push	{r0, r1, r2, r4, r5, r6, r7, lr}
 800b0ea:	ec51 0b10 	vmov	r0, r1, d0
 800b0ee:	f3c1 520a 	ubfx	r2, r1, #20, #11
 800b0f2:	f2a2 36ff 	subw	r6, r2, #1023	; 0x3ff
 800b0f6:	2e13      	cmp	r6, #19
 800b0f8:	460b      	mov	r3, r1
 800b0fa:	ee10 4a10 	vmov	r4, s0
 800b0fe:	ea4f 75d1 	mov.w	r5, r1, lsr #31
 800b102:	dc56      	bgt.n	800b1b2 <rint+0xca>
 800b104:	2e00      	cmp	r6, #0
 800b106:	da2b      	bge.n	800b160 <rint+0x78>
 800b108:	f021 4200 	bic.w	r2, r1, #2147483648	; 0x80000000
 800b10c:	4302      	orrs	r2, r0
 800b10e:	d023      	beq.n	800b158 <rint+0x70>
 800b110:	f3c1 0213 	ubfx	r2, r1, #0, #20
 800b114:	4302      	orrs	r2, r0
 800b116:	4254      	negs	r4, r2
 800b118:	4314      	orrs	r4, r2
 800b11a:	0c4b      	lsrs	r3, r1, #17
 800b11c:	0b24      	lsrs	r4, r4, #12
 800b11e:	045b      	lsls	r3, r3, #17
 800b120:	f404 2400 	and.w	r4, r4, #524288	; 0x80000
 800b124:	ea44 0103 	orr.w	r1, r4, r3
 800b128:	460b      	mov	r3, r1
 800b12a:	492f      	ldr	r1, [pc, #188]	; (800b1e8 <rint+0x100>)
 800b12c:	eb01 01c5 	add.w	r1, r1, r5, lsl #3
 800b130:	e9d1 6700 	ldrd	r6, r7, [r1]
 800b134:	4602      	mov	r2, r0
 800b136:	4639      	mov	r1, r7
 800b138:	4630      	mov	r0, r6
 800b13a:	f7f5 f8a7 	bl	800028c <__adddf3>
 800b13e:	e9cd 0100 	strd	r0, r1, [sp]
 800b142:	463b      	mov	r3, r7
 800b144:	4632      	mov	r2, r6
 800b146:	e9dd 0100 	ldrd	r0, r1, [sp]
 800b14a:	f7f5 f89d 	bl	8000288 <__aeabi_dsub>
 800b14e:	f021 4300 	bic.w	r3, r1, #2147483648	; 0x80000000
 800b152:	ea43 77c5 	orr.w	r7, r3, r5, lsl #31
 800b156:	4639      	mov	r1, r7
 800b158:	ec41 0b10 	vmov	d0, r0, r1
 800b15c:	b003      	add	sp, #12
 800b15e:	bdf0      	pop	{r4, r5, r6, r7, pc}
 800b160:	4a22      	ldr	r2, [pc, #136]	; (800b1ec <rint+0x104>)
 800b162:	4132      	asrs	r2, r6
 800b164:	ea01 0702 	and.w	r7, r1, r2
 800b168:	4307      	orrs	r7, r0
 800b16a:	d0f5      	beq.n	800b158 <rint+0x70>
 800b16c:	0852      	lsrs	r2, r2, #1
 800b16e:	4011      	ands	r1, r2
 800b170:	430c      	orrs	r4, r1
 800b172:	d00b      	beq.n	800b18c <rint+0xa4>
 800b174:	ea23 0202 	bic.w	r2, r3, r2
 800b178:	f44f 2380 	mov.w	r3, #262144	; 0x40000
 800b17c:	2e13      	cmp	r6, #19
 800b17e:	fa43 f306 	asr.w	r3, r3, r6
 800b182:	bf0c      	ite	eq
 800b184:	f04f 4400 	moveq.w	r4, #2147483648	; 0x80000000
 800b188:	2400      	movne	r4, #0
 800b18a:	4313      	orrs	r3, r2
 800b18c:	4916      	ldr	r1, [pc, #88]	; (800b1e8 <rint+0x100>)
 800b18e:	eb01 05c5 	add.w	r5, r1, r5, lsl #3
 800b192:	4622      	mov	r2, r4
 800b194:	e9d5 4500 	ldrd	r4, r5, [r5]
 800b198:	4620      	mov	r0, r4
 800b19a:	4629      	mov	r1, r5
 800b19c:	f7f5 f876 	bl	800028c <__adddf3>
 800b1a0:	e9cd 0100 	strd	r0, r1, [sp]
 800b1a4:	4622      	mov	r2, r4
 800b1a6:	462b      	mov	r3, r5
 800b1a8:	e9dd 0100 	ldrd	r0, r1, [sp]
 800b1ac:	f7f5 f86c 	bl	8000288 <__aeabi_dsub>
 800b1b0:	e7d2      	b.n	800b158 <rint+0x70>
 800b1b2:	2e33      	cmp	r6, #51	; 0x33
 800b1b4:	dd07      	ble.n	800b1c6 <rint+0xde>
 800b1b6:	f5b6 6f80 	cmp.w	r6, #1024	; 0x400
 800b1ba:	d1cd      	bne.n	800b158 <rint+0x70>
 800b1bc:	ee10 2a10 	vmov	r2, s0
 800b1c0:	f7f5 f864 	bl	800028c <__adddf3>
 800b1c4:	e7c8      	b.n	800b158 <rint+0x70>
 800b1c6:	f2a2 4613 	subw	r6, r2, #1043	; 0x413
 800b1ca:	f04f 32ff 	mov.w	r2, #4294967295
 800b1ce:	40f2      	lsrs	r2, r6
 800b1d0:	4210      	tst	r0, r2
 800b1d2:	d0c1      	beq.n	800b158 <rint+0x70>
 800b1d4:	0852      	lsrs	r2, r2, #1
 800b1d6:	4210      	tst	r0, r2
 800b1d8:	bf1f      	itttt	ne
 800b1da:	f04f 4480 	movne.w	r4, #1073741824	; 0x40000000
 800b1de:	ea20 0202 	bicne.w	r2, r0, r2
 800b1e2:	4134      	asrne	r4, r6
 800b1e4:	4314      	orrne	r4, r2
 800b1e6:	e7d1      	b.n	800b18c <rint+0xa4>
 800b1e8:	0800b680 	.word	0x0800b680
 800b1ec:	000fffff 	.word	0x000fffff

0800b1f0 <scalbn>:
 800b1f0:	b570      	push	{r4, r5, r6, lr}
 800b1f2:	ec55 4b10 	vmov	r4, r5, d0
 800b1f6:	f3c5 520a 	ubfx	r2, r5, #20, #11
 800b1fa:	4606      	mov	r6, r0
 800b1fc:	462b      	mov	r3, r5
 800b1fe:	b9aa      	cbnz	r2, 800b22c <scalbn+0x3c>
 800b200:	f025 4300 	bic.w	r3, r5, #2147483648	; 0x80000000
 800b204:	4323      	orrs	r3, r4
 800b206:	d03b      	beq.n	800b280 <scalbn+0x90>
 800b208:	4b31      	ldr	r3, [pc, #196]	; (800b2d0 <scalbn+0xe0>)
 800b20a:	4629      	mov	r1, r5
 800b20c:	2200      	movs	r2, #0
 800b20e:	ee10 0a10 	vmov	r0, s0
 800b212:	f7f5 f9f1 	bl	80005f8 <__aeabi_dmul>
 800b216:	4b2f      	ldr	r3, [pc, #188]	; (800b2d4 <scalbn+0xe4>)
 800b218:	429e      	cmp	r6, r3
 800b21a:	4604      	mov	r4, r0
 800b21c:	460d      	mov	r5, r1
 800b21e:	da12      	bge.n	800b246 <scalbn+0x56>
 800b220:	a327      	add	r3, pc, #156	; (adr r3, 800b2c0 <scalbn+0xd0>)
 800b222:	e9d3 2300 	ldrd	r2, r3, [r3]
 800b226:	f7f5 f9e7 	bl	80005f8 <__aeabi_dmul>
 800b22a:	e009      	b.n	800b240 <scalbn+0x50>
 800b22c:	f240 71ff 	movw	r1, #2047	; 0x7ff
 800b230:	428a      	cmp	r2, r1
 800b232:	d10c      	bne.n	800b24e <scalbn+0x5e>
 800b234:	ee10 2a10 	vmov	r2, s0
 800b238:	4620      	mov	r0, r4
 800b23a:	4629      	mov	r1, r5
 800b23c:	f7f5 f826 	bl	800028c <__adddf3>
 800b240:	4604      	mov	r4, r0
 800b242:	460d      	mov	r5, r1
 800b244:	e01c      	b.n	800b280 <scalbn+0x90>
 800b246:	f3c1 520a 	ubfx	r2, r1, #20, #11
 800b24a:	460b      	mov	r3, r1
 800b24c:	3a36      	subs	r2, #54	; 0x36
 800b24e:	4432      	add	r2, r6
 800b250:	f240 71fe 	movw	r1, #2046	; 0x7fe
 800b254:	428a      	cmp	r2, r1
 800b256:	dd0b      	ble.n	800b270 <scalbn+0x80>
 800b258:	ec45 4b11 	vmov	d1, r4, r5
 800b25c:	ed9f 0b1a 	vldr	d0, [pc, #104]	; 800b2c8 <scalbn+0xd8>
 800b260:	f000 f83c 	bl	800b2dc <copysign>
 800b264:	a318      	add	r3, pc, #96	; (adr r3, 800b2c8 <scalbn+0xd8>)
 800b266:	e9d3 2300 	ldrd	r2, r3, [r3]
 800b26a:	ec51 0b10 	vmov	r0, r1, d0
 800b26e:	e7da      	b.n	800b226 <scalbn+0x36>
 800b270:	2a00      	cmp	r2, #0
 800b272:	dd08      	ble.n	800b286 <scalbn+0x96>
 800b274:	f023 43ff 	bic.w	r3, r3, #2139095040	; 0x7f800000
 800b278:	f423 03e0 	bic.w	r3, r3, #7340032	; 0x700000
 800b27c:	ea43 5502 	orr.w	r5, r3, r2, lsl #20
 800b280:	ec45 4b10 	vmov	d0, r4, r5
 800b284:	bd70      	pop	{r4, r5, r6, pc}
 800b286:	f112 0f35 	cmn.w	r2, #53	; 0x35
 800b28a:	da0d      	bge.n	800b2a8 <scalbn+0xb8>
 800b28c:	f24c 3350 	movw	r3, #50000	; 0xc350
 800b290:	429e      	cmp	r6, r3
 800b292:	ec45 4b11 	vmov	d1, r4, r5
 800b296:	dce1      	bgt.n	800b25c <scalbn+0x6c>
 800b298:	ed9f 0b09 	vldr	d0, [pc, #36]	; 800b2c0 <scalbn+0xd0>
 800b29c:	f000 f81e 	bl	800b2dc <copysign>
 800b2a0:	a307      	add	r3, pc, #28	; (adr r3, 800b2c0 <scalbn+0xd0>)
 800b2a2:	e9d3 2300 	ldrd	r2, r3, [r3]
 800b2a6:	e7e0      	b.n	800b26a <scalbn+0x7a>
 800b2a8:	f023 43ff 	bic.w	r3, r3, #2139095040	; 0x7f800000
 800b2ac:	3236      	adds	r2, #54	; 0x36
 800b2ae:	f423 03e0 	bic.w	r3, r3, #7340032	; 0x700000
 800b2b2:	ea43 5502 	orr.w	r5, r3, r2, lsl #20
 800b2b6:	4620      	mov	r0, r4
 800b2b8:	4629      	mov	r1, r5
 800b2ba:	2200      	movs	r2, #0
 800b2bc:	4b06      	ldr	r3, [pc, #24]	; (800b2d8 <scalbn+0xe8>)
 800b2be:	e7b2      	b.n	800b226 <scalbn+0x36>
 800b2c0:	c2f8f359 	.word	0xc2f8f359
 800b2c4:	01a56e1f 	.word	0x01a56e1f
 800b2c8:	8800759c 	.word	0x8800759c
 800b2cc:	7e37e43c 	.word	0x7e37e43c
 800b2d0:	43500000 	.word	0x43500000
 800b2d4:	ffff3cb0 	.word	0xffff3cb0
 800b2d8:	3c900000 	.word	0x3c900000

0800b2dc <copysign>:
 800b2dc:	ec51 0b10 	vmov	r0, r1, d0
 800b2e0:	ee11 0a90 	vmov	r0, s3
 800b2e4:	ee10 2a10 	vmov	r2, s0
 800b2e8:	f021 4100 	bic.w	r1, r1, #2147483648	; 0x80000000
 800b2ec:	f000 4000 	and.w	r0, r0, #2147483648	; 0x80000000
 800b2f0:	ea41 0300 	orr.w	r3, r1, r0
 800b2f4:	ec43 2b10 	vmov	d0, r2, r3
 800b2f8:	4770      	bx	lr
	...

0800b2fc <_init>:
 800b2fc:	b5f8      	push	{r3, r4, r5, r6, r7, lr}
 800b2fe:	bf00      	nop
 800b300:	bcf8      	pop	{r3, r4, r5, r6, r7}
 800b302:	bc08      	pop	{r3}
 800b304:	469e      	mov	lr, r3
 800b306:	4770      	bx	lr

0800b308 <_fini>:
 800b308:	b5f8      	push	{r3, r4, r5, r6, r7, lr}
 800b30a:	bf00      	nop
 800b30c:	bcf8      	pop	{r3, r4, r5, r6, r7}
 800b30e:	bc08      	pop	{r3}
 800b310:	469e      	mov	lr, r3
 800b312:	4770      	bx	lr
